
build/2.1.elf:     file format elf32-littlearm


Disassembly of section .text:

20000000 <startup>:
  exitDBG();
#endif
}

void startup(void) {
  asm volatile(" NOP\n"                /* executed by first 'trace'-command */
20000000:	bf00      	nop
20000002:	f8df d014 	ldr.w	sp, [pc, #20]	@ 20000018 <startup+0x18>
20000006:	f002 fa98 	bl	2000253a <Init>
2000000a:	f000 fca5 	bl	20000958 <main>
2000000e:	f002 baa6 	b.w	2000255e <Exit>
20000012:	e7fe      	b.n	20000012 <startup+0x12>
               " BL Init\n"   /* do hardware init */
               " BL main\n"   /* call main */
               " B  Exit\n"   /* exit to debugger */
               ".L1: B .L1\n" /* never return */
  );
}
20000014:	bf00      	nop
20000016:	0000      	.short	0x0000
20000018:	2001c000 	.word	0x2001c000

2000001c <receiver>:

// Sparas som *2 för att ej behöva använda float
static int lengths[]      = {2,2,2,2,2,2,2,2,2,2,4,2,2,4,1,1,
                             1,1,2,2,1,1,1,1,2,2,2,2,4,2,2,4};

void receiver(App *self, int unused) {
2000001c:	b580      	push	{r7, lr}
2000001e:	b086      	sub	sp, #24
20000020:	af00      	add	r7, sp, #0
20000022:	6078      	str	r0, [r7, #4]
20000024:	6039      	str	r1, [r7, #0]
  CANMsg msg;
  CAN_RECEIVE(&can0, &msg);
20000026:	f107 030c 	add.w	r3, r7, #12
2000002a:	461a      	mov	r2, r3
2000002c:	490a      	ldr	r1, [pc, #40]	@ (20000058 <receiver+0x3c>)
2000002e:	480b      	ldr	r0, [pc, #44]	@ (2000005c <receiver+0x40>)
20000030:	f001 f9ce 	bl	200013d0 <sync>
  SCI_WRITE(&sci0, "Can msg received: ");
20000034:	4b0a      	ldr	r3, [pc, #40]	@ (20000060 <receiver+0x44>)
20000036:	461a      	mov	r2, r3
20000038:	490a      	ldr	r1, [pc, #40]	@ (20000064 <receiver+0x48>)
2000003a:	480b      	ldr	r0, [pc, #44]	@ (20000068 <receiver+0x4c>)
2000003c:	f001 f9c8 	bl	200013d0 <sync>
  SCI_WRITE(&sci0, msg.buff);
20000040:	f107 030c 	add.w	r3, r7, #12
20000044:	3303      	adds	r3, #3
20000046:	461a      	mov	r2, r3
20000048:	4906      	ldr	r1, [pc, #24]	@ (20000064 <receiver+0x48>)
2000004a:	4807      	ldr	r0, [pc, #28]	@ (20000068 <receiver+0x4c>)
2000004c:	f001 f9c0 	bl	200013d0 <sync>
}
20000050:	bf00      	nop
20000052:	3718      	adds	r7, #24
20000054:	46bd      	mov	sp, r7
20000056:	bd80      	pop	{r7, pc}
20000058:	20001bb1 	.word	0x20001bb1
2000005c:	20009194 	.word	0x20009194
20000060:	20008314 	.word	0x20008314
20000064:	20001e4b 	.word	0x20001e4b
20000068:	2000920c 	.word	0x2000920c

2000006c <reader>:

void reader(App *self, int c) {
2000006c:	b580      	push	{r7, lr}
2000006e:	b086      	sub	sp, #24
20000070:	af02      	add	r7, sp, #8
20000072:	6078      	str	r0, [r7, #4]
20000074:	6039      	str	r1, [r7, #0]

    SCI_WRITE(&sci0, "Rcv: '");
20000076:	4bab      	ldr	r3, [pc, #684]	@ (20000324 <reader+0x2b8>)
20000078:	461a      	mov	r2, r3
2000007a:	49ab      	ldr	r1, [pc, #684]	@ (20000328 <reader+0x2bc>)
2000007c:	48ab      	ldr	r0, [pc, #684]	@ (2000032c <reader+0x2c0>)
2000007e:	f001 f9a7 	bl	200013d0 <sync>
    SCI_WRITECHAR(&sci0, c);
20000082:	683a      	ldr	r2, [r7, #0]
20000084:	49aa      	ldr	r1, [pc, #680]	@ (20000330 <reader+0x2c4>)
20000086:	48a9      	ldr	r0, [pc, #676]	@ (2000032c <reader+0x2c0>)
20000088:	f001 f9a2 	bl	200013d0 <sync>
    SCI_WRITE(&sci0, "'\n");
2000008c:	4ba9      	ldr	r3, [pc, #676]	@ (20000334 <reader+0x2c8>)
2000008e:	461a      	mov	r2, r3
20000090:	49a5      	ldr	r1, [pc, #660]	@ (20000328 <reader+0x2bc>)
20000092:	48a6      	ldr	r0, [pc, #664]	@ (2000032c <reader+0x2c0>)
20000094:	f001 f99c 	bl	200013d0 <sync>

    /* ---------- INPUT MODE ---------- */
    if (self->mode != INPUT_DEFAULT) {
20000098:	687b      	ldr	r3, [r7, #4]
2000009a:	7a1b      	ldrb	r3, [r3, #8]
2000009c:	2b00      	cmp	r3, #0
2000009e:	d045      	beq.n	2000012c <reader+0xc0>

        if (c != 'e' && self->cnt < 11) {
200000a0:	683b      	ldr	r3, [r7, #0]
200000a2:	2b65      	cmp	r3, #101	@ 0x65
200000a4:	d00f      	beq.n	200000c6 <reader+0x5a>
200000a6:	687b      	ldr	r3, [r7, #4]
200000a8:	68db      	ldr	r3, [r3, #12]
200000aa:	2b0a      	cmp	r3, #10
200000ac:	dc0b      	bgt.n	200000c6 <reader+0x5a>
            self->buffer[self->cnt++] = c;
200000ae:	687b      	ldr	r3, [r7, #4]
200000b0:	68db      	ldr	r3, [r3, #12]
200000b2:	1c59      	adds	r1, r3, #1
200000b4:	687a      	ldr	r2, [r7, #4]
200000b6:	60d1      	str	r1, [r2, #12]
200000b8:	683a      	ldr	r2, [r7, #0]
200000ba:	b2d1      	uxtb	r1, r2
200000bc:	687a      	ldr	r2, [r7, #4]
200000be:	4413      	add	r3, r2
200000c0:	460a      	mov	r2, r1
200000c2:	741a      	strb	r2, [r3, #16]
            return;
200000c4:	e12b      	b.n	2000031e <reader+0x2b2>
        }

        /* Finish input */
        self->buffer[self->cnt] = '\0';
200000c6:	687b      	ldr	r3, [r7, #4]
200000c8:	68db      	ldr	r3, [r3, #12]
200000ca:	687a      	ldr	r2, [r7, #4]
200000cc:	4413      	add	r3, r2
200000ce:	2200      	movs	r2, #0
200000d0:	741a      	strb	r2, [r3, #16]
        int value = atoi(self->buffer);
200000d2:	687b      	ldr	r3, [r7, #4]
200000d4:	3310      	adds	r3, #16
200000d6:	4618      	mov	r0, r3
200000d8:	f007 fada 	bl	20007690 <atoi>
200000dc:	60f8      	str	r0, [r7, #12]

        if (self->mode == INPUT_KEY) {
200000de:	687b      	ldr	r3, [r7, #4]
200000e0:	7a1b      	ldrb	r3, [r3, #8]
200000e2:	2b01      	cmp	r3, #1
200000e4:	d108      	bne.n	200000f8 <reader+0x8c>
            ASYNC(&mp, setKeyVal, value);
200000e6:	68fb      	ldr	r3, [r7, #12]
200000e8:	9300      	str	r3, [sp, #0]
200000ea:	4b93      	ldr	r3, [pc, #588]	@ (20000338 <reader+0x2cc>)
200000ec:	4a93      	ldr	r2, [pc, #588]	@ (2000033c <reader+0x2d0>)
200000ee:	2100      	movs	r1, #0
200000f0:	2000      	movs	r0, #0
200000f2:	f001 f8cf 	bl	20001294 <async>
200000f6:	e00b      	b.n	20000110 <reader+0xa4>
        }
        else if (self->mode == INPUT_TEMPO) {
200000f8:	687b      	ldr	r3, [r7, #4]
200000fa:	7a1b      	ldrb	r3, [r3, #8]
200000fc:	2b02      	cmp	r3, #2
200000fe:	d107      	bne.n	20000110 <reader+0xa4>
            ASYNC(&mp, setTempoVal, value);
20000100:	68fb      	ldr	r3, [r7, #12]
20000102:	9300      	str	r3, [sp, #0]
20000104:	4b8e      	ldr	r3, [pc, #568]	@ (20000340 <reader+0x2d4>)
20000106:	4a8d      	ldr	r2, [pc, #564]	@ (2000033c <reader+0x2d0>)
20000108:	2100      	movs	r1, #0
2000010a:	2000      	movs	r0, #0
2000010c:	f001 f8c2 	bl	20001294 <async>
        }

        self->cnt = 0;
20000110:	687b      	ldr	r3, [r7, #4]
20000112:	2200      	movs	r2, #0
20000114:	60da      	str	r2, [r3, #12]
        self->mode = INPUT_DEFAULT;
20000116:	687b      	ldr	r3, [r7, #4]
20000118:	2200      	movs	r2, #0
2000011a:	721a      	strb	r2, [r3, #8]
        memset(self->buffer, 0, sizeof(self->buffer));
2000011c:	687b      	ldr	r3, [r7, #4]
2000011e:	3310      	adds	r3, #16
20000120:	220c      	movs	r2, #12
20000122:	2100      	movs	r1, #0
20000124:	4618      	mov	r0, r3
20000126:	f007 fbb3 	bl	20007890 <memset>

        return;
2000012a:	e0f8      	b.n	2000031e <reader+0x2b2>
    }

    /* ---------- DEFAULT MODE ---------- */
    switch (c) {
2000012c:	683b      	ldr	r3, [r7, #0]
2000012e:	3b2b      	subs	r3, #43	@ 0x2b
20000130:	2b4a      	cmp	r3, #74	@ 0x4a
20000132:	f200 80f3 	bhi.w	2000031c <reader+0x2b0>
20000136:	a201      	add	r2, pc, #4	@ (adr r2, 2000013c <reader+0xd0>)
20000138:	f852 f023 	ldr.w	pc, [r2, r3, lsl #2]
2000013c:	2000027b 	.word	0x2000027b
20000140:	2000031d 	.word	0x2000031d
20000144:	2000028d 	.word	0x2000028d
20000148:	2000031d 	.word	0x2000031d
2000014c:	2000031d 	.word	0x2000031d
20000150:	2000031d 	.word	0x2000031d
20000154:	2000031d 	.word	0x2000031d
20000158:	2000031d 	.word	0x2000031d
2000015c:	2000031d 	.word	0x2000031d
20000160:	2000031d 	.word	0x2000031d
20000164:	2000031d 	.word	0x2000031d
20000168:	2000031d 	.word	0x2000031d
2000016c:	2000031d 	.word	0x2000031d
20000170:	2000031d 	.word	0x2000031d
20000174:	2000031d 	.word	0x2000031d
20000178:	2000031d 	.word	0x2000031d
2000017c:	2000031d 	.word	0x2000031d
20000180:	2000031d 	.word	0x2000031d
20000184:	2000031d 	.word	0x2000031d
20000188:	2000031d 	.word	0x2000031d
2000018c:	2000031d 	.word	0x2000031d
20000190:	2000031d 	.word	0x2000031d
20000194:	2000031d 	.word	0x2000031d
20000198:	2000031d 	.word	0x2000031d
2000019c:	2000031d 	.word	0x2000031d
200001a0:	2000031d 	.word	0x2000031d
200001a4:	2000031d 	.word	0x2000031d
200001a8:	2000031d 	.word	0x2000031d
200001ac:	2000031d 	.word	0x2000031d
200001b0:	2000031d 	.word	0x2000031d
200001b4:	2000031d 	.word	0x2000031d
200001b8:	2000031d 	.word	0x2000031d
200001bc:	2000031d 	.word	0x2000031d
200001c0:	2000031d 	.word	0x2000031d
200001c4:	2000031d 	.word	0x2000031d
200001c8:	2000031d 	.word	0x2000031d
200001cc:	2000031d 	.word	0x2000031d
200001d0:	2000031d 	.word	0x2000031d
200001d4:	2000031d 	.word	0x2000031d
200001d8:	2000031d 	.word	0x2000031d
200001dc:	2000031d 	.word	0x2000031d
200001e0:	2000031d 	.word	0x2000031d
200001e4:	2000031d 	.word	0x2000031d
200001e8:	2000031d 	.word	0x2000031d
200001ec:	2000031d 	.word	0x2000031d
200001f0:	2000031d 	.word	0x2000031d
200001f4:	2000031d 	.word	0x2000031d
200001f8:	2000031d 	.word	0x2000031d
200001fc:	2000031d 	.word	0x2000031d
20000200:	2000031d 	.word	0x2000031d
20000204:	2000031d 	.word	0x2000031d
20000208:	2000031d 	.word	0x2000031d
2000020c:	2000031d 	.word	0x2000031d
20000210:	2000031d 	.word	0x2000031d
20000214:	2000031d 	.word	0x2000031d
20000218:	2000031d 	.word	0x2000031d
2000021c:	2000031d 	.word	0x2000031d
20000220:	200002c3 	.word	0x200002c3
20000224:	200002d5 	.word	0x200002d5
20000228:	2000031d 	.word	0x2000031d
2000022c:	2000031d 	.word	0x2000031d
20000230:	2000031d 	.word	0x2000031d
20000234:	2000031d 	.word	0x2000031d
20000238:	2000031d 	.word	0x2000031d
2000023c:	200002f9 	.word	0x200002f9
20000240:	2000031d 	.word	0x2000031d
20000244:	20000269 	.word	0x20000269
20000248:	2000031d 	.word	0x2000031d
2000024c:	2000031d 	.word	0x2000031d
20000250:	2000029f 	.word	0x2000029f
20000254:	200002e7 	.word	0x200002e7
20000258:	2000031d 	.word	0x2000031d
2000025c:	2000031d 	.word	0x2000031d
20000260:	2000030b 	.word	0x2000030b
20000264:	200002b1 	.word	0x200002b1
        case MUTE:        ASYNC(&tg, toggleMute, 0); break;
20000268:	2300      	movs	r3, #0
2000026a:	9300      	str	r3, [sp, #0]
2000026c:	4b35      	ldr	r3, [pc, #212]	@ (20000344 <reader+0x2d8>)
2000026e:	4a36      	ldr	r2, [pc, #216]	@ (20000348 <reader+0x2dc>)
20000270:	2100      	movs	r1, #0
20000272:	2000      	movs	r0, #0
20000274:	f001 f80e 	bl	20001294 <async>
20000278:	e051      	b.n	2000031e <reader+0x2b2>
        case VOL_UP:      ASYNC(&tg, increaseVolume, 0); break;
2000027a:	2300      	movs	r3, #0
2000027c:	9300      	str	r3, [sp, #0]
2000027e:	4b33      	ldr	r3, [pc, #204]	@ (2000034c <reader+0x2e0>)
20000280:	4a31      	ldr	r2, [pc, #196]	@ (20000348 <reader+0x2dc>)
20000282:	2100      	movs	r1, #0
20000284:	2000      	movs	r0, #0
20000286:	f001 f805 	bl	20001294 <async>
2000028a:	e048      	b.n	2000031e <reader+0x2b2>
        case VOL_DOWN:    ASYNC(&tg, decreaseVolume, 0); break;
2000028c:	2300      	movs	r3, #0
2000028e:	9300      	str	r3, [sp, #0]
20000290:	4b2f      	ldr	r3, [pc, #188]	@ (20000350 <reader+0x2e4>)
20000292:	4a2d      	ldr	r2, [pc, #180]	@ (20000348 <reader+0x2dc>)
20000294:	2100      	movs	r1, #0
20000296:	2000      	movs	r0, #0
20000298:	f000 fffc 	bl	20001294 <async>
2000029c:	e03f      	b.n	2000031e <reader+0x2b2>
        case PAUSE:       ASYNC(&mp, pausePlayer, 0); break;
2000029e:	2300      	movs	r3, #0
200002a0:	9300      	str	r3, [sp, #0]
200002a2:	4b2c      	ldr	r3, [pc, #176]	@ (20000354 <reader+0x2e8>)
200002a4:	4a25      	ldr	r2, [pc, #148]	@ (2000033c <reader+0x2d0>)
200002a6:	2100      	movs	r1, #0
200002a8:	2000      	movs	r0, #0
200002aa:	f000 fff3 	bl	20001294 <async>
200002ae:	e036      	b.n	2000031e <reader+0x2b2>
        case KEY_UP:      ASYNC(&mp, increaseKey, 0); break;
200002b0:	2300      	movs	r3, #0
200002b2:	9300      	str	r3, [sp, #0]
200002b4:	4b28      	ldr	r3, [pc, #160]	@ (20000358 <reader+0x2ec>)
200002b6:	4a21      	ldr	r2, [pc, #132]	@ (2000033c <reader+0x2d0>)
200002b8:	2100      	movs	r1, #0
200002ba:	2000      	movs	r0, #0
200002bc:	f000 ffea 	bl	20001294 <async>
200002c0:	e02d      	b.n	2000031e <reader+0x2b2>
        case KEY_DOWN:    ASYNC(&mp, decreaseKey, 0); break;
200002c2:	2300      	movs	r3, #0
200002c4:	9300      	str	r3, [sp, #0]
200002c6:	4b25      	ldr	r3, [pc, #148]	@ (2000035c <reader+0x2f0>)
200002c8:	4a1c      	ldr	r2, [pc, #112]	@ (2000033c <reader+0x2d0>)
200002ca:	2100      	movs	r1, #0
200002cc:	2000      	movs	r0, #0
200002ce:	f000 ffe1 	bl	20001294 <async>
200002d2:	e024      	b.n	2000031e <reader+0x2b2>
        case TEMPO_UP:    ASYNC(&mp, increaseTempo, 0); break;
200002d4:	2300      	movs	r3, #0
200002d6:	9300      	str	r3, [sp, #0]
200002d8:	4b21      	ldr	r3, [pc, #132]	@ (20000360 <reader+0x2f4>)
200002da:	4a18      	ldr	r2, [pc, #96]	@ (2000033c <reader+0x2d0>)
200002dc:	2100      	movs	r1, #0
200002de:	2000      	movs	r0, #0
200002e0:	f000 ffd8 	bl	20001294 <async>
200002e4:	e01b      	b.n	2000031e <reader+0x2b2>
        case TEMPO_DOWN:  ASYNC(&mp, decreaseTempo, 0); break;
200002e6:	2300      	movs	r3, #0
200002e8:	9300      	str	r3, [sp, #0]
200002ea:	4b1e      	ldr	r3, [pc, #120]	@ (20000364 <reader+0x2f8>)
200002ec:	4a13      	ldr	r2, [pc, #76]	@ (2000033c <reader+0x2d0>)
200002ee:	2100      	movs	r1, #0
200002f0:	2000      	movs	r0, #0
200002f2:	f000 ffcf 	bl	20001294 <async>
200002f6:	e012      	b.n	2000031e <reader+0x2b2>
        case SETKEY:      ASYNC(&mp, setKey, 0); break;
200002f8:	2300      	movs	r3, #0
200002fa:	9300      	str	r3, [sp, #0]
200002fc:	4b1a      	ldr	r3, [pc, #104]	@ (20000368 <reader+0x2fc>)
200002fe:	4a0f      	ldr	r2, [pc, #60]	@ (2000033c <reader+0x2d0>)
20000300:	2100      	movs	r1, #0
20000302:	2000      	movs	r0, #0
20000304:	f000 ffc6 	bl	20001294 <async>
20000308:	e009      	b.n	2000031e <reader+0x2b2>
        case SETTEMPO:    ASYNC(&mp, setTempo, 0); break;
2000030a:	2300      	movs	r3, #0
2000030c:	9300      	str	r3, [sp, #0]
2000030e:	4b17      	ldr	r3, [pc, #92]	@ (2000036c <reader+0x300>)
20000310:	4a0a      	ldr	r2, [pc, #40]	@ (2000033c <reader+0x2d0>)
20000312:	2100      	movs	r1, #0
20000314:	2000      	movs	r0, #0
20000316:	f000 ffbd 	bl	20001294 <async>
2000031a:	e000      	b.n	2000031e <reader+0x2b2>
        default: break;
2000031c:	bf00      	nop
    }
}
2000031e:	3710      	adds	r7, #16
20000320:	46bd      	mov	sp, r7
20000322:	bd80      	pop	{r7, pc}
20000324:	20008328 	.word	0x20008328
20000328:	20001e4b 	.word	0x20001e4b
2000032c:	2000920c 	.word	0x2000920c
20000330:	20001ea1 	.word	0x20001ea1
20000334:	20008330 	.word	0x20008330
20000338:	200005b1 	.word	0x200005b1
2000033c:	20009164 	.word	0x20009164
20000340:	200006a1 	.word	0x200006a1
20000344:	20000401 	.word	0x20000401
20000348:	2000917c 	.word	0x2000917c
2000034c:	2000042b 	.word	0x2000042b
20000350:	20000479 	.word	0x20000479
20000354:	200004c9 	.word	0x200004c9
20000358:	20000511 	.word	0x20000511
2000035c:	20000561 	.word	0x20000561
20000360:	20000601 	.word	0x20000601
20000364:	20000651 	.word	0x20000651
20000368:	20000371 	.word	0x20000371
2000036c:	200003b9 	.word	0x200003b9

20000370 <setKey>:


void setKey(MusicPlayer *self, int arg) {
20000370:	b580      	push	{r7, lr}
20000372:	b082      	sub	sp, #8
20000374:	af00      	add	r7, sp, #0
20000376:	6078      	str	r0, [r7, #4]
20000378:	6039      	str	r1, [r7, #0]
    app.mode = INPUT_KEY;
2000037a:	4b0a      	ldr	r3, [pc, #40]	@ (200003a4 <setKey+0x34>)
2000037c:	2201      	movs	r2, #1
2000037e:	721a      	strb	r2, [r3, #8]
    app.cnt = 0;
20000380:	4b08      	ldr	r3, [pc, #32]	@ (200003a4 <setKey+0x34>)
20000382:	2200      	movs	r2, #0
20000384:	60da      	str	r2, [r3, #12]
    memset(app.buffer, 0, sizeof(app.buffer));
20000386:	220c      	movs	r2, #12
20000388:	2100      	movs	r1, #0
2000038a:	4807      	ldr	r0, [pc, #28]	@ (200003a8 <setKey+0x38>)
2000038c:	f007 fa80 	bl	20007890 <memset>
    SCI_WRITE(&sci0, "Enter key, end with 'e'\n");
20000390:	4b06      	ldr	r3, [pc, #24]	@ (200003ac <setKey+0x3c>)
20000392:	461a      	mov	r2, r3
20000394:	4906      	ldr	r1, [pc, #24]	@ (200003b0 <setKey+0x40>)
20000396:	4807      	ldr	r0, [pc, #28]	@ (200003b4 <setKey+0x44>)
20000398:	f001 f81a 	bl	200013d0 <sync>
}
2000039c:	bf00      	nop
2000039e:	3708      	adds	r7, #8
200003a0:	46bd      	mov	sp, r7
200003a2:	bd80      	pop	{r7, pc}
200003a4:	2000a004 	.word	0x2000a004
200003a8:	2000a014 	.word	0x2000a014
200003ac:	20008334 	.word	0x20008334
200003b0:	20001e4b 	.word	0x20001e4b
200003b4:	2000920c 	.word	0x2000920c

200003b8 <setTempo>:

void setTempo(MusicPlayer *self, int arg) {
200003b8:	b580      	push	{r7, lr}
200003ba:	b082      	sub	sp, #8
200003bc:	af00      	add	r7, sp, #0
200003be:	6078      	str	r0, [r7, #4]
200003c0:	6039      	str	r1, [r7, #0]
    app.mode = INPUT_TEMPO;
200003c2:	4b0a      	ldr	r3, [pc, #40]	@ (200003ec <setTempo+0x34>)
200003c4:	2202      	movs	r2, #2
200003c6:	721a      	strb	r2, [r3, #8]
    app.cnt = 0;
200003c8:	4b08      	ldr	r3, [pc, #32]	@ (200003ec <setTempo+0x34>)
200003ca:	2200      	movs	r2, #0
200003cc:	60da      	str	r2, [r3, #12]
    memset(app.buffer, 0, sizeof(app.buffer));
200003ce:	220c      	movs	r2, #12
200003d0:	2100      	movs	r1, #0
200003d2:	4807      	ldr	r0, [pc, #28]	@ (200003f0 <setTempo+0x38>)
200003d4:	f007 fa5c 	bl	20007890 <memset>
    SCI_WRITE(&sci0, "Enter tempo, end with 'e'\n");
200003d8:	4b06      	ldr	r3, [pc, #24]	@ (200003f4 <setTempo+0x3c>)
200003da:	461a      	mov	r2, r3
200003dc:	4906      	ldr	r1, [pc, #24]	@ (200003f8 <setTempo+0x40>)
200003de:	4807      	ldr	r0, [pc, #28]	@ (200003fc <setTempo+0x44>)
200003e0:	f000 fff6 	bl	200013d0 <sync>
}
200003e4:	bf00      	nop
200003e6:	3708      	adds	r7, #8
200003e8:	46bd      	mov	sp, r7
200003ea:	bd80      	pop	{r7, pc}
200003ec:	2000a004 	.word	0x2000a004
200003f0:	2000a014 	.word	0x2000a014
200003f4:	20008350 	.word	0x20008350
200003f8:	20001e4b 	.word	0x20001e4b
200003fc:	2000920c 	.word	0x2000920c

20000400 <toggleMute>:


void toggleMute(ToneGenerator *self, int arg) {
20000400:	b480      	push	{r7}
20000402:	b083      	sub	sp, #12
20000404:	af00      	add	r7, sp, #0
20000406:	6078      	str	r0, [r7, #4]
20000408:	6039      	str	r1, [r7, #0]
  self->usr_mute = !self->usr_mute;
2000040a:	687b      	ldr	r3, [r7, #4]
2000040c:	691b      	ldr	r3, [r3, #16]
2000040e:	2b00      	cmp	r3, #0
20000410:	bf0c      	ite	eq
20000412:	2301      	moveq	r3, #1
20000414:	2300      	movne	r3, #0
20000416:	b2db      	uxtb	r3, r3
20000418:	461a      	mov	r2, r3
2000041a:	687b      	ldr	r3, [r7, #4]
2000041c:	611a      	str	r2, [r3, #16]
}
2000041e:	bf00      	nop
20000420:	370c      	adds	r7, #12
20000422:	46bd      	mov	sp, r7
20000424:	f85d 7b04 	ldr.w	r7, [sp], #4
20000428:	4770      	bx	lr

2000042a <increaseVolume>:

void increaseVolume(ToneGenerator *self, int arg) {
2000042a:	b580      	push	{r7, lr}
2000042c:	b08a      	sub	sp, #40	@ 0x28
2000042e:	af00      	add	r7, sp, #0
20000430:	6078      	str	r0, [r7, #4]
20000432:	6039      	str	r1, [r7, #0]
  if (self->volume < VOL_MAX) self->volume++;
20000434:	687b      	ldr	r3, [r7, #4]
20000436:	689b      	ldr	r3, [r3, #8]
20000438:	2b13      	cmp	r3, #19
2000043a:	dc04      	bgt.n	20000446 <increaseVolume+0x1c>
2000043c:	687b      	ldr	r3, [r7, #4]
2000043e:	689b      	ldr	r3, [r3, #8]
20000440:	1c5a      	adds	r2, r3, #1
20000442:	687b      	ldr	r3, [r7, #4]
20000444:	609a      	str	r2, [r3, #8]

  char buffer[32];
  snprintf(buffer, sizeof(buffer), "Vol: %d\n", self->volume);
20000446:	687b      	ldr	r3, [r7, #4]
20000448:	689b      	ldr	r3, [r3, #8]
2000044a:	f107 0008 	add.w	r0, r7, #8
2000044e:	4a07      	ldr	r2, [pc, #28]	@ (2000046c <increaseVolume+0x42>)
20000450:	2120      	movs	r1, #32
20000452:	f007 f9e7 	bl	20007824 <sniprintf>
  SCI_WRITE(&sci0, buffer);
20000456:	f107 0308 	add.w	r3, r7, #8
2000045a:	461a      	mov	r2, r3
2000045c:	4904      	ldr	r1, [pc, #16]	@ (20000470 <increaseVolume+0x46>)
2000045e:	4805      	ldr	r0, [pc, #20]	@ (20000474 <increaseVolume+0x4a>)
20000460:	f000 ffb6 	bl	200013d0 <sync>
}
20000464:	bf00      	nop
20000466:	3728      	adds	r7, #40	@ 0x28
20000468:	46bd      	mov	sp, r7
2000046a:	bd80      	pop	{r7, pc}
2000046c:	2000836c 	.word	0x2000836c
20000470:	20001e4b 	.word	0x20001e4b
20000474:	2000920c 	.word	0x2000920c

20000478 <decreaseVolume>:

void decreaseVolume(ToneGenerator *self, int arg) {
20000478:	b580      	push	{r7, lr}
2000047a:	b08a      	sub	sp, #40	@ 0x28
2000047c:	af00      	add	r7, sp, #0
2000047e:	6078      	str	r0, [r7, #4]
20000480:	6039      	str	r1, [r7, #0]
  if (self->volume > VOL_MIN) self->volume--;
20000482:	687b      	ldr	r3, [r7, #4]
20000484:	689b      	ldr	r3, [r3, #8]
20000486:	2b00      	cmp	r3, #0
20000488:	dd04      	ble.n	20000494 <decreaseVolume+0x1c>
2000048a:	687b      	ldr	r3, [r7, #4]
2000048c:	689b      	ldr	r3, [r3, #8]
2000048e:	1e5a      	subs	r2, r3, #1
20000490:	687b      	ldr	r3, [r7, #4]
20000492:	609a      	str	r2, [r3, #8]

  char buffer[32];
  snprintf(buffer, sizeof(buffer), "Vol: %d\n", self->volume);
20000494:	687b      	ldr	r3, [r7, #4]
20000496:	689b      	ldr	r3, [r3, #8]
20000498:	f107 0008 	add.w	r0, r7, #8
2000049c:	4a07      	ldr	r2, [pc, #28]	@ (200004bc <decreaseVolume+0x44>)
2000049e:	2120      	movs	r1, #32
200004a0:	f007 f9c0 	bl	20007824 <sniprintf>
  SCI_WRITE(&sci0, buffer);
200004a4:	f107 0308 	add.w	r3, r7, #8
200004a8:	461a      	mov	r2, r3
200004aa:	4905      	ldr	r1, [pc, #20]	@ (200004c0 <decreaseVolume+0x48>)
200004ac:	4805      	ldr	r0, [pc, #20]	@ (200004c4 <decreaseVolume+0x4c>)
200004ae:	f000 ff8f 	bl	200013d0 <sync>
}
200004b2:	bf00      	nop
200004b4:	3728      	adds	r7, #40	@ 0x28
200004b6:	46bd      	mov	sp, r7
200004b8:	bd80      	pop	{r7, pc}
200004ba:	bf00      	nop
200004bc:	2000836c 	.word	0x2000836c
200004c0:	20001e4b 	.word	0x20001e4b
200004c4:	2000920c 	.word	0x2000920c

200004c8 <pausePlayer>:

void pausePlayer(MusicPlayer *self, int arg) {
200004c8:	b580      	push	{r7, lr}
200004ca:	b084      	sub	sp, #16
200004cc:	af02      	add	r7, sp, #8
200004ce:	6078      	str	r0, [r7, #4]
200004d0:	6039      	str	r1, [r7, #0]
  self->pause = !self->pause;
200004d2:	687b      	ldr	r3, [r7, #4]
200004d4:	695b      	ldr	r3, [r3, #20]
200004d6:	2b00      	cmp	r3, #0
200004d8:	bf0c      	ite	eq
200004da:	2301      	moveq	r3, #1
200004dc:	2300      	movne	r3, #0
200004de:	b2db      	uxtb	r3, r3
200004e0:	461a      	mov	r2, r3
200004e2:	687b      	ldr	r3, [r7, #4]
200004e4:	615a      	str	r2, [r3, #20]
  if (!self->pause) ASYNC(&mp, playNote, 0);
200004e6:	687b      	ldr	r3, [r7, #4]
200004e8:	695b      	ldr	r3, [r3, #20]
200004ea:	2b00      	cmp	r3, #0
200004ec:	d107      	bne.n	200004fe <pausePlayer+0x36>
200004ee:	2300      	movs	r3, #0
200004f0:	9300      	str	r3, [sp, #0]
200004f2:	4b05      	ldr	r3, [pc, #20]	@ (20000508 <pausePlayer+0x40>)
200004f4:	4a05      	ldr	r2, [pc, #20]	@ (2000050c <pausePlayer+0x44>)
200004f6:	2100      	movs	r1, #0
200004f8:	2000      	movs	r0, #0
200004fa:	f000 fecb 	bl	20001294 <async>
}
200004fe:	bf00      	nop
20000500:	3708      	adds	r7, #8
20000502:	46bd      	mov	sp, r7
20000504:	bd80      	pop	{r7, pc}
20000506:	bf00      	nop
20000508:	200007d7 	.word	0x200007d7
2000050c:	20009164 	.word	0x20009164

20000510 <increaseKey>:

void increaseKey(MusicPlayer *self, int arg) {
20000510:	b580      	push	{r7, lr}
20000512:	b08a      	sub	sp, #40	@ 0x28
20000514:	af00      	add	r7, sp, #0
20000516:	6078      	str	r0, [r7, #4]
20000518:	6039      	str	r1, [r7, #0]
  if (self->key < KEY_MAX) self->key++;
2000051a:	687b      	ldr	r3, [r7, #4]
2000051c:	689b      	ldr	r3, [r3, #8]
2000051e:	2b04      	cmp	r3, #4
20000520:	dc04      	bgt.n	2000052c <increaseKey+0x1c>
20000522:	687b      	ldr	r3, [r7, #4]
20000524:	689b      	ldr	r3, [r3, #8]
20000526:	1c5a      	adds	r2, r3, #1
20000528:	687b      	ldr	r3, [r7, #4]
2000052a:	609a      	str	r2, [r3, #8]

  char buffer[32];
  snprintf(buffer, sizeof(buffer), "Key: %d\n", self->key);
2000052c:	687b      	ldr	r3, [r7, #4]
2000052e:	689b      	ldr	r3, [r3, #8]
20000530:	f107 0008 	add.w	r0, r7, #8
20000534:	4a07      	ldr	r2, [pc, #28]	@ (20000554 <increaseKey+0x44>)
20000536:	2120      	movs	r1, #32
20000538:	f007 f974 	bl	20007824 <sniprintf>
  SCI_WRITE(&sci0, buffer);
2000053c:	f107 0308 	add.w	r3, r7, #8
20000540:	461a      	mov	r2, r3
20000542:	4905      	ldr	r1, [pc, #20]	@ (20000558 <increaseKey+0x48>)
20000544:	4805      	ldr	r0, [pc, #20]	@ (2000055c <increaseKey+0x4c>)
20000546:	f000 ff43 	bl	200013d0 <sync>
}
2000054a:	bf00      	nop
2000054c:	3728      	adds	r7, #40	@ 0x28
2000054e:	46bd      	mov	sp, r7
20000550:	bd80      	pop	{r7, pc}
20000552:	bf00      	nop
20000554:	20008378 	.word	0x20008378
20000558:	20001e4b 	.word	0x20001e4b
2000055c:	2000920c 	.word	0x2000920c

20000560 <decreaseKey>:

void decreaseKey(MusicPlayer *self, int arg) {
20000560:	b580      	push	{r7, lr}
20000562:	b08a      	sub	sp, #40	@ 0x28
20000564:	af00      	add	r7, sp, #0
20000566:	6078      	str	r0, [r7, #4]
20000568:	6039      	str	r1, [r7, #0]
  if (self->key > KEY_MIN) self->key--;
2000056a:	687b      	ldr	r3, [r7, #4]
2000056c:	689b      	ldr	r3, [r3, #8]
2000056e:	f113 0f04 	cmn.w	r3, #4
20000572:	db04      	blt.n	2000057e <decreaseKey+0x1e>
20000574:	687b      	ldr	r3, [r7, #4]
20000576:	689b      	ldr	r3, [r3, #8]
20000578:	1e5a      	subs	r2, r3, #1
2000057a:	687b      	ldr	r3, [r7, #4]
2000057c:	609a      	str	r2, [r3, #8]

  char buffer[32];
  snprintf(buffer, sizeof(buffer), "Key: %d\n", self->key);
2000057e:	687b      	ldr	r3, [r7, #4]
20000580:	689b      	ldr	r3, [r3, #8]
20000582:	f107 0008 	add.w	r0, r7, #8
20000586:	4a07      	ldr	r2, [pc, #28]	@ (200005a4 <decreaseKey+0x44>)
20000588:	2120      	movs	r1, #32
2000058a:	f007 f94b 	bl	20007824 <sniprintf>
  SCI_WRITE(&sci0, buffer);
2000058e:	f107 0308 	add.w	r3, r7, #8
20000592:	461a      	mov	r2, r3
20000594:	4904      	ldr	r1, [pc, #16]	@ (200005a8 <decreaseKey+0x48>)
20000596:	4805      	ldr	r0, [pc, #20]	@ (200005ac <decreaseKey+0x4c>)
20000598:	f000 ff1a 	bl	200013d0 <sync>
}
2000059c:	bf00      	nop
2000059e:	3728      	adds	r7, #40	@ 0x28
200005a0:	46bd      	mov	sp, r7
200005a2:	bd80      	pop	{r7, pc}
200005a4:	20008378 	.word	0x20008378
200005a8:	20001e4b 	.word	0x20001e4b
200005ac:	2000920c 	.word	0x2000920c

200005b0 <setKeyVal>:

void setKeyVal(MusicPlayer *self, int arg) {
200005b0:	b580      	push	{r7, lr}
200005b2:	b08a      	sub	sp, #40	@ 0x28
200005b4:	af00      	add	r7, sp, #0
200005b6:	6078      	str	r0, [r7, #4]
200005b8:	6039      	str	r1, [r7, #0]
  if (arg >= KEY_MIN && arg <= KEY_MAX) self->key = arg;
200005ba:	683b      	ldr	r3, [r7, #0]
200005bc:	f113 0f05 	cmn.w	r3, #5
200005c0:	db05      	blt.n	200005ce <setKeyVal+0x1e>
200005c2:	683b      	ldr	r3, [r7, #0]
200005c4:	2b05      	cmp	r3, #5
200005c6:	dc02      	bgt.n	200005ce <setKeyVal+0x1e>
200005c8:	687b      	ldr	r3, [r7, #4]
200005ca:	683a      	ldr	r2, [r7, #0]
200005cc:	609a      	str	r2, [r3, #8]

  char buffer[32];
  snprintf(buffer, sizeof(buffer), "Key: %d\n", self->key);
200005ce:	687b      	ldr	r3, [r7, #4]
200005d0:	689b      	ldr	r3, [r3, #8]
200005d2:	f107 0008 	add.w	r0, r7, #8
200005d6:	4a07      	ldr	r2, [pc, #28]	@ (200005f4 <setKeyVal+0x44>)
200005d8:	2120      	movs	r1, #32
200005da:	f007 f923 	bl	20007824 <sniprintf>
  SCI_WRITE(&sci0, buffer);
200005de:	f107 0308 	add.w	r3, r7, #8
200005e2:	461a      	mov	r2, r3
200005e4:	4904      	ldr	r1, [pc, #16]	@ (200005f8 <setKeyVal+0x48>)
200005e6:	4805      	ldr	r0, [pc, #20]	@ (200005fc <setKeyVal+0x4c>)
200005e8:	f000 fef2 	bl	200013d0 <sync>
}
200005ec:	bf00      	nop
200005ee:	3728      	adds	r7, #40	@ 0x28
200005f0:	46bd      	mov	sp, r7
200005f2:	bd80      	pop	{r7, pc}
200005f4:	20008378 	.word	0x20008378
200005f8:	20001e4b 	.word	0x20001e4b
200005fc:	2000920c 	.word	0x2000920c

20000600 <increaseTempo>:

void increaseTempo(MusicPlayer *self, int arg) {
20000600:	b580      	push	{r7, lr}
20000602:	b08a      	sub	sp, #40	@ 0x28
20000604:	af00      	add	r7, sp, #0
20000606:	6078      	str	r0, [r7, #4]
20000608:	6039      	str	r1, [r7, #0]
  if (self->tempo < TEMPO_MAX) self->tempo++;
2000060a:	687b      	ldr	r3, [r7, #4]
2000060c:	68db      	ldr	r3, [r3, #12]
2000060e:	2bef      	cmp	r3, #239	@ 0xef
20000610:	dc04      	bgt.n	2000061c <increaseTempo+0x1c>
20000612:	687b      	ldr	r3, [r7, #4]
20000614:	68db      	ldr	r3, [r3, #12]
20000616:	1c5a      	adds	r2, r3, #1
20000618:	687b      	ldr	r3, [r7, #4]
2000061a:	60da      	str	r2, [r3, #12]

  char buffer[32];
  snprintf(buffer, sizeof(buffer), "Tempo: %d\n", self->tempo);
2000061c:	687b      	ldr	r3, [r7, #4]
2000061e:	68db      	ldr	r3, [r3, #12]
20000620:	f107 0008 	add.w	r0, r7, #8
20000624:	4a07      	ldr	r2, [pc, #28]	@ (20000644 <increaseTempo+0x44>)
20000626:	2120      	movs	r1, #32
20000628:	f007 f8fc 	bl	20007824 <sniprintf>
  SCI_WRITE(&sci0, buffer);
2000062c:	f107 0308 	add.w	r3, r7, #8
20000630:	461a      	mov	r2, r3
20000632:	4905      	ldr	r1, [pc, #20]	@ (20000648 <increaseTempo+0x48>)
20000634:	4805      	ldr	r0, [pc, #20]	@ (2000064c <increaseTempo+0x4c>)
20000636:	f000 fecb 	bl	200013d0 <sync>
}
2000063a:	bf00      	nop
2000063c:	3728      	adds	r7, #40	@ 0x28
2000063e:	46bd      	mov	sp, r7
20000640:	bd80      	pop	{r7, pc}
20000642:	bf00      	nop
20000644:	20008384 	.word	0x20008384
20000648:	20001e4b 	.word	0x20001e4b
2000064c:	2000920c 	.word	0x2000920c

20000650 <decreaseTempo>:

void decreaseTempo(MusicPlayer *self, int arg) {
20000650:	b580      	push	{r7, lr}
20000652:	b08a      	sub	sp, #40	@ 0x28
20000654:	af00      	add	r7, sp, #0
20000656:	6078      	str	r0, [r7, #4]
20000658:	6039      	str	r1, [r7, #0]
  if (self->tempo > TEMPO_MIN) self->tempo--;
2000065a:	687b      	ldr	r3, [r7, #4]
2000065c:	68db      	ldr	r3, [r3, #12]
2000065e:	2b3c      	cmp	r3, #60	@ 0x3c
20000660:	dd04      	ble.n	2000066c <decreaseTempo+0x1c>
20000662:	687b      	ldr	r3, [r7, #4]
20000664:	68db      	ldr	r3, [r3, #12]
20000666:	1e5a      	subs	r2, r3, #1
20000668:	687b      	ldr	r3, [r7, #4]
2000066a:	60da      	str	r2, [r3, #12]

  char buffer[32];
  snprintf(buffer, sizeof(buffer), "Tempo: %d\n", self->tempo);
2000066c:	687b      	ldr	r3, [r7, #4]
2000066e:	68db      	ldr	r3, [r3, #12]
20000670:	f107 0008 	add.w	r0, r7, #8
20000674:	4a07      	ldr	r2, [pc, #28]	@ (20000694 <decreaseTempo+0x44>)
20000676:	2120      	movs	r1, #32
20000678:	f007 f8d4 	bl	20007824 <sniprintf>
  SCI_WRITE(&sci0, buffer);
2000067c:	f107 0308 	add.w	r3, r7, #8
20000680:	461a      	mov	r2, r3
20000682:	4905      	ldr	r1, [pc, #20]	@ (20000698 <decreaseTempo+0x48>)
20000684:	4805      	ldr	r0, [pc, #20]	@ (2000069c <decreaseTempo+0x4c>)
20000686:	f000 fea3 	bl	200013d0 <sync>
}
2000068a:	bf00      	nop
2000068c:	3728      	adds	r7, #40	@ 0x28
2000068e:	46bd      	mov	sp, r7
20000690:	bd80      	pop	{r7, pc}
20000692:	bf00      	nop
20000694:	20008384 	.word	0x20008384
20000698:	20001e4b 	.word	0x20001e4b
2000069c:	2000920c 	.word	0x2000920c

200006a0 <setTempoVal>:

void setTempoVal(MusicPlayer *self, int arg) {
200006a0:	b580      	push	{r7, lr}
200006a2:	b08a      	sub	sp, #40	@ 0x28
200006a4:	af00      	add	r7, sp, #0
200006a6:	6078      	str	r0, [r7, #4]
200006a8:	6039      	str	r1, [r7, #0]
  if (arg >= TEMPO_MIN && arg <= TEMPO_MAX) self->tempo = arg;
200006aa:	683b      	ldr	r3, [r7, #0]
200006ac:	2b3b      	cmp	r3, #59	@ 0x3b
200006ae:	dd05      	ble.n	200006bc <setTempoVal+0x1c>
200006b0:	683b      	ldr	r3, [r7, #0]
200006b2:	2bf0      	cmp	r3, #240	@ 0xf0
200006b4:	dc02      	bgt.n	200006bc <setTempoVal+0x1c>
200006b6:	687b      	ldr	r3, [r7, #4]
200006b8:	683a      	ldr	r2, [r7, #0]
200006ba:	60da      	str	r2, [r3, #12]

  char buffer[32];
  snprintf(buffer, sizeof(buffer), "Tempo: %d\n", self->tempo);
200006bc:	687b      	ldr	r3, [r7, #4]
200006be:	68db      	ldr	r3, [r3, #12]
200006c0:	f107 0008 	add.w	r0, r7, #8
200006c4:	4a07      	ldr	r2, [pc, #28]	@ (200006e4 <setTempoVal+0x44>)
200006c6:	2120      	movs	r1, #32
200006c8:	f007 f8ac 	bl	20007824 <sniprintf>
  SCI_WRITE(&sci0, buffer);
200006cc:	f107 0308 	add.w	r3, r7, #8
200006d0:	461a      	mov	r2, r3
200006d2:	4905      	ldr	r1, [pc, #20]	@ (200006e8 <setTempoVal+0x48>)
200006d4:	4805      	ldr	r0, [pc, #20]	@ (200006ec <setTempoVal+0x4c>)
200006d6:	f000 fe7b 	bl	200013d0 <sync>
}
200006da:	bf00      	nop
200006dc:	3728      	adds	r7, #40	@ 0x28
200006de:	46bd      	mov	sp, r7
200006e0:	bd80      	pop	{r7, pc}
200006e2:	bf00      	nop
200006e4:	20008384 	.word	0x20008384
200006e8:	20001e4b 	.word	0x20001e4b
200006ec:	2000920c 	.word	0x2000920c

200006f0 <getPeriods>:

int getPeriods(int index) {
200006f0:	b480      	push	{r7}
200006f2:	b083      	sub	sp, #12
200006f4:	af00      	add	r7, sp, #0
200006f6:	6078      	str	r0, [r7, #4]
  static int periods[] = {2025, 1911, 1803, 1702, 1607, 1516, 1431, 1351,
                          1275, 1203, 1136, 1072, 1012, 955, 901, 851,
                          803, 758, 715, 675, 637, 601, 568, 536, 506};

  return periods[index + 10];
200006f8:	687b      	ldr	r3, [r7, #4]
200006fa:	330a      	adds	r3, #10
200006fc:	4a04      	ldr	r2, [pc, #16]	@ (20000710 <getPeriods+0x20>)
200006fe:	f852 3023 	ldr.w	r3, [r2, r3, lsl #2]
}
20000702:	4618      	mov	r0, r3
20000704:	370c      	adds	r7, #12
20000706:	46bd      	mov	sp, r7
20000708:	f85d 7b04 	ldr.w	r7, [sp], #4
2000070c:	4770      	bx	lr
2000070e:	bf00      	nop
20000710:	20009100 	.word	0x20009100

20000714 <silence>:

void silence(ToneGenerator *self, int arg) {
20000714:	b480      	push	{r7}
20000716:	b083      	sub	sp, #12
20000718:	af00      	add	r7, sp, #0
2000071a:	6078      	str	r0, [r7, #4]
2000071c:	6039      	str	r1, [r7, #0]
  self->muted = 1;
2000071e:	687b      	ldr	r3, [r7, #4]
20000720:	2201      	movs	r2, #1
20000722:	60da      	str	r2, [r3, #12]
}
20000724:	bf00      	nop
20000726:	370c      	adds	r7, #12
20000728:	46bd      	mov	sp, r7
2000072a:	f85d 7b04 	ldr.w	r7, [sp], #4
2000072e:	4770      	bx	lr

20000730 <toneGenerator>:

void toneGenerator(ToneGenerator *self, int arg) {
20000730:	b580      	push	{r7, lr}
20000732:	b084      	sub	sp, #16
20000734:	af02      	add	r7, sp, #8
20000736:	6078      	str	r0, [r7, #4]
20000738:	6039      	str	r1, [r7, #0]
    static int toggle = 0;
    if (!self->muted && !self->usr_mute) {
2000073a:	687b      	ldr	r3, [r7, #4]
2000073c:	68db      	ldr	r3, [r3, #12]
2000073e:	2b00      	cmp	r3, #0
20000740:	d119      	bne.n	20000776 <toneGenerator+0x46>
20000742:	687b      	ldr	r3, [r7, #4]
20000744:	691b      	ldr	r3, [r3, #16]
20000746:	2b00      	cmp	r3, #0
20000748:	d115      	bne.n	20000776 <toneGenerator+0x46>
        *DAC_DATA = toggle ? self->volume : 0;
2000074a:	4b16      	ldr	r3, [pc, #88]	@ (200007a4 <toneGenerator+0x74>)
2000074c:	681b      	ldr	r3, [r3, #0]
2000074e:	2b00      	cmp	r3, #0
20000750:	d003      	beq.n	2000075a <toneGenerator+0x2a>
20000752:	687b      	ldr	r3, [r7, #4]
20000754:	689b      	ldr	r3, [r3, #8]
20000756:	b2db      	uxtb	r3, r3
20000758:	e000      	b.n	2000075c <toneGenerator+0x2c>
2000075a:	2300      	movs	r3, #0
2000075c:	4a12      	ldr	r2, [pc, #72]	@ (200007a8 <toneGenerator+0x78>)
2000075e:	7013      	strb	r3, [r2, #0]
        toggle = !toggle;
20000760:	4b10      	ldr	r3, [pc, #64]	@ (200007a4 <toneGenerator+0x74>)
20000762:	681b      	ldr	r3, [r3, #0]
20000764:	2b00      	cmp	r3, #0
20000766:	bf0c      	ite	eq
20000768:	2301      	moveq	r3, #1
2000076a:	2300      	movne	r3, #0
2000076c:	b2db      	uxtb	r3, r3
2000076e:	461a      	mov	r2, r3
20000770:	4b0c      	ldr	r3, [pc, #48]	@ (200007a4 <toneGenerator+0x74>)
20000772:	601a      	str	r2, [r3, #0]
20000774:	e002      	b.n	2000077c <toneGenerator+0x4c>
    } else {
        *DAC_DATA = 0;
20000776:	4b0c      	ldr	r3, [pc, #48]	@ (200007a8 <toneGenerator+0x78>)
20000778:	2200      	movs	r2, #0
2000077a:	701a      	strb	r2, [r3, #0]
    }
    SEND(USEC(self->period_us), 0, self, toneGenerator, 0);
2000077c:	687b      	ldr	r3, [r7, #4]
2000077e:	695b      	ldr	r3, [r3, #20]
20000780:	4a0a      	ldr	r2, [pc, #40]	@ (200007ac <toneGenerator+0x7c>)
20000782:	fb82 1203 	smull	r1, r2, r2, r3
20000786:	1092      	asrs	r2, r2, #2
20000788:	17db      	asrs	r3, r3, #31
2000078a:	1ad0      	subs	r0, r2, r3
2000078c:	2300      	movs	r3, #0
2000078e:	9300      	str	r3, [sp, #0]
20000790:	4b07      	ldr	r3, [pc, #28]	@ (200007b0 <toneGenerator+0x80>)
20000792:	687a      	ldr	r2, [r7, #4]
20000794:	2100      	movs	r1, #0
20000796:	f000 fd7d 	bl	20001294 <async>
}
2000079a:	bf00      	nop
2000079c:	3708      	adds	r7, #8
2000079e:	46bd      	mov	sp, r7
200007a0:	bd80      	pop	{r7, pc}
200007a2:	bf00      	nop
200007a4:	2000a000 	.word	0x2000a000
200007a8:	4000741c 	.word	0x4000741c
200007ac:	66666667 	.word	0x66666667
200007b0:	20000731 	.word	0x20000731

200007b4 <setNote>:

void setNote(ToneGenerator *self, int arg) {
200007b4:	b480      	push	{r7}
200007b6:	b083      	sub	sp, #12
200007b8:	af00      	add	r7, sp, #0
200007ba:	6078      	str	r0, [r7, #4]
200007bc:	6039      	str	r1, [r7, #0]
    self->period_us = arg;
200007be:	687b      	ldr	r3, [r7, #4]
200007c0:	683a      	ldr	r2, [r7, #0]
200007c2:	615a      	str	r2, [r3, #20]
    self->muted = 0;
200007c4:	687b      	ldr	r3, [r7, #4]
200007c6:	2200      	movs	r2, #0
200007c8:	60da      	str	r2, [r3, #12]
}
200007ca:	bf00      	nop
200007cc:	370c      	adds	r7, #12
200007ce:	46bd      	mov	sp, r7
200007d0:	f85d 7b04 	ldr.w	r7, [sp], #4
200007d4:	4770      	bx	lr

200007d6 <playNote>:

void playNote(MusicPlayer *self, int arg) {
200007d6:	b580      	push	{r7, lr}
200007d8:	b08a      	sub	sp, #40	@ 0x28
200007da:	af02      	add	r7, sp, #8
200007dc:	6078      	str	r0, [r7, #4]
200007de:	6039      	str	r1, [r7, #0]
    int i = self->index;
200007e0:	687b      	ldr	r3, [r7, #4]
200007e2:	691b      	ldr	r3, [r3, #16]
200007e4:	61fb      	str	r3, [r7, #28]

    // beat = 60000ms / tempo
    Time beat      = MSEC(60000 / self->tempo);
200007e6:	687b      	ldr	r3, [r7, #4]
200007e8:	68db      	ldr	r3, [r3, #12]
200007ea:	f64e 2260 	movw	r2, #60000	@ 0xea60
200007ee:	fb92 f3f3 	sdiv	r3, r2, r3
200007f2:	2264      	movs	r2, #100	@ 0x64
200007f4:	fb02 f303 	mul.w	r3, r2, r3
200007f8:	61bb      	str	r3, [r7, #24]
    Time note_time = beat * lengths[i] / 2;  // /2 då de sparas som *2
200007fa:	4a25      	ldr	r2, [pc, #148]	@ (20000890 <playNote+0xba>)
200007fc:	69fb      	ldr	r3, [r7, #28]
200007fe:	f852 3023 	ldr.w	r3, [r2, r3, lsl #2]
20000802:	69ba      	ldr	r2, [r7, #24]
20000804:	fb02 f303 	mul.w	r3, r2, r3
20000808:	0fda      	lsrs	r2, r3, #31
2000080a:	4413      	add	r3, r2
2000080c:	105b      	asrs	r3, r3, #1
2000080e:	617b      	str	r3, [r7, #20]
    Time play_time = note_time - (note_time / 16);
20000810:	697b      	ldr	r3, [r7, #20]
20000812:	2b00      	cmp	r3, #0
20000814:	da00      	bge.n	20000818 <playNote+0x42>
20000816:	330f      	adds	r3, #15
20000818:	111b      	asrs	r3, r3, #4
2000081a:	425b      	negs	r3, r3
2000081c:	461a      	mov	r2, r3
2000081e:	697b      	ldr	r3, [r7, #20]
20000820:	4413      	add	r3, r2
20000822:	613b      	str	r3, [r7, #16]

    // Sätt frekvens på toneGenerator
    int freq_index = frequencies[i] + self->key;
20000824:	4a1b      	ldr	r2, [pc, #108]	@ (20000894 <playNote+0xbe>)
20000826:	69fb      	ldr	r3, [r7, #28]
20000828:	f852 2023 	ldr.w	r2, [r2, r3, lsl #2]
2000082c:	687b      	ldr	r3, [r7, #4]
2000082e:	689b      	ldr	r3, [r3, #8]
20000830:	4413      	add	r3, r2
20000832:	60fb      	str	r3, [r7, #12]
    SYNC(&tg, setNote, getPeriods(freq_index));
20000834:	68f8      	ldr	r0, [r7, #12]
20000836:	f7ff ff5b 	bl	200006f0 <getPeriods>
2000083a:	4603      	mov	r3, r0
2000083c:	461a      	mov	r2, r3
2000083e:	4916      	ldr	r1, [pc, #88]	@ (20000898 <playNote+0xc2>)
20000840:	4816      	ldr	r0, [pc, #88]	@ (2000089c <playNote+0xc6>)
20000842:	f000 fdc5 	bl	200013d0 <sync>

    // Schemalägg mellanrum innan nästa not
    SEND(play_time, 0, &tg, silence, 0);
20000846:	2300      	movs	r3, #0
20000848:	9300      	str	r3, [sp, #0]
2000084a:	4b15      	ldr	r3, [pc, #84]	@ (200008a0 <playNote+0xca>)
2000084c:	4a13      	ldr	r2, [pc, #76]	@ (2000089c <playNote+0xc6>)
2000084e:	2100      	movs	r1, #0
20000850:	6938      	ldr	r0, [r7, #16]
20000852:	f000 fd1f 	bl	20001294 <async>

    // Schemalägg nästa not
    self->index = (self->index + 1) % 32;
20000856:	687b      	ldr	r3, [r7, #4]
20000858:	691b      	ldr	r3, [r3, #16]
2000085a:	3301      	adds	r3, #1
2000085c:	425a      	negs	r2, r3
2000085e:	f003 031f 	and.w	r3, r3, #31
20000862:	f002 021f 	and.w	r2, r2, #31
20000866:	bf58      	it	pl
20000868:	4253      	negpl	r3, r2
2000086a:	687a      	ldr	r2, [r7, #4]
2000086c:	6113      	str	r3, [r2, #16]
    if (!self->pause) SEND(note_time, 0, self, playNote, 0);
2000086e:	687b      	ldr	r3, [r7, #4]
20000870:	695b      	ldr	r3, [r3, #20]
20000872:	2b00      	cmp	r3, #0
20000874:	d107      	bne.n	20000886 <playNote+0xb0>
20000876:	2300      	movs	r3, #0
20000878:	9300      	str	r3, [sp, #0]
2000087a:	4b0a      	ldr	r3, [pc, #40]	@ (200008a4 <playNote+0xce>)
2000087c:	687a      	ldr	r2, [r7, #4]
2000087e:	2100      	movs	r1, #0
20000880:	6978      	ldr	r0, [r7, #20]
20000882:	f000 fd07 	bl	20001294 <async>
}
20000886:	bf00      	nop
20000888:	3720      	adds	r7, #32
2000088a:	46bd      	mov	sp, r7
2000088c:	bd80      	pop	{r7, pc}
2000088e:	bf00      	nop
20000890:	20009080 	.word	0x20009080
20000894:	20009000 	.word	0x20009000
20000898:	200007b5 	.word	0x200007b5
2000089c:	2000917c 	.word	0x2000917c
200008a0:	20000715 	.word	0x20000715
200008a4:	200007d7 	.word	0x200007d7

200008a8 <startApp>:

void startApp(App *self, int arg) {
200008a8:	b580      	push	{r7, lr}
200008aa:	b088      	sub	sp, #32
200008ac:	af02      	add	r7, sp, #8
200008ae:	6078      	str	r0, [r7, #4]
200008b0:	6039      	str	r1, [r7, #0]
  CANMsg msg;

  CAN_INIT(&can0);
200008b2:	2200      	movs	r2, #0
200008b4:	491d      	ldr	r1, [pc, #116]	@ (2000092c <startApp+0x84>)
200008b6:	481e      	ldr	r0, [pc, #120]	@ (20000930 <startApp+0x88>)
200008b8:	f000 fd8a 	bl	200013d0 <sync>
  SCI_INIT(&sci0);
200008bc:	2200      	movs	r2, #0
200008be:	491d      	ldr	r1, [pc, #116]	@ (20000934 <startApp+0x8c>)
200008c0:	481d      	ldr	r0, [pc, #116]	@ (20000938 <startApp+0x90>)
200008c2:	f000 fd85 	bl	200013d0 <sync>
  SCI_WRITE(&sci0, "Hello, hello...\n");
200008c6:	4b1d      	ldr	r3, [pc, #116]	@ (2000093c <startApp+0x94>)
200008c8:	461a      	mov	r2, r3
200008ca:	491d      	ldr	r1, [pc, #116]	@ (20000940 <startApp+0x98>)
200008cc:	481a      	ldr	r0, [pc, #104]	@ (20000938 <startApp+0x90>)
200008ce:	f000 fd7f 	bl	200013d0 <sync>

  msg.msgId = 1;
200008d2:	2301      	movs	r3, #1
200008d4:	733b      	strb	r3, [r7, #12]
  msg.nodeId = 1;
200008d6:	2301      	movs	r3, #1
200008d8:	737b      	strb	r3, [r7, #13]
  msg.length = 6;
200008da:	2306      	movs	r3, #6
200008dc:	73bb      	strb	r3, [r7, #14]
  msg.buff[0] = 'H';
200008de:	2348      	movs	r3, #72	@ 0x48
200008e0:	73fb      	strb	r3, [r7, #15]
  msg.buff[1] = 'e';
200008e2:	2365      	movs	r3, #101	@ 0x65
200008e4:	743b      	strb	r3, [r7, #16]
  msg.buff[2] = 'l';
200008e6:	236c      	movs	r3, #108	@ 0x6c
200008e8:	747b      	strb	r3, [r7, #17]
  msg.buff[3] = 'l';
200008ea:	236c      	movs	r3, #108	@ 0x6c
200008ec:	74bb      	strb	r3, [r7, #18]
  msg.buff[4] = 'o';
200008ee:	236f      	movs	r3, #111	@ 0x6f
200008f0:	74fb      	strb	r3, [r7, #19]
  msg.buff[5] = 0;
200008f2:	2300      	movs	r3, #0
200008f4:	753b      	strb	r3, [r7, #20]
  CAN_SEND(&can0, &msg);
200008f6:	f107 030c 	add.w	r3, r7, #12
200008fa:	461a      	mov	r2, r3
200008fc:	4911      	ldr	r1, [pc, #68]	@ (20000944 <startApp+0x9c>)
200008fe:	480c      	ldr	r0, [pc, #48]	@ (20000930 <startApp+0x88>)
20000900:	f000 fd66 	bl	200013d0 <sync>

  ASYNC(&tg, toneGenerator, 0);
20000904:	2300      	movs	r3, #0
20000906:	9300      	str	r3, [sp, #0]
20000908:	4b0f      	ldr	r3, [pc, #60]	@ (20000948 <startApp+0xa0>)
2000090a:	4a10      	ldr	r2, [pc, #64]	@ (2000094c <startApp+0xa4>)
2000090c:	2100      	movs	r1, #0
2000090e:	2000      	movs	r0, #0
20000910:	f000 fcc0 	bl	20001294 <async>
  ASYNC(&mp, playNote, 0);
20000914:	2300      	movs	r3, #0
20000916:	9300      	str	r3, [sp, #0]
20000918:	4b0d      	ldr	r3, [pc, #52]	@ (20000950 <startApp+0xa8>)
2000091a:	4a0e      	ldr	r2, [pc, #56]	@ (20000954 <startApp+0xac>)
2000091c:	2100      	movs	r1, #0
2000091e:	2000      	movs	r0, #0
20000920:	f000 fcb8 	bl	20001294 <async>
}
20000924:	bf00      	nop
20000926:	3718      	adds	r7, #24
20000928:	46bd      	mov	sp, r7
2000092a:	bd80      	pop	{r7, pc}
2000092c:	20001971 	.word	0x20001971
20000930:	20009194 	.word	0x20009194
20000934:	20001da5 	.word	0x20001da5
20000938:	2000920c 	.word	0x2000920c
2000093c:	20008390 	.word	0x20008390
20000940:	20001e4b 	.word	0x20001e4b
20000944:	20001c7b 	.word	0x20001c7b
20000948:	20000731 	.word	0x20000731
2000094c:	2000917c 	.word	0x2000917c
20000950:	200007d7 	.word	0x200007d7
20000954:	20009164 	.word	0x20009164

20000958 <main>:

int main() {
20000958:	b580      	push	{r7, lr}
2000095a:	af00      	add	r7, sp, #0
  INSTALL(&sci0, sci_interrupt, SCI_IRQ0);
2000095c:	2200      	movs	r2, #0
2000095e:	4908      	ldr	r1, [pc, #32]	@ (20000980 <main+0x28>)
20000960:	4808      	ldr	r0, [pc, #32]	@ (20000984 <main+0x2c>)
20000962:	f000 ff29 	bl	200017b8 <install>
  INSTALL(&can0, can_interrupt, CAN_IRQ0);
20000966:	2201      	movs	r2, #1
20000968:	4907      	ldr	r1, [pc, #28]	@ (20000988 <main+0x30>)
2000096a:	4808      	ldr	r0, [pc, #32]	@ (2000098c <main+0x34>)
2000096c:	f000 ff24 	bl	200017b8 <install>
  TINYTIMBER(&app, startApp, 0);
20000970:	2200      	movs	r2, #0
20000972:	4907      	ldr	r1, [pc, #28]	@ (20000990 <main+0x38>)
20000974:	4807      	ldr	r0, [pc, #28]	@ (20000994 <main+0x3c>)
20000976:	f000 ff85 	bl	20001884 <tinytimber>
  return 0;
2000097a:	2300      	movs	r3, #0
}
2000097c:	4618      	mov	r0, r3
2000097e:	bd80      	pop	{r7, pc}
20000980:	20001ed7 	.word	0x20001ed7
20000984:	2000920c 	.word	0x2000920c
20000988:	20001a29 	.word	0x20001a29
2000098c:	20009194 	.word	0x20009194
20000990:	200008a9 	.word	0x200008a9
20000994:	2000a004 	.word	0x2000a004

20000998 <NVIC_EnableIRQ>:
    The function enables a device-specific interrupt in the NVIC interrupt controller.

    \param [in]      IRQn  External interrupt number. Value cannot be negative.
 */
__STATIC_INLINE void NVIC_EnableIRQ(IRQn_Type IRQn)
{
20000998:	b480      	push	{r7}
2000099a:	b083      	sub	sp, #12
2000099c:	af00      	add	r7, sp, #0
2000099e:	4603      	mov	r3, r0
200009a0:	71fb      	strb	r3, [r7, #7]
/*  NVIC->ISER[((uint32_t)(IRQn) >> 5)] = (1 << ((uint32_t)(IRQn) & 0x1F));  enable interrupt */
  NVIC->ISER[(uint32_t)((int32_t)IRQn) >> 5] = (uint32_t)(1 << ((uint32_t)((int32_t)IRQn) & (uint32_t)0x1F)); /* enable interrupt */
200009a2:	79fb      	ldrb	r3, [r7, #7]
200009a4:	f003 031f 	and.w	r3, r3, #31
200009a8:	2201      	movs	r2, #1
200009aa:	fa02 f103 	lsl.w	r1, r2, r3
200009ae:	4a06      	ldr	r2, [pc, #24]	@ (200009c8 <NVIC_EnableIRQ+0x30>)
200009b0:	f997 3007 	ldrsb.w	r3, [r7, #7]
200009b4:	095b      	lsrs	r3, r3, #5
200009b6:	f842 1023 	str.w	r1, [r2, r3, lsl #2]
}
200009ba:	bf00      	nop
200009bc:	370c      	adds	r7, #12
200009be:	46bd      	mov	sp, r7
200009c0:	f85d 7b04 	ldr.w	r7, [sp], #4
200009c4:	4770      	bx	lr
200009c6:	bf00      	nop
200009c8:	e000e100 	.word	0xe000e100

200009cc <NVIC_SetPriority>:

    \param [in]      IRQn  Interrupt number.
    \param [in]  priority  Priority to set.
 */
__STATIC_INLINE void NVIC_SetPriority(IRQn_Type IRQn, uint32_t priority)
{
200009cc:	b480      	push	{r7}
200009ce:	b083      	sub	sp, #12
200009d0:	af00      	add	r7, sp, #0
200009d2:	4603      	mov	r3, r0
200009d4:	6039      	str	r1, [r7, #0]
200009d6:	71fb      	strb	r3, [r7, #7]
  if(IRQn < 0) {
200009d8:	f997 3007 	ldrsb.w	r3, [r7, #7]
200009dc:	2b00      	cmp	r3, #0
200009de:	da0b      	bge.n	200009f8 <NVIC_SetPriority+0x2c>
    SCB->SHP[((uint32_t)(IRQn) & 0xF)-4] = ((priority << (8 - __NVIC_PRIO_BITS)) & 0xff); } /* set Priority for Cortex-M  System Interrupts */
200009e0:	683b      	ldr	r3, [r7, #0]
200009e2:	b2da      	uxtb	r2, r3
200009e4:	490c      	ldr	r1, [pc, #48]	@ (20000a18 <NVIC_SetPriority+0x4c>)
200009e6:	79fb      	ldrb	r3, [r7, #7]
200009e8:	f003 030f 	and.w	r3, r3, #15
200009ec:	3b04      	subs	r3, #4
200009ee:	0112      	lsls	r2, r2, #4
200009f0:	b2d2      	uxtb	r2, r2
200009f2:	440b      	add	r3, r1
200009f4:	761a      	strb	r2, [r3, #24]
  else {
    NVIC->IP[(uint32_t)(IRQn)] = ((priority << (8 - __NVIC_PRIO_BITS)) & 0xff);    }        /* set Priority for device specific Interrupts  */
}
200009f6:	e009      	b.n	20000a0c <NVIC_SetPriority+0x40>
    NVIC->IP[(uint32_t)(IRQn)] = ((priority << (8 - __NVIC_PRIO_BITS)) & 0xff);    }        /* set Priority for device specific Interrupts  */
200009f8:	683b      	ldr	r3, [r7, #0]
200009fa:	b2da      	uxtb	r2, r3
200009fc:	4907      	ldr	r1, [pc, #28]	@ (20000a1c <NVIC_SetPriority+0x50>)
200009fe:	f997 3007 	ldrsb.w	r3, [r7, #7]
20000a02:	0112      	lsls	r2, r2, #4
20000a04:	b2d2      	uxtb	r2, r2
20000a06:	440b      	add	r3, r1
20000a08:	f883 2300 	strb.w	r2, [r3, #768]	@ 0x300
}
20000a0c:	bf00      	nop
20000a0e:	370c      	adds	r7, #12
20000a10:	46bd      	mov	sp, r7
20000a12:	f85d 7b04 	ldr.w	r7, [sp], #4
20000a16:	4770      	bx	lr
20000a18:	e000ed00 	.word	0xe000ed00
20000a1c:	e000e100 	.word	0xe000e100

20000a20 <DUMP>:
#include "stm32f4xx_tim.h"
#include "stm32f4xx_usart.h"

void DUMPC(char);

void DUMP(char *s) {
20000a20:	b580      	push	{r7, lr}
20000a22:	b082      	sub	sp, #8
20000a24:	af00      	add	r7, sp, #0
20000a26:	6078      	str	r0, [r7, #4]
  while (*s) {
20000a28:	e00e      	b.n	20000a48 <DUMP+0x28>
    if (*s != '\r')
20000a2a:	687b      	ldr	r3, [r7, #4]
20000a2c:	781b      	ldrb	r3, [r3, #0]
20000a2e:	2b0d      	cmp	r3, #13
20000a30:	d007      	beq.n	20000a42 <DUMP+0x22>
      DUMPC(*s++);
20000a32:	687b      	ldr	r3, [r7, #4]
20000a34:	1c5a      	adds	r2, r3, #1
20000a36:	607a      	str	r2, [r7, #4]
20000a38:	781b      	ldrb	r3, [r3, #0]
20000a3a:	4618      	mov	r0, r3
20000a3c:	f000 f95e 	bl	20000cfc <DUMPC>
20000a40:	e002      	b.n	20000a48 <DUMP+0x28>
    else
      s++;
20000a42:	687b      	ldr	r3, [r7, #4]
20000a44:	3301      	adds	r3, #1
20000a46:	607b      	str	r3, [r7, #4]
  while (*s) {
20000a48:	687b      	ldr	r3, [r7, #4]
20000a4a:	781b      	ldrb	r3, [r3, #0]
20000a4c:	2b00      	cmp	r3, #0
20000a4e:	d1ec      	bne.n	20000a2a <DUMP+0xa>
  }
}
20000a50:	bf00      	nop
20000a52:	bf00      	nop
20000a54:	3708      	adds	r7, #8
20000a56:	46bd      	mov	sp, r7
20000a58:	bd80      	pop	{r7, pc}

20000a5a <DUMPH>:

char hex[] = "0123456789ABCDEF";

void DUMPH(unsigned int val) {
20000a5a:	b580      	push	{r7, lr}
20000a5c:	b086      	sub	sp, #24
20000a5e:	af00      	add	r7, sp, #0
20000a60:	6078      	str	r0, [r7, #4]
  char buf[8];
  int i = 0;
20000a62:	2300      	movs	r3, #0
20000a64:	617b      	str	r3, [r7, #20]
  do {
    buf[i++] = hex[val & 0x0F];
20000a66:	687b      	ldr	r3, [r7, #4]
20000a68:	f003 020f 	and.w	r2, r3, #15
20000a6c:	697b      	ldr	r3, [r7, #20]
20000a6e:	1c59      	adds	r1, r3, #1
20000a70:	6179      	str	r1, [r7, #20]
20000a72:	4910      	ldr	r1, [pc, #64]	@ (20000ab4 <DUMPH+0x5a>)
20000a74:	5c8a      	ldrb	r2, [r1, r2]
20000a76:	3318      	adds	r3, #24
20000a78:	443b      	add	r3, r7
20000a7a:	f803 2c0c 	strb.w	r2, [r3, #-12]
    val = val >> 4;
20000a7e:	687b      	ldr	r3, [r7, #4]
20000a80:	091b      	lsrs	r3, r3, #4
20000a82:	607b      	str	r3, [r7, #4]
  } while (val);
20000a84:	687b      	ldr	r3, [r7, #4]
20000a86:	2b00      	cmp	r3, #0
20000a88:	d1ed      	bne.n	20000a66 <DUMPH+0xc>
  while (i)
20000a8a:	e00a      	b.n	20000aa2 <DUMPH+0x48>
    DUMPC(buf[--i]);
20000a8c:	697b      	ldr	r3, [r7, #20]
20000a8e:	3b01      	subs	r3, #1
20000a90:	617b      	str	r3, [r7, #20]
20000a92:	f107 020c 	add.w	r2, r7, #12
20000a96:	697b      	ldr	r3, [r7, #20]
20000a98:	4413      	add	r3, r2
20000a9a:	781b      	ldrb	r3, [r3, #0]
20000a9c:	4618      	mov	r0, r3
20000a9e:	f000 f92d 	bl	20000cfc <DUMPC>
  while (i)
20000aa2:	697b      	ldr	r3, [r7, #20]
20000aa4:	2b00      	cmp	r3, #0
20000aa6:	d1f1      	bne.n	20000a8c <DUMPH+0x32>
}
20000aa8:	bf00      	nop
20000aaa:	bf00      	nop
20000aac:	3718      	adds	r7, #24
20000aae:	46bd      	mov	sp, r7
20000ab0:	bd80      	pop	{r7, pc}
20000ab2:	bf00      	nop
20000ab4:	2000962c 	.word	0x2000962c

20000ab8 <DUMPD>:

void DUMPD(int val) {
20000ab8:	b580      	push	{r7, lr}
20000aba:	b09e      	sub	sp, #120	@ 0x78
20000abc:	af00      	add	r7, sp, #0
20000abe:	6078      	str	r0, [r7, #4]
  char buf[100];

  int sign = val < 0 ? -1 : 1;
20000ac0:	687b      	ldr	r3, [r7, #4]
20000ac2:	2b00      	cmp	r3, #0
20000ac4:	da02      	bge.n	20000acc <DUMPD+0x14>
20000ac6:	f04f 33ff 	mov.w	r3, #4294967295
20000aca:	e000      	b.n	20000ace <DUMPD+0x16>
20000acc:	2301      	movs	r3, #1
20000ace:	673b      	str	r3, [r7, #112]	@ 0x70

  val = val * sign;
20000ad0:	687b      	ldr	r3, [r7, #4]
20000ad2:	6f3a      	ldr	r2, [r7, #112]	@ 0x70
20000ad4:	fb02 f303 	mul.w	r3, r2, r3
20000ad8:	607b      	str	r3, [r7, #4]

  int i = 0;
20000ada:	2300      	movs	r3, #0
20000adc:	677b      	str	r3, [r7, #116]	@ 0x74
  do {
    buf[i++] = hex[val % 10];
20000ade:	6879      	ldr	r1, [r7, #4]
20000ae0:	4b1c      	ldr	r3, [pc, #112]	@ (20000b54 <DUMPD+0x9c>)
20000ae2:	fb83 2301 	smull	r2, r3, r3, r1
20000ae6:	109a      	asrs	r2, r3, #2
20000ae8:	17cb      	asrs	r3, r1, #31
20000aea:	1ad2      	subs	r2, r2, r3
20000aec:	4613      	mov	r3, r2
20000aee:	009b      	lsls	r3, r3, #2
20000af0:	4413      	add	r3, r2
20000af2:	005b      	lsls	r3, r3, #1
20000af4:	1aca      	subs	r2, r1, r3
20000af6:	6f7b      	ldr	r3, [r7, #116]	@ 0x74
20000af8:	1c59      	adds	r1, r3, #1
20000afa:	6779      	str	r1, [r7, #116]	@ 0x74
20000afc:	4916      	ldr	r1, [pc, #88]	@ (20000b58 <DUMPD+0xa0>)
20000afe:	5c8a      	ldrb	r2, [r1, r2]
20000b00:	3378      	adds	r3, #120	@ 0x78
20000b02:	443b      	add	r3, r7
20000b04:	f803 2c6c 	strb.w	r2, [r3, #-108]
    val = val / 10;
20000b08:	687b      	ldr	r3, [r7, #4]
20000b0a:	4a12      	ldr	r2, [pc, #72]	@ (20000b54 <DUMPD+0x9c>)
20000b0c:	fb82 1203 	smull	r1, r2, r2, r3
20000b10:	1092      	asrs	r2, r2, #2
20000b12:	17db      	asrs	r3, r3, #31
20000b14:	1ad3      	subs	r3, r2, r3
20000b16:	607b      	str	r3, [r7, #4]
  } while (val);
20000b18:	687b      	ldr	r3, [r7, #4]
20000b1a:	2b00      	cmp	r3, #0
20000b1c:	d1df      	bne.n	20000ade <DUMPD+0x26>
  if (sign < 0)
20000b1e:	6f3b      	ldr	r3, [r7, #112]	@ 0x70
20000b20:	2b00      	cmp	r3, #0
20000b22:	da0e      	bge.n	20000b42 <DUMPD+0x8a>
    DUMPC('-');
20000b24:	202d      	movs	r0, #45	@ 0x2d
20000b26:	f000 f8e9 	bl	20000cfc <DUMPC>
  while (i)
20000b2a:	e00a      	b.n	20000b42 <DUMPD+0x8a>
    DUMPC(buf[--i]);
20000b2c:	6f7b      	ldr	r3, [r7, #116]	@ 0x74
20000b2e:	3b01      	subs	r3, #1
20000b30:	677b      	str	r3, [r7, #116]	@ 0x74
20000b32:	f107 020c 	add.w	r2, r7, #12
20000b36:	6f7b      	ldr	r3, [r7, #116]	@ 0x74
20000b38:	4413      	add	r3, r2
20000b3a:	781b      	ldrb	r3, [r3, #0]
20000b3c:	4618      	mov	r0, r3
20000b3e:	f000 f8dd 	bl	20000cfc <DUMPC>
  while (i)
20000b42:	6f7b      	ldr	r3, [r7, #116]	@ 0x74
20000b44:	2b00      	cmp	r3, #0
20000b46:	d1f1      	bne.n	20000b2c <DUMPD+0x74>
}
20000b48:	bf00      	nop
20000b4a:	bf00      	nop
20000b4c:	3778      	adds	r7, #120	@ 0x78
20000b4e:	46bd      	mov	sp, r7
20000b50:	bd80      	pop	{r7, pc}
20000b52:	bf00      	nop
20000b54:	66666667 	.word	0x66666667
20000b58:	2000962c 	.word	0x2000962c

20000b5c <sei>:

// Cortex m4 dependencies

#define __CURRENT_PRIORITY ((__get_BASEPRI() >> (8 - __NVIC_PRIO_BITS)))

void sei(void) { __set_BASEPRI(__DISABLED_PRIORITY << (8 - __NVIC_PRIO_BITS)); }
20000b5c:	b480      	push	{r7}
20000b5e:	b083      	sub	sp, #12
20000b60:	af00      	add	r7, sp, #0
20000b62:	2310      	movs	r3, #16
20000b64:	607b      	str	r3, [r7, #4]

    \param [in]    basePri  Base Priority value to set
 */
__attribute__( ( always_inline ) ) __STATIC_INLINE void __set_BASEPRI(uint32_t value)
{
  __ASM volatile ("MSR basepri, %0" : : "r" (value) : "memory");
20000b66:	687b      	ldr	r3, [r7, #4]
20000b68:	f383 8811 	msr	BASEPRI, r3
}
20000b6c:	bf00      	nop
20000b6e:	bf00      	nop
20000b70:	370c      	adds	r7, #12
20000b72:	46bd      	mov	sp, r7
20000b74:	f85d 7b04 	ldr.w	r7, [sp], #4
20000b78:	4770      	bx	lr

20000b7a <cli>:
void cli(void) { __set_BASEPRI(__ENABLED_PRIORITY << (8 - __NVIC_PRIO_BITS)); }
20000b7a:	b480      	push	{r7}
20000b7c:	b083      	sub	sp, #12
20000b7e:	af00      	add	r7, sp, #0
20000b80:	2330      	movs	r3, #48	@ 0x30
20000b82:	607b      	str	r3, [r7, #4]
  __ASM volatile ("MSR basepri, %0" : : "r" (value) : "memory");
20000b84:	687b      	ldr	r3, [r7, #4]
20000b86:	f383 8811 	msr	BASEPRI, r3
}
20000b8a:	bf00      	nop
20000b8c:	bf00      	nop
20000b8e:	370c      	adds	r7, #12
20000b90:	46bd      	mov	sp, r7
20000b92:	f85d 7b04 	ldr.w	r7, [sp], #4
20000b96:	4770      	bx	lr

20000b98 <_sbrk>:
#ifdef __USE_LOCAL_SBRK
// register char *__stack_ptr asm ("sp");

char *__heap_end;

void *_sbrk(int incr) {
20000b98:	b580      	push	{r7, lr}
20000b9a:	b084      	sub	sp, #16
20000b9c:	af00      	add	r7, sp, #0
20000b9e:	6078      	str	r0, [r7, #4]
  extern char end; /* Set by linker.  */
  char *prev_heap_end;

  DUMP("NOTE: _sbrk in use!\n\r");
20000ba0:	480b      	ldr	r0, [pc, #44]	@ (20000bd0 <_sbrk+0x38>)
20000ba2:	f7ff ff3d 	bl	20000a20 <DUMP>

  if (__heap_end == 0)
20000ba6:	4b0b      	ldr	r3, [pc, #44]	@ (20000bd4 <_sbrk+0x3c>)
20000ba8:	681b      	ldr	r3, [r3, #0]
20000baa:	2b00      	cmp	r3, #0
20000bac:	d102      	bne.n	20000bb4 <_sbrk+0x1c>
    __heap_end = &end;
20000bae:	4b09      	ldr	r3, [pc, #36]	@ (20000bd4 <_sbrk+0x3c>)
20000bb0:	4a09      	ldr	r2, [pc, #36]	@ (20000bd8 <_sbrk+0x40>)
20000bb2:	601a      	str	r2, [r3, #0]

  prev_heap_end = __heap_end;
20000bb4:	4b07      	ldr	r3, [pc, #28]	@ (20000bd4 <_sbrk+0x3c>)
20000bb6:	681b      	ldr	r3, [r3, #0]
20000bb8:	60fb      	str	r3, [r7, #12]

  //	if (__heap_end + incr > __stack_ptr) // will fail if stacks[0]-stacks[3]
  // is used 		PANIC("_sbrk: Heap and stack collision\r\n");

  __heap_end += incr;
20000bba:	4b06      	ldr	r3, [pc, #24]	@ (20000bd4 <_sbrk+0x3c>)
20000bbc:	681a      	ldr	r2, [r3, #0]
20000bbe:	687b      	ldr	r3, [r7, #4]
20000bc0:	4413      	add	r3, r2
20000bc2:	4a04      	ldr	r2, [pc, #16]	@ (20000bd4 <_sbrk+0x3c>)
20000bc4:	6013      	str	r3, [r2, #0]

  return (void *)prev_heap_end;
20000bc6:	68fb      	ldr	r3, [r7, #12]
}
20000bc8:	4618      	mov	r0, r3
20000bca:	3710      	adds	r7, #16
20000bcc:	46bd      	mov	sp, r7
20000bce:	bd80      	pop	{r7, pc}
20000bd0:	200083a4 	.word	0x200083a4
20000bd4:	2000a020 	.word	0x2000a020
20000bd8:	200123a4 	.word	0x200123a4

20000bdc <SETSTACK>:

#define HW32_REG(ADDRESS) (*((volatile unsigned long *)(ADDRESS)))

#define SETCONTEXT(c)

void SETSTACK(CONTEXT_T *cp, struct stack *sp) {
20000bdc:	b480      	push	{r7}
20000bde:	b085      	sub	sp, #20
20000be0:	af00      	add	r7, sp, #0
20000be2:	6078      	str	r0, [r7, #4]
20000be4:	6039      	str	r1, [r7, #0]
  *cp = ((CONTEXT_T)sp) + STACKSIZE * sizeof(STACK_T) -
20000be6:	683b      	ldr	r3, [r7, #0]
20000be8:	f503 53f9 	add.w	r3, r3, #7968	@ 0x1f20
20000bec:	3310      	adds	r3, #16
20000bee:	687a      	ldr	r2, [r7, #4]
20000bf0:	6013      	str	r3, [r2, #0]
        CONTEXTSIZE * sizeof(CONTEXT_T);

  CONTEXT_T ci = *cp;
20000bf2:	687b      	ldr	r3, [r7, #4]
20000bf4:	681b      	ldr	r3, [r3, #0]
20000bf6:	60bb      	str	r3, [r7, #8]
  int i;
  for (i = 0; i < CONTEXTSIZE; i++)
20000bf8:	2300      	movs	r3, #0
20000bfa:	60fb      	str	r3, [r7, #12]
20000bfc:	e009      	b.n	20000c12 <SETSTACK+0x36>
    HW32_REG(ci + (i << 2)) = 0;
20000bfe:	68fb      	ldr	r3, [r7, #12]
20000c00:	009a      	lsls	r2, r3, #2
20000c02:	68bb      	ldr	r3, [r7, #8]
20000c04:	4413      	add	r3, r2
20000c06:	461a      	mov	r2, r3
20000c08:	2300      	movs	r3, #0
20000c0a:	6013      	str	r3, [r2, #0]
  for (i = 0; i < CONTEXTSIZE; i++)
20000c0c:	68fb      	ldr	r3, [r7, #12]
20000c0e:	3301      	adds	r3, #1
20000c10:	60fb      	str	r3, [r7, #12]
20000c12:	68fb      	ldr	r3, [r7, #12]
20000c14:	2b33      	cmp	r3, #51	@ 0x33
20000c16:	ddf2      	ble.n	20000bfe <SETSTACK+0x22>
  HW32_REG(ci + (CONTEXT_EXC_OFF << 2)) = 0xFFFFFFE9;
20000c18:	68bb      	ldr	r3, [r7, #8]
20000c1a:	f06f 0216 	mvn.w	r2, #22
20000c1e:	601a      	str	r2, [r3, #0]
  HW32_REG(ci + (CONTEXT_BASEPRI_OFF << 2)) = __ENABLED_PRIORITY;
20000c20:	68bb      	ldr	r3, [r7, #8]
20000c22:	3304      	adds	r3, #4
20000c24:	461a      	mov	r2, r3
20000c26:	2303      	movs	r3, #3
20000c28:	6013      	str	r3, [r2, #0]
  HW32_REG(ci + (CONTEXT_xPSR_OFF << 2)) = 0x01000000;
20000c2a:	68bb      	ldr	r3, [r7, #8]
20000c2c:	3384      	adds	r3, #132	@ 0x84
20000c2e:	461a      	mov	r2, r3
20000c30:	f04f 7380 	mov.w	r3, #16777216	@ 0x1000000
20000c34:	6013      	str	r3, [r2, #0]
}
20000c36:	bf00      	nop
20000c38:	3714      	adds	r7, #20
20000c3a:	46bd      	mov	sp, r7
20000c3c:	f85d 7b04 	ldr.w	r7, [sp], #4
20000c40:	4770      	bx	lr

20000c42 <SETPC>:

void SETPC(CONTEXT_T *cp, void (*fp)(void)) {
20000c42:	b480      	push	{r7}
20000c44:	b085      	sub	sp, #20
20000c46:	af00      	add	r7, sp, #0
20000c48:	6078      	str	r0, [r7, #4]
20000c4a:	6039      	str	r1, [r7, #0]
  CONTEXT_T pc_p = *cp + (CONTEXT_PC_OFF << 2);
20000c4c:	687b      	ldr	r3, [r7, #4]
20000c4e:	681b      	ldr	r3, [r3, #0]
20000c50:	3380      	adds	r3, #128	@ 0x80
20000c52:	60fb      	str	r3, [r7, #12]
  HW32_REG(pc_p) = (unsigned long)fp;
20000c54:	68fb      	ldr	r3, [r7, #12]
20000c56:	683a      	ldr	r2, [r7, #0]
20000c58:	601a      	str	r2, [r3, #0]
}
20000c5a:	bf00      	nop
20000c5c:	3714      	adds	r7, #20
20000c5e:	46bd      	mov	sp, r7
20000c60:	f85d 7b04 	ldr.w	r7, [sp], #4
20000c64:	4770      	bx	lr

20000c66 <TIMER_INIT>:
#define TIM5_IRQ_VECTOR (0x2001C000 + 0x108)
#define TIMER_COMPARE_INTERRUPT void vect_TIM5(void)

TIMER_COMPARE_INTERRUPT;

void TIMER_INIT() {
20000c66:	b580      	push	{r7, lr}
20000c68:	b084      	sub	sp, #16
20000c6a:	af00      	add	r7, sp, #0
          (++) Prescaler value = 0x0000
          (++) Counter mode = Up counting
          (++) Clock Division = TIM_CKD_DIV1
   */

  TIM_DeInit(TIM5);
20000c6c:	481c      	ldr	r0, [pc, #112]	@ (20000ce0 <TIMER_INIT+0x7a>)
20000c6e:	f004 f9f9 	bl	20005064 <TIM_DeInit>

  TIM_TimeBaseStructInit(&TIM_TimeBaseInitStructure);
20000c72:	1d3b      	adds	r3, r7, #4
20000c74:	4618      	mov	r0, r3
20000c76:	f004 fb41 	bl	200052fc <TIM_TimeBaseStructInit>
  TIM_TimeBaseInitStructure.TIM_Prescaler = __TIMER_PRESCALE;
20000c7a:	f240 3347 	movw	r3, #839	@ 0x347
20000c7e:	80bb      	strh	r3, [r7, #4]
  TIM_TimeBaseInit(TIM5, &TIM_TimeBaseInitStructure);
20000c80:	1d3b      	adds	r3, r7, #4
20000c82:	4619      	mov	r1, r3
20000c84:	4816      	ldr	r0, [pc, #88]	@ (20000ce0 <TIMER_INIT+0x7a>)
20000c86:	f004 facd 	bl	20005224 <TIM_TimeBaseInit>

  *((void (**)(void))PendSV_IRQ_VECTOR) = vect_PendSV;
20000c8a:	4b16      	ldr	r3, [pc, #88]	@ (20000ce4 <TIMER_INIT+0x7e>)
20000c8c:	4a16      	ldr	r2, [pc, #88]	@ (20000ce8 <TIMER_INIT+0x82>)
20000c8e:	601a      	str	r2, [r3, #0]

  NVIC_SetPriority(PendSV_IRQn,
20000c90:	2102      	movs	r1, #2
20000c92:	f06f 0001 	mvn.w	r0, #1
20000c96:	f7ff fe99 	bl	200009cc <NVIC_SetPriority>
                   __IRQ_PRIORITY); // same priority as timer and USART1

  *((void (**)(void))SVCall_IRQ_VECTOR) = vect_SVCall;
20000c9a:	4b14      	ldr	r3, [pc, #80]	@ (20000cec <TIMER_INIT+0x86>)
20000c9c:	4a14      	ldr	r2, [pc, #80]	@ (20000cf0 <TIMER_INIT+0x8a>)
20000c9e:	601a      	str	r2, [r3, #0]

  NVIC_SetPriority(SVCall_IRQn, 0x00); // highest priority
20000ca0:	2100      	movs	r1, #0
20000ca2:	f06f 0004 	mvn.w	r0, #4
20000ca6:	f7ff fe91 	bl	200009cc <NVIC_SetPriority>

  *((void (**)(void))TIM5_IRQ_VECTOR) = vect_TIM5;
20000caa:	4b12      	ldr	r3, [pc, #72]	@ (20000cf4 <TIMER_INIT+0x8e>)
20000cac:	4a12      	ldr	r2, [pc, #72]	@ (20000cf8 <TIMER_INIT+0x92>)
20000cae:	601a      	str	r2, [r3, #0]

  NVIC_SetPriority(TIM5_IRQn, __IRQ_PRIORITY);
20000cb0:	2102      	movs	r1, #2
20000cb2:	2032      	movs	r0, #50	@ 0x32
20000cb4:	f7ff fe8a 	bl	200009cc <NVIC_SetPriority>
  NVIC_EnableIRQ(TIM5_IRQn);
20000cb8:	2032      	movs	r0, #50	@ 0x32
20000cba:	f7ff fe6d 	bl	20000998 <NVIC_EnableIRQ>

  TIM_SetCounter(TIM5, 0);
20000cbe:	2100      	movs	r1, #0
20000cc0:	4807      	ldr	r0, [pc, #28]	@ (20000ce0 <TIMER_INIT+0x7a>)
20000cc2:	f004 fb65 	bl	20005390 <TIM_SetCounter>
  TIM_Cmd(TIM5, ENABLE);
20000cc6:	2101      	movs	r1, #1
20000cc8:	4805      	ldr	r0, [pc, #20]	@ (20000ce0 <TIMER_INIT+0x7a>)
20000cca:	f004 fc2e 	bl	2000552a <TIM_Cmd>

  TIM_ITConfig(TIM5, TIM_IT_CC1, ENABLE);
20000cce:	2201      	movs	r2, #1
20000cd0:	2102      	movs	r1, #2
20000cd2:	4803      	ldr	r0, [pc, #12]	@ (20000ce0 <TIMER_INIT+0x7a>)
20000cd4:	f005 fbfd 	bl	200064d2 <TIM_ITConfig>
}
20000cd8:	bf00      	nop
20000cda:	3710      	adds	r7, #16
20000cdc:	46bd      	mov	sp, r7
20000cde:	bd80      	pop	{r7, pc}
20000ce0:	40000c00 	.word	0x40000c00
20000ce4:	2001c038 	.word	0x2001c038
20000ce8:	20002165 	.word	0x20002165
20000cec:	2001c02c 	.word	0x2001c02c
20000cf0:	20002161 	.word	0x20002161
20000cf4:	2001c108 	.word	0x2001c108
20000cf8:	20001083 	.word	0x20001083

20000cfc <DUMPC>:

#define TIMERSET(x) (TIM_SetCompare1(TIM5, x->baseline))

#define INFINITY 0x7fffffffL

void DUMPC(char c) {
20000cfc:	b580      	push	{r7, lr}
20000cfe:	b082      	sub	sp, #8
20000d00:	af00      	add	r7, sp, #0
20000d02:	4603      	mov	r3, r0
20000d04:	71fb      	strb	r3, [r7, #7]
  USART_SendData(USART1, c);
20000d06:	79fb      	ldrb	r3, [r7, #7]
20000d08:	b29b      	uxth	r3, r3
20000d0a:	4619      	mov	r1, r3
20000d0c:	4807      	ldr	r0, [pc, #28]	@ (20000d2c <DUMPC+0x30>)
20000d0e:	f006 f9da 	bl	200070c6 <USART_SendData>
  while (USART_GetFlagStatus(USART1, USART_FLAG_TXE) == RESET)
20000d12:	bf00      	nop
20000d14:	2180      	movs	r1, #128	@ 0x80
20000d16:	4805      	ldr	r0, [pc, #20]	@ (20000d2c <DUMPC+0x30>)
20000d18:	f006 fbc4 	bl	200074a4 <USART_GetFlagStatus>
20000d1c:	4603      	mov	r3, r0
20000d1e:	2b00      	cmp	r3, #0
20000d20:	d0f8      	beq.n	20000d14 <DUMPC+0x18>
    ;
}
20000d22:	bf00      	nop
20000d24:	bf00      	nop
20000d26:	3708      	adds	r7, #8
20000d28:	46bd      	mov	sp, r7
20000d2a:	bd80      	pop	{r7, pc}
20000d2c:	40011000 	.word	0x40011000

20000d30 <vect_USART1>:
      schedule();                                                              \
    doIRQSchedule = 0;                                                         \
  }
#endif

IRQ(IRQ_USART1, vect_USART1);
20000d30:	b580      	push	{r7, lr}
20000d32:	af00      	add	r7, sp, #0
20000d34:	4812      	ldr	r0, [pc, #72]	@ (20000d80 <vect_USART1+0x50>)
20000d36:	f004 fb47 	bl	200053c8 <TIM_GetCounter>
20000d3a:	4603      	mov	r3, r0
20000d3c:	461a      	mov	r2, r3
20000d3e:	4b11      	ldr	r3, [pc, #68]	@ (20000d84 <vect_USART1+0x54>)
20000d40:	601a      	str	r2, [r3, #0]
20000d42:	4b11      	ldr	r3, [pc, #68]	@ (20000d88 <vect_USART1+0x58>)
20000d44:	2201      	movs	r2, #1
20000d46:	601a      	str	r2, [r3, #0]
20000d48:	4b10      	ldr	r3, [pc, #64]	@ (20000d8c <vect_USART1+0x5c>)
20000d4a:	2200      	movs	r2, #0
20000d4c:	601a      	str	r2, [r3, #0]
20000d4e:	4b10      	ldr	r3, [pc, #64]	@ (20000d90 <vect_USART1+0x60>)
20000d50:	681b      	ldr	r3, [r3, #0]
20000d52:	2b00      	cmp	r3, #0
20000d54:	d006      	beq.n	20000d64 <vect_USART1+0x34>
20000d56:	4b0e      	ldr	r3, [pc, #56]	@ (20000d90 <vect_USART1+0x60>)
20000d58:	681b      	ldr	r3, [r3, #0]
20000d5a:	4a0e      	ldr	r2, [pc, #56]	@ (20000d94 <vect_USART1+0x64>)
20000d5c:	6812      	ldr	r2, [r2, #0]
20000d5e:	2100      	movs	r1, #0
20000d60:	4610      	mov	r0, r2
20000d62:	4798      	blx	r3
20000d64:	4b08      	ldr	r3, [pc, #32]	@ (20000d88 <vect_USART1+0x58>)
20000d66:	2200      	movs	r2, #0
20000d68:	601a      	str	r2, [r3, #0]
20000d6a:	4b08      	ldr	r3, [pc, #32]	@ (20000d8c <vect_USART1+0x5c>)
20000d6c:	681b      	ldr	r3, [r3, #0]
20000d6e:	2b00      	cmp	r3, #0
20000d70:	d001      	beq.n	20000d76 <vect_USART1+0x46>
20000d72:	f000 fa5d 	bl	20001230 <schedule>
20000d76:	4b05      	ldr	r3, [pc, #20]	@ (20000d8c <vect_USART1+0x5c>)
20000d78:	2200      	movs	r2, #0
20000d7a:	601a      	str	r2, [r3, #0]
20000d7c:	bd80      	pop	{r7, pc}
20000d7e:	bf00      	nop
20000d80:	40000c00 	.word	0x40000c00
20000d84:	2001236c 	.word	0x2001236c
20000d88:	20012364 	.word	0x20012364
20000d8c:	20012368 	.word	0x20012368
20000d90:	20012378 	.word	0x20012378
20000d94:	20012384 	.word	0x20012384

20000d98 <vect_CAN1>:
IRQ(IRQ_CAN1, vect_CAN1);
20000d98:	b580      	push	{r7, lr}
20000d9a:	af00      	add	r7, sp, #0
20000d9c:	4812      	ldr	r0, [pc, #72]	@ (20000de8 <vect_CAN1+0x50>)
20000d9e:	f004 fb13 	bl	200053c8 <TIM_GetCounter>
20000da2:	4603      	mov	r3, r0
20000da4:	461a      	mov	r2, r3
20000da6:	4b11      	ldr	r3, [pc, #68]	@ (20000dec <vect_CAN1+0x54>)
20000da8:	601a      	str	r2, [r3, #0]
20000daa:	4b11      	ldr	r3, [pc, #68]	@ (20000df0 <vect_CAN1+0x58>)
20000dac:	2201      	movs	r2, #1
20000dae:	601a      	str	r2, [r3, #0]
20000db0:	4b10      	ldr	r3, [pc, #64]	@ (20000df4 <vect_CAN1+0x5c>)
20000db2:	2200      	movs	r2, #0
20000db4:	601a      	str	r2, [r3, #0]
20000db6:	4b10      	ldr	r3, [pc, #64]	@ (20000df8 <vect_CAN1+0x60>)
20000db8:	685b      	ldr	r3, [r3, #4]
20000dba:	2b00      	cmp	r3, #0
20000dbc:	d006      	beq.n	20000dcc <vect_CAN1+0x34>
20000dbe:	4b0e      	ldr	r3, [pc, #56]	@ (20000df8 <vect_CAN1+0x60>)
20000dc0:	685b      	ldr	r3, [r3, #4]
20000dc2:	4a0e      	ldr	r2, [pc, #56]	@ (20000dfc <vect_CAN1+0x64>)
20000dc4:	6852      	ldr	r2, [r2, #4]
20000dc6:	2101      	movs	r1, #1
20000dc8:	4610      	mov	r0, r2
20000dca:	4798      	blx	r3
20000dcc:	4b08      	ldr	r3, [pc, #32]	@ (20000df0 <vect_CAN1+0x58>)
20000dce:	2200      	movs	r2, #0
20000dd0:	601a      	str	r2, [r3, #0]
20000dd2:	4b08      	ldr	r3, [pc, #32]	@ (20000df4 <vect_CAN1+0x5c>)
20000dd4:	681b      	ldr	r3, [r3, #0]
20000dd6:	2b00      	cmp	r3, #0
20000dd8:	d001      	beq.n	20000dde <vect_CAN1+0x46>
20000dda:	f000 fa29 	bl	20001230 <schedule>
20000dde:	4b05      	ldr	r3, [pc, #20]	@ (20000df4 <vect_CAN1+0x5c>)
20000de0:	2200      	movs	r2, #0
20000de2:	601a      	str	r2, [r3, #0]
20000de4:	bd80      	pop	{r7, pc}
20000de6:	bf00      	nop
20000de8:	40000c00 	.word	0x40000c00
20000dec:	2001236c 	.word	0x2001236c
20000df0:	20012364 	.word	0x20012364
20000df4:	20012368 	.word	0x20012368
20000df8:	20012378 	.word	0x20012378
20000dfc:	20012384 	.word	0x20012384

20000e00 <vect_EXTI9_5>:
IRQ(IRQ_EXTI9_5, vect_EXTI9_5);
20000e00:	b580      	push	{r7, lr}
20000e02:	af00      	add	r7, sp, #0
20000e04:	4812      	ldr	r0, [pc, #72]	@ (20000e50 <vect_EXTI9_5+0x50>)
20000e06:	f004 fadf 	bl	200053c8 <TIM_GetCounter>
20000e0a:	4603      	mov	r3, r0
20000e0c:	461a      	mov	r2, r3
20000e0e:	4b11      	ldr	r3, [pc, #68]	@ (20000e54 <vect_EXTI9_5+0x54>)
20000e10:	601a      	str	r2, [r3, #0]
20000e12:	4b11      	ldr	r3, [pc, #68]	@ (20000e58 <vect_EXTI9_5+0x58>)
20000e14:	2201      	movs	r2, #1
20000e16:	601a      	str	r2, [r3, #0]
20000e18:	4b10      	ldr	r3, [pc, #64]	@ (20000e5c <vect_EXTI9_5+0x5c>)
20000e1a:	2200      	movs	r2, #0
20000e1c:	601a      	str	r2, [r3, #0]
20000e1e:	4b10      	ldr	r3, [pc, #64]	@ (20000e60 <vect_EXTI9_5+0x60>)
20000e20:	689b      	ldr	r3, [r3, #8]
20000e22:	2b00      	cmp	r3, #0
20000e24:	d006      	beq.n	20000e34 <vect_EXTI9_5+0x34>
20000e26:	4b0e      	ldr	r3, [pc, #56]	@ (20000e60 <vect_EXTI9_5+0x60>)
20000e28:	689b      	ldr	r3, [r3, #8]
20000e2a:	4a0e      	ldr	r2, [pc, #56]	@ (20000e64 <vect_EXTI9_5+0x64>)
20000e2c:	6892      	ldr	r2, [r2, #8]
20000e2e:	2102      	movs	r1, #2
20000e30:	4610      	mov	r0, r2
20000e32:	4798      	blx	r3
20000e34:	4b08      	ldr	r3, [pc, #32]	@ (20000e58 <vect_EXTI9_5+0x58>)
20000e36:	2200      	movs	r2, #0
20000e38:	601a      	str	r2, [r3, #0]
20000e3a:	4b08      	ldr	r3, [pc, #32]	@ (20000e5c <vect_EXTI9_5+0x5c>)
20000e3c:	681b      	ldr	r3, [r3, #0]
20000e3e:	2b00      	cmp	r3, #0
20000e40:	d001      	beq.n	20000e46 <vect_EXTI9_5+0x46>
20000e42:	f000 f9f5 	bl	20001230 <schedule>
20000e46:	4b05      	ldr	r3, [pc, #20]	@ (20000e5c <vect_EXTI9_5+0x5c>)
20000e48:	2200      	movs	r2, #0
20000e4a:	601a      	str	r2, [r3, #0]
20000e4c:	bd80      	pop	{r7, pc}
20000e4e:	bf00      	nop
20000e50:	40000c00 	.word	0x40000c00
20000e54:	2001236c 	.word	0x2001236c
20000e58:	20012364 	.word	0x20012364
20000e5c:	20012368 	.word	0x20012368
20000e60:	20012378 	.word	0x20012378
20000e64:	20012384 	.word	0x20012384

20000e68 <enqueueByDeadline>:

// End of target dependencies

/* queue manager */
void enqueueByDeadline(Msg p, Msg *queue) {
20000e68:	b480      	push	{r7}
20000e6a:	b085      	sub	sp, #20
20000e6c:	af00      	add	r7, sp, #0
20000e6e:	6078      	str	r0, [r7, #4]
20000e70:	6039      	str	r1, [r7, #0]
  Msg prev = NULL, q = *queue;
20000e72:	2300      	movs	r3, #0
20000e74:	60fb      	str	r3, [r7, #12]
20000e76:	683b      	ldr	r3, [r7, #0]
20000e78:	681b      	ldr	r3, [r3, #0]
20000e7a:	60bb      	str	r3, [r7, #8]
  while (q && (q->deadline <= p->deadline)) {
20000e7c:	e004      	b.n	20000e88 <enqueueByDeadline+0x20>
    prev = q;
20000e7e:	68bb      	ldr	r3, [r7, #8]
20000e80:	60fb      	str	r3, [r7, #12]
    q = q->next;
20000e82:	68bb      	ldr	r3, [r7, #8]
20000e84:	681b      	ldr	r3, [r3, #0]
20000e86:	60bb      	str	r3, [r7, #8]
  while (q && (q->deadline <= p->deadline)) {
20000e88:	68bb      	ldr	r3, [r7, #8]
20000e8a:	2b00      	cmp	r3, #0
20000e8c:	d005      	beq.n	20000e9a <enqueueByDeadline+0x32>
20000e8e:	68bb      	ldr	r3, [r7, #8]
20000e90:	689a      	ldr	r2, [r3, #8]
20000e92:	687b      	ldr	r3, [r7, #4]
20000e94:	689b      	ldr	r3, [r3, #8]
20000e96:	429a      	cmp	r2, r3
20000e98:	ddf1      	ble.n	20000e7e <enqueueByDeadline+0x16>
  }
  p->next = q;
20000e9a:	687b      	ldr	r3, [r7, #4]
20000e9c:	68ba      	ldr	r2, [r7, #8]
20000e9e:	601a      	str	r2, [r3, #0]
  if (prev == NULL)
20000ea0:	68fb      	ldr	r3, [r7, #12]
20000ea2:	2b00      	cmp	r3, #0
20000ea4:	d103      	bne.n	20000eae <enqueueByDeadline+0x46>
    *queue = p;
20000ea6:	683b      	ldr	r3, [r7, #0]
20000ea8:	687a      	ldr	r2, [r7, #4]
20000eaa:	601a      	str	r2, [r3, #0]
  else
    prev->next = p;
}
20000eac:	e002      	b.n	20000eb4 <enqueueByDeadline+0x4c>
    prev->next = p;
20000eae:	68fb      	ldr	r3, [r7, #12]
20000eb0:	687a      	ldr	r2, [r7, #4]
20000eb2:	601a      	str	r2, [r3, #0]
}
20000eb4:	bf00      	nop
20000eb6:	3714      	adds	r7, #20
20000eb8:	46bd      	mov	sp, r7
20000eba:	f85d 7b04 	ldr.w	r7, [sp], #4
20000ebe:	4770      	bx	lr

20000ec0 <enqueueByBaseline>:

void enqueueByBaseline(Msg p, Msg *queue) {
20000ec0:	b480      	push	{r7}
20000ec2:	b085      	sub	sp, #20
20000ec4:	af00      	add	r7, sp, #0
20000ec6:	6078      	str	r0, [r7, #4]
20000ec8:	6039      	str	r1, [r7, #0]
  Msg prev = NULL, q = *queue;
20000eca:	2300      	movs	r3, #0
20000ecc:	60fb      	str	r3, [r7, #12]
20000ece:	683b      	ldr	r3, [r7, #0]
20000ed0:	681b      	ldr	r3, [r3, #0]
20000ed2:	60bb      	str	r3, [r7, #8]
  while (q && (q->baseline <= p->baseline)) {
20000ed4:	e004      	b.n	20000ee0 <enqueueByBaseline+0x20>
    prev = q;
20000ed6:	68bb      	ldr	r3, [r7, #8]
20000ed8:	60fb      	str	r3, [r7, #12]
    q = q->next;
20000eda:	68bb      	ldr	r3, [r7, #8]
20000edc:	681b      	ldr	r3, [r3, #0]
20000ede:	60bb      	str	r3, [r7, #8]
  while (q && (q->baseline <= p->baseline)) {
20000ee0:	68bb      	ldr	r3, [r7, #8]
20000ee2:	2b00      	cmp	r3, #0
20000ee4:	d005      	beq.n	20000ef2 <enqueueByBaseline+0x32>
20000ee6:	68bb      	ldr	r3, [r7, #8]
20000ee8:	685a      	ldr	r2, [r3, #4]
20000eea:	687b      	ldr	r3, [r7, #4]
20000eec:	685b      	ldr	r3, [r3, #4]
20000eee:	429a      	cmp	r2, r3
20000ef0:	ddf1      	ble.n	20000ed6 <enqueueByBaseline+0x16>
  }
  p->next = q;
20000ef2:	687b      	ldr	r3, [r7, #4]
20000ef4:	68ba      	ldr	r2, [r7, #8]
20000ef6:	601a      	str	r2, [r3, #0]
  if (prev == NULL)
20000ef8:	68fb      	ldr	r3, [r7, #12]
20000efa:	2b00      	cmp	r3, #0
20000efc:	d103      	bne.n	20000f06 <enqueueByBaseline+0x46>
    *queue = p;
20000efe:	683b      	ldr	r3, [r7, #0]
20000f00:	687a      	ldr	r2, [r7, #4]
20000f02:	601a      	str	r2, [r3, #0]
  else
    prev->next = p;
}
20000f04:	e002      	b.n	20000f0c <enqueueByBaseline+0x4c>
    prev->next = p;
20000f06:	68fb      	ldr	r3, [r7, #12]
20000f08:	687a      	ldr	r2, [r7, #4]
20000f0a:	601a      	str	r2, [r3, #0]
}
20000f0c:	bf00      	nop
20000f0e:	3714      	adds	r7, #20
20000f10:	46bd      	mov	sp, r7
20000f12:	f85d 7b04 	ldr.w	r7, [sp], #4
20000f16:	4770      	bx	lr

20000f18 <dequeue>:

Msg dequeue(Msg *queue) {
20000f18:	b580      	push	{r7, lr}
20000f1a:	b084      	sub	sp, #16
20000f1c:	af00      	add	r7, sp, #0
20000f1e:	6078      	str	r0, [r7, #4]
  Msg m = *queue;
20000f20:	687b      	ldr	r3, [r7, #4]
20000f22:	681b      	ldr	r3, [r3, #0]
20000f24:	60fb      	str	r3, [r7, #12]
  if (m)
20000f26:	68fb      	ldr	r3, [r7, #12]
20000f28:	2b00      	cmp	r3, #0
20000f2a:	d004      	beq.n	20000f36 <dequeue+0x1e>
    *queue = m->next;
20000f2c:	68fb      	ldr	r3, [r7, #12]
20000f2e:	681a      	ldr	r2, [r3, #0]
20000f30:	687b      	ldr	r3, [r7, #4]
20000f32:	601a      	str	r2, [r3, #0]
20000f34:	e00c      	b.n	20000f50 <dequeue+0x38>
  else
    PANIC("Empty queue"); // Empty queue, kernel panic!!!
20000f36:	4809      	ldr	r0, [pc, #36]	@ (20000f5c <dequeue+0x44>)
20000f38:	f7ff fd72 	bl	20000a20 <DUMP>
20000f3c:	2200      	movs	r2, #0
20000f3e:	2102      	movs	r1, #2
20000f40:	4807      	ldr	r0, [pc, #28]	@ (20000f60 <dequeue+0x48>)
20000f42:	f003 f90a 	bl	2000415a <GPIO_WriteBit>
20000f46:	4807      	ldr	r0, [pc, #28]	@ (20000f64 <dequeue+0x4c>)
20000f48:	f7ff fd6a 	bl	20000a20 <DUMP>
20000f4c:	bf30      	wfi
20000f4e:	e7fd      	b.n	20000f4c <dequeue+0x34>
  return m;
20000f50:	68fb      	ldr	r3, [r7, #12]
}
20000f52:	4618      	mov	r0, r3
20000f54:	3710      	adds	r7, #16
20000f56:	46bd      	mov	sp, r7
20000f58:	bd80      	pop	{r7, pc}
20000f5a:	bf00      	nop
20000f5c:	200083bc 	.word	0x200083bc
20000f60:	40020400 	.word	0x40020400
20000f64:	200083c8 	.word	0x200083c8

20000f68 <dequeue_pool>:

Msg dequeue_pool(Msg *queue) {
20000f68:	b580      	push	{r7, lr}
20000f6a:	b084      	sub	sp, #16
20000f6c:	af00      	add	r7, sp, #0
20000f6e:	6078      	str	r0, [r7, #4]
  Msg m = *queue;
20000f70:	687b      	ldr	r3, [r7, #4]
20000f72:	681b      	ldr	r3, [r3, #0]
20000f74:	60fb      	str	r3, [r7, #12]
  if (m)
20000f76:	68fb      	ldr	r3, [r7, #12]
20000f78:	2b00      	cmp	r3, #0
20000f7a:	d004      	beq.n	20000f86 <dequeue_pool+0x1e>
    *queue = m->next;
20000f7c:	68fb      	ldr	r3, [r7, #12]
20000f7e:	681a      	ldr	r2, [r3, #0]
20000f80:	687b      	ldr	r3, [r7, #4]
20000f82:	601a      	str	r2, [r3, #0]
20000f84:	e00c      	b.n	20000fa0 <dequeue_pool+0x38>
  else
    PANIC("Empty pool"); // Empty pool, kernel panic!!!
20000f86:	4809      	ldr	r0, [pc, #36]	@ (20000fac <dequeue_pool+0x44>)
20000f88:	f7ff fd4a 	bl	20000a20 <DUMP>
20000f8c:	2200      	movs	r2, #0
20000f8e:	2102      	movs	r1, #2
20000f90:	4807      	ldr	r0, [pc, #28]	@ (20000fb0 <dequeue_pool+0x48>)
20000f92:	f003 f8e2 	bl	2000415a <GPIO_WriteBit>
20000f96:	4807      	ldr	r0, [pc, #28]	@ (20000fb4 <dequeue_pool+0x4c>)
20000f98:	f7ff fd42 	bl	20000a20 <DUMP>
20000f9c:	bf30      	wfi
20000f9e:	e7fd      	b.n	20000f9c <dequeue_pool+0x34>
  return m;
20000fa0:	68fb      	ldr	r3, [r7, #12]
}
20000fa2:	4618      	mov	r0, r3
20000fa4:	3710      	adds	r7, #16
20000fa6:	46bd      	mov	sp, r7
20000fa8:	bd80      	pop	{r7, pc}
20000faa:	bf00      	nop
20000fac:	200083bc 	.word	0x200083bc
20000fb0:	40020400 	.word	0x40020400
20000fb4:	200083d4 	.word	0x200083d4

20000fb8 <insert>:

void insert(Msg m, Msg *queue) {
20000fb8:	b480      	push	{r7}
20000fba:	b083      	sub	sp, #12
20000fbc:	af00      	add	r7, sp, #0
20000fbe:	6078      	str	r0, [r7, #4]
20000fc0:	6039      	str	r1, [r7, #0]
  m->next = *queue;
20000fc2:	683b      	ldr	r3, [r7, #0]
20000fc4:	681a      	ldr	r2, [r3, #0]
20000fc6:	687b      	ldr	r3, [r7, #4]
20000fc8:	601a      	str	r2, [r3, #0]
  *queue = m;
20000fca:	683b      	ldr	r3, [r7, #0]
20000fcc:	687a      	ldr	r2, [r7, #4]
20000fce:	601a      	str	r2, [r3, #0]
}
20000fd0:	bf00      	nop
20000fd2:	370c      	adds	r7, #12
20000fd4:	46bd      	mov	sp, r7
20000fd6:	f85d 7b04 	ldr.w	r7, [sp], #4
20000fda:	4770      	bx	lr

20000fdc <push>:

void push(Thread t, Thread *stack) {
20000fdc:	b480      	push	{r7}
20000fde:	b083      	sub	sp, #12
20000fe0:	af00      	add	r7, sp, #0
20000fe2:	6078      	str	r0, [r7, #4]
20000fe4:	6039      	str	r1, [r7, #0]
  t->next = *stack;
20000fe6:	683b      	ldr	r3, [r7, #0]
20000fe8:	681a      	ldr	r2, [r3, #0]
20000fea:	687b      	ldr	r3, [r7, #4]
20000fec:	609a      	str	r2, [r3, #8]
  *stack = t;
20000fee:	683b      	ldr	r3, [r7, #0]
20000ff0:	687a      	ldr	r2, [r7, #4]
20000ff2:	601a      	str	r2, [r3, #0]
}
20000ff4:	bf00      	nop
20000ff6:	370c      	adds	r7, #12
20000ff8:	46bd      	mov	sp, r7
20000ffa:	f85d 7b04 	ldr.w	r7, [sp], #4
20000ffe:	4770      	bx	lr

20001000 <pop>:

Thread pop(Thread *stack) {
20001000:	b480      	push	{r7}
20001002:	b085      	sub	sp, #20
20001004:	af00      	add	r7, sp, #0
20001006:	6078      	str	r0, [r7, #4]
  Thread t = *stack;
20001008:	687b      	ldr	r3, [r7, #4]
2000100a:	681b      	ldr	r3, [r3, #0]
2000100c:	60fb      	str	r3, [r7, #12]
  *stack = t->next;
2000100e:	68fb      	ldr	r3, [r7, #12]
20001010:	689a      	ldr	r2, [r3, #8]
20001012:	687b      	ldr	r3, [r7, #4]
20001014:	601a      	str	r2, [r3, #0]
  return t;
20001016:	68fb      	ldr	r3, [r7, #12]
}
20001018:	4618      	mov	r0, r3
2000101a:	3714      	adds	r7, #20
2000101c:	46bd      	mov	sp, r7
2000101e:	f85d 7b04 	ldr.w	r7, [sp], #4
20001022:	4770      	bx	lr

20001024 <remove>:

static int remove(Msg m, Msg *queue) {
20001024:	b480      	push	{r7}
20001026:	b085      	sub	sp, #20
20001028:	af00      	add	r7, sp, #0
2000102a:	6078      	str	r0, [r7, #4]
2000102c:	6039      	str	r1, [r7, #0]
  Msg prev = NULL, q = *queue;
2000102e:	2300      	movs	r3, #0
20001030:	60fb      	str	r3, [r7, #12]
20001032:	683b      	ldr	r3, [r7, #0]
20001034:	681b      	ldr	r3, [r3, #0]
20001036:	60bb      	str	r3, [r7, #8]
  while (q && (q != m)) {
20001038:	e004      	b.n	20001044 <remove+0x20>
    prev = q;
2000103a:	68bb      	ldr	r3, [r7, #8]
2000103c:	60fb      	str	r3, [r7, #12]
    q = q->next;
2000103e:	68bb      	ldr	r3, [r7, #8]
20001040:	681b      	ldr	r3, [r3, #0]
20001042:	60bb      	str	r3, [r7, #8]
  while (q && (q != m)) {
20001044:	68bb      	ldr	r3, [r7, #8]
20001046:	2b00      	cmp	r3, #0
20001048:	d003      	beq.n	20001052 <remove+0x2e>
2000104a:	68ba      	ldr	r2, [r7, #8]
2000104c:	687b      	ldr	r3, [r7, #4]
2000104e:	429a      	cmp	r2, r3
20001050:	d1f3      	bne.n	2000103a <remove+0x16>
  }
  if (q) {
20001052:	68bb      	ldr	r3, [r7, #8]
20001054:	2b00      	cmp	r3, #0
20001056:	d00d      	beq.n	20001074 <remove+0x50>
    if (prev)
20001058:	68fb      	ldr	r3, [r7, #12]
2000105a:	2b00      	cmp	r3, #0
2000105c:	d004      	beq.n	20001068 <remove+0x44>
      prev->next = q->next;
2000105e:	68bb      	ldr	r3, [r7, #8]
20001060:	681a      	ldr	r2, [r3, #0]
20001062:	68fb      	ldr	r3, [r7, #12]
20001064:	601a      	str	r2, [r3, #0]
20001066:	e003      	b.n	20001070 <remove+0x4c>
    else
      *queue = q->next;
20001068:	68bb      	ldr	r3, [r7, #8]
2000106a:	681a      	ldr	r2, [r3, #0]
2000106c:	683b      	ldr	r3, [r7, #0]
2000106e:	601a      	str	r2, [r3, #0]
    return 1;
20001070:	2301      	movs	r3, #1
20001072:	e000      	b.n	20001076 <remove+0x52>
  }
  return 0;
20001074:	2300      	movs	r3, #0
}
20001076:	4618      	mov	r0, r3
20001078:	3714      	adds	r7, #20
2000107a:	46bd      	mov	sp, r7
2000107c:	f85d 7b04 	ldr.w	r7, [sp], #4
20001080:	4770      	bx	lr

20001082 <vect_TIM5>:

TIMER_COMPARE_INTERRUPT {
20001082:	b580      	push	{r7, lr}
20001084:	b082      	sub	sp, #8
20001086:	af00      	add	r7, sp, #0
  Time now;

  TIMER_CCLR();
20001088:	2102      	movs	r1, #2
2000108a:	481e      	ldr	r0, [pc, #120]	@ (20001104 <vect_TIM5+0x82>)
2000108c:	f005 faab 	bl	200065e6 <TIM_ClearITPendingBit>
#ifdef __USE_SAFE_TIMER
  TIM_Cmd(TIM5, DISABLE);
#endif
  TIMERGET(now);
20001090:	481c      	ldr	r0, [pc, #112]	@ (20001104 <vect_TIM5+0x82>)
20001092:	f004 f999 	bl	200053c8 <TIM_GetCounter>
20001096:	4603      	mov	r3, r0
20001098:	607b      	str	r3, [r7, #4]
  DUMP(", timerQ = ");
  DUMPH((unsigned int)timerQ);
  DUMP("\n\r");
#endif

  while (timerQ && (timerQ->baseline - now <= 0))
2000109a:	e007      	b.n	200010ac <vect_TIM5+0x2a>
    enqueueByDeadline(dequeue(&timerQ), &msgQ);
2000109c:	481a      	ldr	r0, [pc, #104]	@ (20001108 <vect_TIM5+0x86>)
2000109e:	f7ff ff3b 	bl	20000f18 <dequeue>
200010a2:	4603      	mov	r3, r0
200010a4:	4919      	ldr	r1, [pc, #100]	@ (2000110c <vect_TIM5+0x8a>)
200010a6:	4618      	mov	r0, r3
200010a8:	f7ff fede 	bl	20000e68 <enqueueByDeadline>
  while (timerQ && (timerQ->baseline - now <= 0))
200010ac:	4b16      	ldr	r3, [pc, #88]	@ (20001108 <vect_TIM5+0x86>)
200010ae:	681b      	ldr	r3, [r3, #0]
200010b0:	2b00      	cmp	r3, #0
200010b2:	d006      	beq.n	200010c2 <vect_TIM5+0x40>
200010b4:	4b14      	ldr	r3, [pc, #80]	@ (20001108 <vect_TIM5+0x86>)
200010b6:	681b      	ldr	r3, [r3, #0]
200010b8:	685a      	ldr	r2, [r3, #4]
200010ba:	687b      	ldr	r3, [r7, #4]
200010bc:	1ad3      	subs	r3, r2, r3
200010be:	2b00      	cmp	r3, #0
200010c0:	ddec      	ble.n	2000109c <vect_TIM5+0x1a>
  if (timerQ) {
200010c2:	4b11      	ldr	r3, [pc, #68]	@ (20001108 <vect_TIM5+0x86>)
200010c4:	681b      	ldr	r3, [r3, #0]
200010c6:	2b00      	cmp	r3, #0
200010c8:	d016      	beq.n	200010f8 <vect_TIM5+0x76>
#ifdef __USE_FUTURE_CHECK_TIMER
    Time timcount = TIM_GetCounter(TIM5);
200010ca:	480e      	ldr	r0, [pc, #56]	@ (20001104 <vect_TIM5+0x82>)
200010cc:	f004 f97c 	bl	200053c8 <TIM_GetCounter>
200010d0:	4603      	mov	r3, r0
200010d2:	603b      	str	r3, [r7, #0]
    if (timerQ->baseline < timcount)
200010d4:	4b0c      	ldr	r3, [pc, #48]	@ (20001108 <vect_TIM5+0x86>)
200010d6:	681b      	ldr	r3, [r3, #0]
200010d8:	685b      	ldr	r3, [r3, #4]
200010da:	683a      	ldr	r2, [r7, #0]
200010dc:	429a      	cmp	r2, r3
200010de:	dd04      	ble.n	200010ea <vect_TIM5+0x68>
      RED_ALERT(); // Next event is in the past!
200010e0:	2200      	movs	r2, #0
200010e2:	2102      	movs	r1, #2
200010e4:	480a      	ldr	r0, [pc, #40]	@ (20001110 <vect_TIM5+0x8e>)
200010e6:	f003 f838 	bl	2000415a <GPIO_WriteBit>
#endif
    TIMERSET(timerQ);
200010ea:	4b07      	ldr	r3, [pc, #28]	@ (20001108 <vect_TIM5+0x86>)
200010ec:	681b      	ldr	r3, [r3, #0]
200010ee:	685b      	ldr	r3, [r3, #4]
200010f0:	4619      	mov	r1, r3
200010f2:	4804      	ldr	r0, [pc, #16]	@ (20001104 <vect_TIM5+0x82>)
200010f4:	f004 fca7 	bl	20005a46 <TIM_SetCompare1>
#endif
#ifdef __USE_SAFE_TIMER
  TIM_Cmd(TIM5, ENABLE);
#endif

  schedule();
200010f8:	f000 f89a 	bl	20001230 <schedule>
}
200010fc:	bf00      	nop
200010fe:	3708      	adds	r7, #8
20001100:	46bd      	mov	sp, r7
20001102:	bd80      	pop	{r7, pc}
20001104:	40000c00 	.word	0x40000c00
20001108:	20012360 	.word	0x20012360
2000110c:	2001235c 	.word	0x2001235c
20001110:	40020400 	.word	0x40020400

20001114 <__svc_dispatch>:

/* context switching */

__attribute__((naked)) void __svc_dispatch(Thread next) {
20001114:	4603      	mov	r3, r0
  upcoming = next;
20001116:	4a02      	ldr	r2, [pc, #8]	@ (20001120 <__svc_dispatch+0xc>)
20001118:	6013      	str	r3, [r2, #0]
  asm volatile("svc 0x10\n"
2000111a:	df10      	svc	16
2000111c:	46f7      	mov	pc, lr
               "mov pc, lr\n");
}
2000111e:	bf00      	nop
20001120:	20012374 	.word	0x20012374

20001124 <__pendSV_dispatch>:

__attribute__((naked)) void __pendSV_dispatch(Thread next) {
20001124:	4603      	mov	r3, r0
  upcoming = next;
20001126:	4a05      	ldr	r2, [pc, #20]	@ (2000113c <__pendSV_dispatch+0x18>)
20001128:	6013      	str	r3, [r2, #0]
  SCB->ICSR |= (1 << 28); // SCB_ICSR_PENDSVSET_Msk
2000112a:	4b05      	ldr	r3, [pc, #20]	@ (20001140 <__pendSV_dispatch+0x1c>)
2000112c:	685b      	ldr	r3, [r3, #4]
2000112e:	4a04      	ldr	r2, [pc, #16]	@ (20001140 <__pendSV_dispatch+0x1c>)
20001130:	f043 5380 	orr.w	r3, r3, #268435456	@ 0x10000000
20001134:	6053      	str	r3, [r2, #4]
  asm volatile("mov pc, lr\n");
20001136:	46f7      	mov	pc, lr
}
20001138:	bf00      	nop
2000113a:	bf00      	nop
2000113c:	20012374 	.word	0x20012374
20001140:	e000ed00 	.word	0xe000ed00

20001144 <dispatch>:

void dispatch(Thread next) {
20001144:	b580      	push	{r7, lr}
20001146:	b082      	sub	sp, #8
20001148:	af00      	add	r7, sp, #0
2000114a:	6078      	str	r0, [r7, #4]
  DUMP(", mode = ");
  DUMPD(__CURRENT_EXCEPTION);
  DUMP("\n\r");
#endif

  if (THREADMODE()) {
2000114c:	4b09      	ldr	r3, [pc, #36]	@ (20001174 <dispatch+0x30>)
2000114e:	685b      	ldr	r3, [r3, #4]
20001150:	f3c3 0308 	ubfx	r3, r3, #0, #9
20001154:	2b00      	cmp	r3, #0
20001156:	d103      	bne.n	20001160 <dispatch+0x1c>
    __svc_dispatch(next);
20001158:	6878      	ldr	r0, [r7, #4]
2000115a:	f7ff ffdb 	bl	20001114 <__svc_dispatch>
2000115e:	e002      	b.n	20001166 <dispatch+0x22>
  } else {
    __pendSV_dispatch(next);
20001160:	6878      	ldr	r0, [r7, #4]
20001162:	f7ff ffdf 	bl	20001124 <__pendSV_dispatch>
  }

  ENABLE(1);
20001166:	f7ff fd08 	bl	20000b7a <cli>
}
2000116a:	bf00      	nop
2000116c:	3708      	adds	r7, #8
2000116e:	46bd      	mov	sp, r7
20001170:	bd80      	pop	{r7, pc}
20001172:	bf00      	nop
20001174:	e000ed00 	.word	0xe000ed00

20001178 <run>:

static void run(void) {
20001178:	b590      	push	{r4, r7, lr}
2000117a:	b085      	sub	sp, #20
2000117c:	af00      	add	r7, sp, #0
    DUMP(", Exception = ");
    DUMPD(__CURRENT_EXCEPTION);
    DUMP("\n\r");
#endif

    Msg this = current->msg = dequeue(&msgQ); // Get first pending message
2000117e:	4b23      	ldr	r3, [pc, #140]	@ (2000120c <run+0x94>)
20001180:	681c      	ldr	r4, [r3, #0]
20001182:	4823      	ldr	r0, [pc, #140]	@ (20001210 <run+0x98>)
20001184:	f7ff fec8 	bl	20000f18 <dequeue>
20001188:	4603      	mov	r3, r0
2000118a:	60e3      	str	r3, [r4, #12]
2000118c:	68e3      	ldr	r3, [r4, #12]
2000118e:	60bb      	str	r3, [r7, #8]
    DUMP(", method = ");
    DUMPH((unsigned int)this->method);
    DUMP("\n\r");
#endif

    ENABLE(1);
20001190:	f7ff fcf3 	bl	20000b7a <cli>
    SYNC(this->to, this->method, this->arg);
20001194:	68bb      	ldr	r3, [r7, #8]
20001196:	68d8      	ldr	r0, [r3, #12]
20001198:	68bb      	ldr	r3, [r7, #8]
2000119a:	6919      	ldr	r1, [r3, #16]
2000119c:	68bb      	ldr	r3, [r7, #8]
2000119e:	695b      	ldr	r3, [r3, #20]
200011a0:	461a      	mov	r2, r3
200011a2:	f000 f915 	bl	200013d0 <sync>
    DISABLE();
200011a6:	f7ff fcd9 	bl	20000b5c <sei>

    insert(this, &msgPool);
200011aa:	491a      	ldr	r1, [pc, #104]	@ (20001214 <run+0x9c>)
200011ac:	68b8      	ldr	r0, [r7, #8]
200011ae:	f7ff ff03 	bl	20000fb8 <insert>

    oldMsg = activeStack->next->msg;
200011b2:	4b19      	ldr	r3, [pc, #100]	@ (20001218 <run+0xa0>)
200011b4:	681b      	ldr	r3, [r3, #0]
200011b6:	689b      	ldr	r3, [r3, #8]
200011b8:	68db      	ldr	r3, [r3, #12]
200011ba:	607b      	str	r3, [r7, #4]
    if (!msgQ || (oldMsg && (msgQ->deadline - oldMsg->deadline > 0))) {
200011bc:	4b14      	ldr	r3, [pc, #80]	@ (20001210 <run+0x98>)
200011be:	681b      	ldr	r3, [r3, #0]
200011c0:	2b00      	cmp	r3, #0
200011c2:	d00a      	beq.n	200011da <run+0x62>
200011c4:	687b      	ldr	r3, [r7, #4]
200011c6:	2b00      	cmp	r3, #0
200011c8:	d0d9      	beq.n	2000117e <run+0x6>
200011ca:	4b11      	ldr	r3, [pc, #68]	@ (20001210 <run+0x98>)
200011cc:	681b      	ldr	r3, [r3, #0]
200011ce:	689a      	ldr	r2, [r3, #8]
200011d0:	687b      	ldr	r3, [r7, #4]
200011d2:	689b      	ldr	r3, [r3, #8]
200011d4:	1ad3      	subs	r3, r2, r3
200011d6:	2b00      	cmp	r3, #0
200011d8:	ddd1      	ble.n	2000117e <run+0x6>
      Thread t;
      push(pop(&activeStack), &threadPool);
200011da:	480f      	ldr	r0, [pc, #60]	@ (20001218 <run+0xa0>)
200011dc:	f7ff ff10 	bl	20001000 <pop>
200011e0:	4603      	mov	r3, r0
200011e2:	490e      	ldr	r1, [pc, #56]	@ (2000121c <run+0xa4>)
200011e4:	4618      	mov	r0, r3
200011e6:	f7ff fef9 	bl	20000fdc <push>
      t = activeStack; // can't be NULL, may be &thread0
200011ea:	4b0b      	ldr	r3, [pc, #44]	@ (20001218 <run+0xa0>)
200011ec:	681b      	ldr	r3, [r3, #0]
200011ee:	60fb      	str	r3, [r7, #12]
      while (t->waitsFor)
200011f0:	e003      	b.n	200011fa <run+0x82>
        t = t->waitsFor->ownedBy;
200011f2:	68fb      	ldr	r3, [r7, #12]
200011f4:	691b      	ldr	r3, [r3, #16]
200011f6:	681b      	ldr	r3, [r3, #0]
200011f8:	60fb      	str	r3, [r7, #12]
      while (t->waitsFor)
200011fa:	68fb      	ldr	r3, [r7, #12]
200011fc:	691b      	ldr	r3, [r3, #16]
200011fe:	2b00      	cmp	r3, #0
20001200:	d1f7      	bne.n	200011f2 <run+0x7a>
#ifdef __TRACE_DISPATCH
      DUMP("dispatch() in run()");
      DUMP("\n\r");
#endif
      dispatch(t);
20001202:	68f8      	ldr	r0, [r7, #12]
20001204:	f7ff ff9e 	bl	20001144 <dispatch>
  while (1) {
20001208:	e7b9      	b.n	2000117e <run+0x6>
2000120a:	bf00      	nop
2000120c:	2000964c 	.word	0x2000964c
20001210:	2001235c 	.word	0x2001235c
20001214:	20009640 	.word	0x20009640
20001218:	20009648 	.word	0x20009648
2000121c:	20009644 	.word	0x20009644

20001220 <idle>:
    }
  }
}

static void idle(void) {
20001220:	b580      	push	{r7, lr}
20001222:	af00      	add	r7, sp, #0
#ifdef __TRACE_SCHEDULE
  DUMP("schedule() in idle()");
  DUMP("\n\r");
#endif
  schedule();
20001224:	f000 f804 	bl	20001230 <schedule>
  while (1) {
    ENABLE(1);
20001228:	f7ff fca7 	bl	20000b7a <cli>
    SLEEP();
2000122c:	bf30      	wfi
    ENABLE(1);
2000122e:	e7fb      	b.n	20001228 <idle+0x8>

20001230 <schedule>:
  }
}

static void schedule(void) {
20001230:	b580      	push	{r7, lr}
20001232:	b082      	sub	sp, #8
20001234:	af00      	add	r7, sp, #0
  Msg topMsg = activeStack->msg;
20001236:	4b14      	ldr	r3, [pc, #80]	@ (20001288 <schedule+0x58>)
20001238:	681b      	ldr	r3, [r3, #0]
2000123a:	68db      	ldr	r3, [r3, #12]
2000123c:	607b      	str	r3, [r7, #4]
  DUMP(", topMsg = ");
  DUMPH((unsigned int)topMsg);
  DUMP("\n\r");
#endif

  if (msgQ && threadPool &&
2000123e:	4b13      	ldr	r3, [pc, #76]	@ (2000128c <schedule+0x5c>)
20001240:	681b      	ldr	r3, [r3, #0]
20001242:	2b00      	cmp	r3, #0
20001244:	d01b      	beq.n	2000127e <schedule+0x4e>
20001246:	4b12      	ldr	r3, [pc, #72]	@ (20001290 <schedule+0x60>)
20001248:	681b      	ldr	r3, [r3, #0]
2000124a:	2b00      	cmp	r3, #0
2000124c:	d017      	beq.n	2000127e <schedule+0x4e>
2000124e:	687b      	ldr	r3, [r7, #4]
20001250:	2b00      	cmp	r3, #0
20001252:	d007      	beq.n	20001264 <schedule+0x34>
      ((!topMsg) || (msgQ->deadline - topMsg->deadline < 0))) {
20001254:	4b0d      	ldr	r3, [pc, #52]	@ (2000128c <schedule+0x5c>)
20001256:	681b      	ldr	r3, [r3, #0]
20001258:	689a      	ldr	r2, [r3, #8]
2000125a:	687b      	ldr	r3, [r7, #4]
2000125c:	689b      	ldr	r3, [r3, #8]
2000125e:	1ad3      	subs	r3, r2, r3
20001260:	2b00      	cmp	r3, #0
20001262:	da0c      	bge.n	2000127e <schedule+0x4e>
    push(pop(&threadPool), &activeStack);
20001264:	480a      	ldr	r0, [pc, #40]	@ (20001290 <schedule+0x60>)
20001266:	f7ff fecb 	bl	20001000 <pop>
2000126a:	4603      	mov	r3, r0
2000126c:	4906      	ldr	r1, [pc, #24]	@ (20001288 <schedule+0x58>)
2000126e:	4618      	mov	r0, r3
20001270:	f7ff feb4 	bl	20000fdc <push>

#ifdef __TRACE_DISPATCH
    DUMP("dispatch() in schedule()");
    DUMP("\n\r");
#endif
    dispatch(activeStack);
20001274:	4b04      	ldr	r3, [pc, #16]	@ (20001288 <schedule+0x58>)
20001276:	681b      	ldr	r3, [r3, #0]
20001278:	4618      	mov	r0, r3
2000127a:	f7ff ff63 	bl	20001144 <dispatch>
  }
}
2000127e:	bf00      	nop
20001280:	3708      	adds	r7, #8
20001282:	46bd      	mov	sp, r7
20001284:	bd80      	pop	{r7, pc}
20001286:	bf00      	nop
20001288:	20009648 	.word	0x20009648
2000128c:	2001235c 	.word	0x2001235c
20001290:	20009644 	.word	0x20009644

20001294 <async>:

/* communication primitives */
Msg async(Time bl, Time dl, Object *to, Method meth, int arg) {
20001294:	b580      	push	{r7, lr}
20001296:	b088      	sub	sp, #32
20001298:	af00      	add	r7, sp, #0
2000129a:	60f8      	str	r0, [r7, #12]
2000129c:	60b9      	str	r1, [r7, #8]
2000129e:	607a      	str	r2, [r7, #4]
200012a0:	603b      	str	r3, [r7, #0]
  __ASM volatile ("MRS %0, basepri_max" : "=r" (result) );
200012a2:	f3ef 8312 	mrs	r3, BASEPRI_MAX
200012a6:	613b      	str	r3, [r7, #16]
  return(result);
200012a8:	693b      	ldr	r3, [r7, #16]
  Msg m;
  Time now;
  char wasEnabled = ENABLED();
200012aa:	091b      	lsrs	r3, r3, #4
200012ac:	2b01      	cmp	r3, #1
200012ae:	bf14      	ite	ne
200012b0:	2301      	movne	r3, #1
200012b2:	2300      	moveq	r3, #0
200012b4:	b2db      	uxtb	r3, r3
200012b6:	77fb      	strb	r3, [r7, #31]
  DISABLE();
200012b8:	f7ff fc50 	bl	20000b5c <sei>
  m = dequeue_pool(&msgPool); // Get new message template
200012bc:	483a      	ldr	r0, [pc, #232]	@ (200013a8 <async+0x114>)
200012be:	f7ff fe53 	bl	20000f68 <dequeue_pool>
200012c2:	61b8      	str	r0, [r7, #24]
  m->to = to;
200012c4:	69bb      	ldr	r3, [r7, #24]
200012c6:	687a      	ldr	r2, [r7, #4]
200012c8:	60da      	str	r2, [r3, #12]
  m->method = meth;
200012ca:	69bb      	ldr	r3, [r7, #24]
200012cc:	683a      	ldr	r2, [r7, #0]
200012ce:	611a      	str	r2, [r3, #16]
  m->arg = arg;
200012d0:	69bb      	ldr	r3, [r7, #24]
200012d2:	6aba      	ldr	r2, [r7, #40]	@ 0x28
200012d4:	615a      	str	r2, [r3, #20]
  m->baseline = (runAsHardware ? timestamp : current->msg->baseline) + bl;
200012d6:	4b35      	ldr	r3, [pc, #212]	@ (200013ac <async+0x118>)
200012d8:	681b      	ldr	r3, [r3, #0]
200012da:	2b00      	cmp	r3, #0
200012dc:	d104      	bne.n	200012e8 <async+0x54>
200012de:	4b34      	ldr	r3, [pc, #208]	@ (200013b0 <async+0x11c>)
200012e0:	681b      	ldr	r3, [r3, #0]
200012e2:	68db      	ldr	r3, [r3, #12]
200012e4:	685b      	ldr	r3, [r3, #4]
200012e6:	e001      	b.n	200012ec <async+0x58>
200012e8:	4b32      	ldr	r3, [pc, #200]	@ (200013b4 <async+0x120>)
200012ea:	681b      	ldr	r3, [r3, #0]
200012ec:	68fa      	ldr	r2, [r7, #12]
200012ee:	441a      	add	r2, r3
200012f0:	69bb      	ldr	r3, [r7, #24]
200012f2:	605a      	str	r2, [r3, #4]
  m->deadline = m->baseline + (dl > 0 ? dl : INFINITY);
200012f4:	69bb      	ldr	r3, [r7, #24]
200012f6:	685a      	ldr	r2, [r3, #4]
200012f8:	68bb      	ldr	r3, [r7, #8]
200012fa:	2b00      	cmp	r3, #0
200012fc:	dd01      	ble.n	20001302 <async+0x6e>
200012fe:	68bb      	ldr	r3, [r7, #8]
20001300:	e001      	b.n	20001306 <async+0x72>
20001302:	f06f 4300 	mvn.w	r3, #2147483648	@ 0x80000000
20001306:	441a      	add	r2, r3
20001308:	69bb      	ldr	r3, [r7, #24]
2000130a:	609a      	str	r2, [r3, #8]

#ifdef __USE_SAFE_TIMER
  TIM_Cmd(TIM5, DISABLE);
#endif
  TIMERGET(now);
2000130c:	482a      	ldr	r0, [pc, #168]	@ (200013b8 <async+0x124>)
2000130e:	f004 f85b 	bl	200053c8 <TIM_GetCounter>
20001312:	4603      	mov	r3, r0
20001314:	617b      	str	r3, [r7, #20]
          DUMPD(wasEnabled);
          DUMP(", runAsHardware = ");
          DUMPD(runAsHardware);
          DUMP("\n\r"); */

  if (m->baseline - now > 0) { // baseline has not yet passed
20001316:	69bb      	ldr	r3, [r7, #24]
20001318:	685a      	ldr	r2, [r3, #4]
2000131a:	697b      	ldr	r3, [r7, #20]
2000131c:	1ad3      	subs	r3, r2, r3
2000131e:	2b00      	cmp	r3, #0
20001320:	dd16      	ble.n	20001350 <async+0xbc>
#ifdef __TRACE_ASYNC1
    DUMP("enqueueByBaseline() in async()");
    DUMP("\n\r");
#endif
    enqueueByBaseline(m, &timerQ);
20001322:	4926      	ldr	r1, [pc, #152]	@ (200013bc <async+0x128>)
20001324:	69b8      	ldr	r0, [r7, #24]
20001326:	f7ff fdcb 	bl	20000ec0 <enqueueByBaseline>
#ifdef __USE_FUTURE_CHECK_TIMER
    if (timerQ->baseline < now)
2000132a:	4b24      	ldr	r3, [pc, #144]	@ (200013bc <async+0x128>)
2000132c:	681b      	ldr	r3, [r3, #0]
2000132e:	685b      	ldr	r3, [r3, #4]
20001330:	697a      	ldr	r2, [r7, #20]
20001332:	429a      	cmp	r2, r3
20001334:	dd04      	ble.n	20001340 <async+0xac>
      RED_ALERT(); // Next event is in the past!
20001336:	2200      	movs	r2, #0
20001338:	2102      	movs	r1, #2
2000133a:	4821      	ldr	r0, [pc, #132]	@ (200013c0 <async+0x12c>)
2000133c:	f002 ff0d 	bl	2000415a <GPIO_WriteBit>
#endif
    TIMERSET(timerQ);
20001340:	4b1e      	ldr	r3, [pc, #120]	@ (200013bc <async+0x128>)
20001342:	681b      	ldr	r3, [r3, #0]
20001344:	685b      	ldr	r3, [r3, #4]
20001346:	4619      	mov	r1, r3
20001348:	481b      	ldr	r0, [pc, #108]	@ (200013b8 <async+0x124>)
2000134a:	f004 fb7c 	bl	20005a46 <TIM_SetCompare1>
2000134e:	e021      	b.n	20001394 <async+0x100>
    DUMP("\n\r");
#endif
#ifdef __USE_SAFE_TIMER
    TIM_Cmd(TIM5, ENABLE);
#endif
    enqueueByDeadline(m, &msgQ);
20001350:	491c      	ldr	r1, [pc, #112]	@ (200013c4 <async+0x130>)
20001352:	69b8      	ldr	r0, [r7, #24]
20001354:	f7ff fd88 	bl	20000e68 <enqueueByDeadline>
    if (wasEnabled && threadPool &&
20001358:	7ffb      	ldrb	r3, [r7, #31]
2000135a:	2b00      	cmp	r3, #0
2000135c:	d01a      	beq.n	20001394 <async+0x100>
2000135e:	4b1a      	ldr	r3, [pc, #104]	@ (200013c8 <async+0x134>)
20001360:	681b      	ldr	r3, [r3, #0]
20001362:	2b00      	cmp	r3, #0
20001364:	d016      	beq.n	20001394 <async+0x100>
        (msgQ->deadline - activeStack->msg->deadline < 0)) {
20001366:	4b17      	ldr	r3, [pc, #92]	@ (200013c4 <async+0x130>)
20001368:	681b      	ldr	r3, [r3, #0]
2000136a:	689a      	ldr	r2, [r3, #8]
2000136c:	4b17      	ldr	r3, [pc, #92]	@ (200013cc <async+0x138>)
2000136e:	681b      	ldr	r3, [r3, #0]
20001370:	68db      	ldr	r3, [r3, #12]
20001372:	689b      	ldr	r3, [r3, #8]
20001374:	1ad3      	subs	r3, r2, r3
    if (wasEnabled && threadPool &&
20001376:	2b00      	cmp	r3, #0
20001378:	da0c      	bge.n	20001394 <async+0x100>
      push(pop(&threadPool), &activeStack);
2000137a:	4813      	ldr	r0, [pc, #76]	@ (200013c8 <async+0x134>)
2000137c:	f7ff fe40 	bl	20001000 <pop>
20001380:	4603      	mov	r3, r0
20001382:	4912      	ldr	r1, [pc, #72]	@ (200013cc <async+0x138>)
20001384:	4618      	mov	r0, r3
20001386:	f7ff fe29 	bl	20000fdc <push>
#ifdef __TRACE_DISPATCH
      DUMP("dispatch() in async()");
      DUMP("\n\r");
#endif
      dispatch(activeStack);
2000138a:	4b10      	ldr	r3, [pc, #64]	@ (200013cc <async+0x138>)
2000138c:	681b      	ldr	r3, [r3, #0]
2000138e:	4618      	mov	r0, r3
20001390:	f7ff fed8 	bl	20001144 <dispatch>
    }
  }

  ENABLE(wasEnabled);
20001394:	7ffb      	ldrb	r3, [r7, #31]
20001396:	2b00      	cmp	r3, #0
20001398:	d001      	beq.n	2000139e <async+0x10a>
2000139a:	f7ff fbee 	bl	20000b7a <cli>
  return m;
2000139e:	69bb      	ldr	r3, [r7, #24]
}
200013a0:	4618      	mov	r0, r3
200013a2:	3720      	adds	r7, #32
200013a4:	46bd      	mov	sp, r7
200013a6:	bd80      	pop	{r7, pc}
200013a8:	20009640 	.word	0x20009640
200013ac:	20012364 	.word	0x20012364
200013b0:	2000964c 	.word	0x2000964c
200013b4:	2001236c 	.word	0x2001236c
200013b8:	40000c00 	.word	0x40000c00
200013bc:	20012360 	.word	0x20012360
200013c0:	40020400 	.word	0x40020400
200013c4:	2001235c 	.word	0x2001235c
200013c8:	20009644 	.word	0x20009644
200013cc:	20009648 	.word	0x20009648

200013d0 <sync>:

int sync(Object *to, Method meth, int arg) {
200013d0:	b580      	push	{r7, lr}
200013d2:	b088      	sub	sp, #32
200013d4:	af00      	add	r7, sp, #0
200013d6:	60f8      	str	r0, [r7, #12]
200013d8:	60b9      	str	r1, [r7, #8]
200013da:	607a      	str	r2, [r7, #4]
  __ASM volatile ("MRS %0, basepri_max" : "=r" (result) );
200013dc:	f3ef 8312 	mrs	r3, BASEPRI_MAX
200013e0:	613b      	str	r3, [r7, #16]
  return(result);
200013e2:	693b      	ldr	r3, [r7, #16]
  Thread t;
  int result;
  char wasEnabled = ENABLED();
200013e4:	091b      	lsrs	r3, r3, #4
200013e6:	2b01      	cmp	r3, #1
200013e8:	bf14      	ite	ne
200013ea:	2301      	movne	r3, #1
200013ec:	2300      	moveq	r3, #0
200013ee:	b2db      	uxtb	r3, r3
200013f0:	76fb      	strb	r3, [r7, #27]

  DISABLE();
200013f2:	f7ff fbb3 	bl	20000b5c <sei>

  //	DUMP("Entered sync(): ");
  //	DUMP("\n\r");

  t = to->ownedBy;
200013f6:	68fb      	ldr	r3, [r7, #12]
200013f8:	681b      	ldr	r3, [r3, #0]
200013fa:	61fb      	str	r3, [r7, #28]
  if (t) { // to is already locked
200013fc:	69fb      	ldr	r3, [r7, #28]
200013fe:	2b00      	cmp	r3, #0
20001400:	d037      	beq.n	20001472 <sync+0xa2>
    while (t->waitsFor)
20001402:	e003      	b.n	2000140c <sync+0x3c>
      t = t->waitsFor->ownedBy;
20001404:	69fb      	ldr	r3, [r7, #28]
20001406:	691b      	ldr	r3, [r3, #16]
20001408:	681b      	ldr	r3, [r3, #0]
2000140a:	61fb      	str	r3, [r7, #28]
    while (t->waitsFor)
2000140c:	69fb      	ldr	r3, [r7, #28]
2000140e:	691b      	ldr	r3, [r3, #16]
20001410:	2b00      	cmp	r3, #0
20001412:	d1f7      	bne.n	20001404 <sync+0x34>
    if (t == current || !wasEnabled) { // deadlock!
20001414:	4b30      	ldr	r3, [pc, #192]	@ (200014d8 <sync+0x108>)
20001416:	681b      	ldr	r3, [r3, #0]
20001418:	69fa      	ldr	r2, [r7, #28]
2000141a:	429a      	cmp	r2, r3
2000141c:	d002      	beq.n	20001424 <sync+0x54>
2000141e:	7efb      	ldrb	r3, [r7, #27]
20001420:	2b00      	cmp	r3, #0
20001422:	d107      	bne.n	20001434 <sync+0x64>
      ENABLE(wasEnabled);
20001424:	7efb      	ldrb	r3, [r7, #27]
20001426:	2b00      	cmp	r3, #0
20001428:	d001      	beq.n	2000142e <sync+0x5e>
2000142a:	f7ff fba6 	bl	20000b7a <cli>
      return -1;
2000142e:	f04f 33ff 	mov.w	r3, #4294967295
20001432:	e04d      	b.n	200014d0 <sync+0x100>
    }
    if (to->wantedBy) // must be a lower priority thread
20001434:	68fb      	ldr	r3, [r7, #12]
20001436:	685b      	ldr	r3, [r3, #4]
20001438:	2b00      	cmp	r3, #0
2000143a:	d003      	beq.n	20001444 <sync+0x74>
      to->wantedBy->waitsFor = NULL;
2000143c:	68fb      	ldr	r3, [r7, #12]
2000143e:	685b      	ldr	r3, [r3, #4]
20001440:	2200      	movs	r2, #0
20001442:	611a      	str	r2, [r3, #16]
    to->wantedBy = current;
20001444:	4b24      	ldr	r3, [pc, #144]	@ (200014d8 <sync+0x108>)
20001446:	681a      	ldr	r2, [r3, #0]
20001448:	68fb      	ldr	r3, [r7, #12]
2000144a:	605a      	str	r2, [r3, #4]
    current->waitsFor = to;
2000144c:	4b22      	ldr	r3, [pc, #136]	@ (200014d8 <sync+0x108>)
2000144e:	681b      	ldr	r3, [r3, #0]
20001450:	68fa      	ldr	r2, [r7, #12]
20001452:	611a      	str	r2, [r3, #16]
#ifdef __TRACE_DISPATCH
    DUMP("dispatch() in sync() - already locked");
    DUMP("\n\r");
#endif
    dispatch(t);
20001454:	69f8      	ldr	r0, [r7, #28]
20001456:	f7ff fe75 	bl	20001144 <dispatch>
    if (current->msg == NULL) { // message was aborted (when called from run)
2000145a:	4b1f      	ldr	r3, [pc, #124]	@ (200014d8 <sync+0x108>)
2000145c:	681b      	ldr	r3, [r3, #0]
2000145e:	68db      	ldr	r3, [r3, #12]
20001460:	2b00      	cmp	r3, #0
20001462:	d106      	bne.n	20001472 <sync+0xa2>
      ENABLE(wasEnabled);
20001464:	7efb      	ldrb	r3, [r7, #27]
20001466:	2b00      	cmp	r3, #0
20001468:	d001      	beq.n	2000146e <sync+0x9e>
2000146a:	f7ff fb86 	bl	20000b7a <cli>
      return 0;
2000146e:	2300      	movs	r3, #0
20001470:	e02e      	b.n	200014d0 <sync+0x100>
    }
  }
  to->ownedBy = current;
20001472:	4b19      	ldr	r3, [pc, #100]	@ (200014d8 <sync+0x108>)
20001474:	681a      	ldr	r2, [r3, #0]
20001476:	68fb      	ldr	r3, [r7, #12]
20001478:	601a      	str	r2, [r3, #0]
  ENABLE(wasEnabled &&
2000147a:	7efb      	ldrb	r3, [r7, #27]
2000147c:	2b00      	cmp	r3, #0
2000147e:	d005      	beq.n	2000148c <sync+0xbc>
20001480:	68fb      	ldr	r3, [r7, #12]
20001482:	685b      	ldr	r3, [r3, #4]
20001484:	2b01      	cmp	r3, #1
20001486:	d001      	beq.n	2000148c <sync+0xbc>
20001488:	f7ff fb77 	bl	20000b7a <cli>
         (to->wantedBy !=
          INSTALLED_TAG)); // don't enable interrupts if running as handler
  result = meth(to, arg);
2000148c:	68bb      	ldr	r3, [r7, #8]
2000148e:	6879      	ldr	r1, [r7, #4]
20001490:	68f8      	ldr	r0, [r7, #12]
20001492:	4798      	blx	r3
20001494:	6178      	str	r0, [r7, #20]
  DISABLE();
20001496:	f7ff fb61 	bl	20000b5c <sei>
  to->ownedBy = NULL;
2000149a:	68fb      	ldr	r3, [r7, #12]
2000149c:	2200      	movs	r2, #0
2000149e:	601a      	str	r2, [r3, #0]
  t = to->wantedBy;
200014a0:	68fb      	ldr	r3, [r7, #12]
200014a2:	685b      	ldr	r3, [r3, #4]
200014a4:	61fb      	str	r3, [r7, #28]
  if (t && (t != INSTALLED_TAG)) { // we have run on someone's behalf
200014a6:	69fb      	ldr	r3, [r7, #28]
200014a8:	2b00      	cmp	r3, #0
200014aa:	d00b      	beq.n	200014c4 <sync+0xf4>
200014ac:	69fb      	ldr	r3, [r7, #28]
200014ae:	2b01      	cmp	r3, #1
200014b0:	d008      	beq.n	200014c4 <sync+0xf4>
    to->wantedBy = NULL;
200014b2:	68fb      	ldr	r3, [r7, #12]
200014b4:	2200      	movs	r2, #0
200014b6:	605a      	str	r2, [r3, #4]
    t->waitsFor = NULL;
200014b8:	69fb      	ldr	r3, [r7, #28]
200014ba:	2200      	movs	r2, #0
200014bc:	611a      	str	r2, [r3, #16]
#ifdef __TRACE_DISPATCH
    DUMP("dispatch() in sync() - run on someone's behalf");
    DUMP("\n\r");
#endif
    dispatch(t);
200014be:	69f8      	ldr	r0, [r7, #28]
200014c0:	f7ff fe40 	bl	20001144 <dispatch>
  }
  ENABLE(wasEnabled);
200014c4:	7efb      	ldrb	r3, [r7, #27]
200014c6:	2b00      	cmp	r3, #0
200014c8:	d001      	beq.n	200014ce <sync+0xfe>
200014ca:	f7ff fb56 	bl	20000b7a <cli>
  return result;
200014ce:	697b      	ldr	r3, [r7, #20]
}
200014d0:	4618      	mov	r0, r3
200014d2:	3720      	adds	r7, #32
200014d4:	46bd      	mov	sp, r7
200014d6:	bd80      	pop	{r7, pc}
200014d8:	2000964c 	.word	0x2000964c

200014dc <ABORT>:

void ABORT(Msg m) {
200014dc:	b580      	push	{r7, lr}
200014de:	b086      	sub	sp, #24
200014e0:	af00      	add	r7, sp, #0
200014e2:	6078      	str	r0, [r7, #4]
  __ASM volatile ("MRS %0, basepri_max" : "=r" (result) );
200014e4:	f3ef 8312 	mrs	r3, BASEPRI_MAX
200014e8:	60fb      	str	r3, [r7, #12]
  return(result);
200014ea:	68fb      	ldr	r3, [r7, #12]
  char wasEnabled = ENABLED();
200014ec:	091b      	lsrs	r3, r3, #4
200014ee:	2b01      	cmp	r3, #1
200014f0:	bf14      	ite	ne
200014f2:	2301      	movne	r3, #1
200014f4:	2300      	moveq	r3, #0
200014f6:	b2db      	uxtb	r3, r3
200014f8:	74fb      	strb	r3, [r7, #19]
  DISABLE();
200014fa:	f7ff fb2f 	bl	20000b5c <sei>

  if (remove(m, &timerQ) || remove(m, &msgQ))
200014fe:	491f      	ldr	r1, [pc, #124]	@ (2000157c <ABORT+0xa0>)
20001500:	6878      	ldr	r0, [r7, #4]
20001502:	f7ff fd8f 	bl	20001024 <remove>
20001506:	4603      	mov	r3, r0
20001508:	2b00      	cmp	r3, #0
2000150a:	d106      	bne.n	2000151a <ABORT+0x3e>
2000150c:	491c      	ldr	r1, [pc, #112]	@ (20001580 <ABORT+0xa4>)
2000150e:	6878      	ldr	r0, [r7, #4]
20001510:	f7ff fd88 	bl	20001024 <remove>
20001514:	4603      	mov	r3, r0
20001516:	2b00      	cmp	r3, #0
20001518:	d004      	beq.n	20001524 <ABORT+0x48>
    insert(m, &msgPool);
2000151a:	491a      	ldr	r1, [pc, #104]	@ (20001584 <ABORT+0xa8>)
2000151c:	6878      	ldr	r0, [r7, #4]
2000151e:	f7ff fd4b 	bl	20000fb8 <insert>
20001522:	e021      	b.n	20001568 <ABORT+0x8c>
  else {
    Thread t = activeStack;
20001524:	4b18      	ldr	r3, [pc, #96]	@ (20001588 <ABORT+0xac>)
20001526:	681b      	ldr	r3, [r3, #0]
20001528:	617b      	str	r3, [r7, #20]
    while (t) {
2000152a:	e01a      	b.n	20001562 <ABORT+0x86>
      if ((t != current) && (t->msg == m) && (t->waitsFor == m->to)) {
2000152c:	4b17      	ldr	r3, [pc, #92]	@ (2000158c <ABORT+0xb0>)
2000152e:	681b      	ldr	r3, [r3, #0]
20001530:	697a      	ldr	r2, [r7, #20]
20001532:	429a      	cmp	r2, r3
20001534:	d012      	beq.n	2000155c <ABORT+0x80>
20001536:	697b      	ldr	r3, [r7, #20]
20001538:	68db      	ldr	r3, [r3, #12]
2000153a:	687a      	ldr	r2, [r7, #4]
2000153c:	429a      	cmp	r2, r3
2000153e:	d10d      	bne.n	2000155c <ABORT+0x80>
20001540:	697b      	ldr	r3, [r7, #20]
20001542:	691a      	ldr	r2, [r3, #16]
20001544:	687b      	ldr	r3, [r7, #4]
20001546:	68db      	ldr	r3, [r3, #12]
20001548:	429a      	cmp	r2, r3
2000154a:	d107      	bne.n	2000155c <ABORT+0x80>
        t->msg = NULL;
2000154c:	697b      	ldr	r3, [r7, #20]
2000154e:	2200      	movs	r2, #0
20001550:	60da      	str	r2, [r3, #12]
        insert(m, &msgPool);
20001552:	490c      	ldr	r1, [pc, #48]	@ (20001584 <ABORT+0xa8>)
20001554:	6878      	ldr	r0, [r7, #4]
20001556:	f7ff fd2f 	bl	20000fb8 <insert>
        break;
2000155a:	e005      	b.n	20001568 <ABORT+0x8c>
      }
      t = t->next;
2000155c:	697b      	ldr	r3, [r7, #20]
2000155e:	689b      	ldr	r3, [r3, #8]
20001560:	617b      	str	r3, [r7, #20]
    while (t) {
20001562:	697b      	ldr	r3, [r7, #20]
20001564:	2b00      	cmp	r3, #0
20001566:	d1e1      	bne.n	2000152c <ABORT+0x50>
    }
  }
  ENABLE(wasEnabled);
20001568:	7cfb      	ldrb	r3, [r7, #19]
2000156a:	2b00      	cmp	r3, #0
2000156c:	d001      	beq.n	20001572 <ABORT+0x96>
2000156e:	f7ff fb04 	bl	20000b7a <cli>
}
20001572:	bf00      	nop
20001574:	3718      	adds	r7, #24
20001576:	46bd      	mov	sp, r7
20001578:	bd80      	pop	{r7, pc}
2000157a:	bf00      	nop
2000157c:	20012360 	.word	0x20012360
20001580:	2001235c 	.word	0x2001235c
20001584:	20009640 	.word	0x20009640
20001588:	20009648 	.word	0x20009648
2000158c:	2000964c 	.word	0x2000964c

20001590 <T_RESET>:

void T_RESET(Timer *t) {
20001590:	b480      	push	{r7}
20001592:	b085      	sub	sp, #20
20001594:	af00      	add	r7, sp, #0
20001596:	6078      	str	r0, [r7, #4]
  __ASM volatile ("MRS %0, basepri_max" : "=r" (result) );
20001598:	f3ef 8312 	mrs	r3, BASEPRI_MAX
2000159c:	60fb      	str	r3, [r7, #12]
  return(result);
2000159e:	68fb      	ldr	r3, [r7, #12]
  t->accum = ENABLED() ? current->msg->baseline : timestamp;
200015a0:	091b      	lsrs	r3, r3, #4
200015a2:	2b01      	cmp	r3, #1
200015a4:	d004      	beq.n	200015b0 <T_RESET+0x20>
200015a6:	4b07      	ldr	r3, [pc, #28]	@ (200015c4 <T_RESET+0x34>)
200015a8:	681b      	ldr	r3, [r3, #0]
200015aa:	68db      	ldr	r3, [r3, #12]
200015ac:	685b      	ldr	r3, [r3, #4]
200015ae:	e001      	b.n	200015b4 <T_RESET+0x24>
200015b0:	4b05      	ldr	r3, [pc, #20]	@ (200015c8 <T_RESET+0x38>)
200015b2:	681b      	ldr	r3, [r3, #0]
200015b4:	687a      	ldr	r2, [r7, #4]
200015b6:	6013      	str	r3, [r2, #0]
}
200015b8:	bf00      	nop
200015ba:	3714      	adds	r7, #20
200015bc:	46bd      	mov	sp, r7
200015be:	f85d 7b04 	ldr.w	r7, [sp], #4
200015c2:	4770      	bx	lr
200015c4:	2000964c 	.word	0x2000964c
200015c8:	2001236c 	.word	0x2001236c

200015cc <T_SAMPLE>:

Time T_SAMPLE(Timer *t) {
200015cc:	b480      	push	{r7}
200015ce:	b085      	sub	sp, #20
200015d0:	af00      	add	r7, sp, #0
200015d2:	6078      	str	r0, [r7, #4]
  __ASM volatile ("MRS %0, basepri_max" : "=r" (result) );
200015d4:	f3ef 8312 	mrs	r3, BASEPRI_MAX
200015d8:	60fb      	str	r3, [r7, #12]
  return(result);
200015da:	68fb      	ldr	r3, [r7, #12]
  return (ENABLED() ? current->msg->baseline : timestamp) - t->accum;
200015dc:	091b      	lsrs	r3, r3, #4
200015de:	2b01      	cmp	r3, #1
200015e0:	d004      	beq.n	200015ec <T_SAMPLE+0x20>
200015e2:	4b08      	ldr	r3, [pc, #32]	@ (20001604 <T_SAMPLE+0x38>)
200015e4:	681b      	ldr	r3, [r3, #0]
200015e6:	68db      	ldr	r3, [r3, #12]
200015e8:	685b      	ldr	r3, [r3, #4]
200015ea:	e001      	b.n	200015f0 <T_SAMPLE+0x24>
200015ec:	4b06      	ldr	r3, [pc, #24]	@ (20001608 <T_SAMPLE+0x3c>)
200015ee:	681b      	ldr	r3, [r3, #0]
200015f0:	687a      	ldr	r2, [r7, #4]
200015f2:	6812      	ldr	r2, [r2, #0]
200015f4:	1a9b      	subs	r3, r3, r2
}
200015f6:	4618      	mov	r0, r3
200015f8:	3714      	adds	r7, #20
200015fa:	46bd      	mov	sp, r7
200015fc:	f85d 7b04 	ldr.w	r7, [sp], #4
20001600:	4770      	bx	lr
20001602:	bf00      	nop
20001604:	2000964c 	.word	0x2000964c
20001608:	2001236c 	.word	0x2001236c

2000160c <CURRENT_OFFSET>:

Time CURRENT_OFFSET(void) {
2000160c:	b580      	push	{r7, lr}
2000160e:	b084      	sub	sp, #16
20001610:	af00      	add	r7, sp, #0
  __ASM volatile ("MRS %0, basepri_max" : "=r" (result) );
20001612:	f3ef 8312 	mrs	r3, BASEPRI_MAX
20001616:	607b      	str	r3, [r7, #4]
  return(result);
20001618:	687b      	ldr	r3, [r7, #4]
  Time now;
  char wasEnabled = ENABLED();
2000161a:	091b      	lsrs	r3, r3, #4
2000161c:	2b01      	cmp	r3, #1
2000161e:	bf14      	ite	ne
20001620:	2301      	movne	r3, #1
20001622:	2300      	moveq	r3, #0
20001624:	b2db      	uxtb	r3, r3
20001626:	73fb      	strb	r3, [r7, #15]
  DISABLE();
20001628:	f7ff fa98 	bl	20000b5c <sei>
  TIMERGET(now);
2000162c:	480c      	ldr	r0, [pc, #48]	@ (20001660 <CURRENT_OFFSET+0x54>)
2000162e:	f003 fecb 	bl	200053c8 <TIM_GetCounter>
20001632:	4603      	mov	r3, r0
20001634:	60bb      	str	r3, [r7, #8]
  ENABLE(wasEnabled);
20001636:	7bfb      	ldrb	r3, [r7, #15]
20001638:	2b00      	cmp	r3, #0
2000163a:	d001      	beq.n	20001640 <CURRENT_OFFSET+0x34>
2000163c:	f7ff fa9d 	bl	20000b7a <cli>
  return now - (wasEnabled ? current->msg->baseline : timestamp);
20001640:	7bfb      	ldrb	r3, [r7, #15]
20001642:	2b00      	cmp	r3, #0
20001644:	d004      	beq.n	20001650 <CURRENT_OFFSET+0x44>
20001646:	4b07      	ldr	r3, [pc, #28]	@ (20001664 <CURRENT_OFFSET+0x58>)
20001648:	681b      	ldr	r3, [r3, #0]
2000164a:	68db      	ldr	r3, [r3, #12]
2000164c:	685b      	ldr	r3, [r3, #4]
2000164e:	e001      	b.n	20001654 <CURRENT_OFFSET+0x48>
20001650:	4b05      	ldr	r3, [pc, #20]	@ (20001668 <CURRENT_OFFSET+0x5c>)
20001652:	681b      	ldr	r3, [r3, #0]
20001654:	68ba      	ldr	r2, [r7, #8]
20001656:	1ad3      	subs	r3, r2, r3
}
20001658:	4618      	mov	r0, r3
2000165a:	3710      	adds	r7, #16
2000165c:	46bd      	mov	sp, r7
2000165e:	bd80      	pop	{r7, pc}
20001660:	40000c00 	.word	0x40000c00
20001664:	2000964c 	.word	0x2000964c
20001668:	2001236c 	.word	0x2001236c

2000166c <initialize>:

/* initialization */
static void initialize(void) {
2000166c:	b580      	push	{r7, lr}
2000166e:	b082      	sub	sp, #8
20001670:	af00      	add	r7, sp, #0
  int i;

  for (i = 0; i < NMSGS - 1; i++)
20001672:	2300      	movs	r3, #0
20001674:	607b      	str	r3, [r7, #4]
20001676:	e012      	b.n	2000169e <initialize+0x32>
    messages[i].next = &messages[i + 1];
20001678:	687b      	ldr	r3, [r7, #4]
2000167a:	1c5a      	adds	r2, r3, #1
2000167c:	4613      	mov	r3, r2
2000167e:	005b      	lsls	r3, r3, #1
20001680:	4413      	add	r3, r2
20001682:	00db      	lsls	r3, r3, #3
20001684:	4a44      	ldr	r2, [pc, #272]	@ (20001798 <initialize+0x12c>)
20001686:	1899      	adds	r1, r3, r2
20001688:	4843      	ldr	r0, [pc, #268]	@ (20001798 <initialize+0x12c>)
2000168a:	687a      	ldr	r2, [r7, #4]
2000168c:	4613      	mov	r3, r2
2000168e:	005b      	lsls	r3, r3, #1
20001690:	4413      	add	r3, r2
20001692:	00db      	lsls	r3, r3, #3
20001694:	4403      	add	r3, r0
20001696:	6019      	str	r1, [r3, #0]
  for (i = 0; i < NMSGS - 1; i++)
20001698:	687b      	ldr	r3, [r7, #4]
2000169a:	3301      	adds	r3, #1
2000169c:	607b      	str	r3, [r7, #4]
2000169e:	687b      	ldr	r3, [r7, #4]
200016a0:	2b1c      	cmp	r3, #28
200016a2:	dde9      	ble.n	20001678 <initialize+0xc>
  messages[NMSGS - 1].next = NULL;
200016a4:	4b3c      	ldr	r3, [pc, #240]	@ (20001798 <initialize+0x12c>)
200016a6:	2200      	movs	r2, #0
200016a8:	f8c3 22b8 	str.w	r2, [r3, #696]	@ 0x2b8

  for (i = 0; i < NTHREADS - 1; i++)
200016ac:	2300      	movs	r3, #0
200016ae:	607b      	str	r3, [r7, #4]
200016b0:	e013      	b.n	200016da <initialize+0x6e>
    threads[i].next = &threads[i + 1];
200016b2:	687b      	ldr	r3, [r7, #4]
200016b4:	1c5a      	adds	r2, r3, #1
200016b6:	4613      	mov	r3, r2
200016b8:	009b      	lsls	r3, r3, #2
200016ba:	4413      	add	r3, r2
200016bc:	009b      	lsls	r3, r3, #2
200016be:	4a37      	ldr	r2, [pc, #220]	@ (2000179c <initialize+0x130>)
200016c0:	1899      	adds	r1, r3, r2
200016c2:	4836      	ldr	r0, [pc, #216]	@ (2000179c <initialize+0x130>)
200016c4:	687a      	ldr	r2, [r7, #4]
200016c6:	4613      	mov	r3, r2
200016c8:	009b      	lsls	r3, r3, #2
200016ca:	4413      	add	r3, r2
200016cc:	009b      	lsls	r3, r3, #2
200016ce:	4403      	add	r3, r0
200016d0:	3308      	adds	r3, #8
200016d2:	6019      	str	r1, [r3, #0]
  for (i = 0; i < NTHREADS - 1; i++)
200016d4:	687b      	ldr	r3, [r7, #4]
200016d6:	3301      	adds	r3, #1
200016d8:	607b      	str	r3, [r7, #4]
200016da:	687b      	ldr	r3, [r7, #4]
200016dc:	2b02      	cmp	r3, #2
200016de:	dde8      	ble.n	200016b2 <initialize+0x46>
  threads[NTHREADS - 1].next = NULL;
200016e0:	4b2e      	ldr	r3, [pc, #184]	@ (2000179c <initialize+0x130>)
200016e2:	2200      	movs	r2, #0
200016e4:	645a      	str	r2, [r3, #68]	@ 0x44

  for (i = 0; i < NTHREADS; i++) {
200016e6:	2300      	movs	r3, #0
200016e8:	607b      	str	r3, [r7, #4]
200016ea:	e030      	b.n	2000174e <initialize+0xe2>
    threads[i].thread_no = i;
200016ec:	492b      	ldr	r1, [pc, #172]	@ (2000179c <initialize+0x130>)
200016ee:	687a      	ldr	r2, [r7, #4]
200016f0:	4613      	mov	r3, r2
200016f2:	009b      	lsls	r3, r3, #2
200016f4:	4413      	add	r3, r2
200016f6:	009b      	lsls	r3, r3, #2
200016f8:	440b      	add	r3, r1
200016fa:	3304      	adds	r3, #4
200016fc:	687a      	ldr	r2, [r7, #4]
200016fe:	601a      	str	r2, [r3, #0]
    SETCONTEXT(threads[i].context);
    SETSTACK(&threads[i].context, &stacks[i]);
20001700:	687a      	ldr	r2, [r7, #4]
20001702:	4613      	mov	r3, r2
20001704:	009b      	lsls	r3, r3, #2
20001706:	4413      	add	r3, r2
20001708:	009b      	lsls	r3, r3, #2
2000170a:	4a24      	ldr	r2, [pc, #144]	@ (2000179c <initialize+0x130>)
2000170c:	441a      	add	r2, r3
2000170e:	687b      	ldr	r3, [r7, #4]
20001710:	035b      	lsls	r3, r3, #13
20001712:	4923      	ldr	r1, [pc, #140]	@ (200017a0 <initialize+0x134>)
20001714:	440b      	add	r3, r1
20001716:	4619      	mov	r1, r3
20001718:	4610      	mov	r0, r2
2000171a:	f7ff fa5f 	bl	20000bdc <SETSTACK>
    SETPC(&threads[i].context, run);
2000171e:	687a      	ldr	r2, [r7, #4]
20001720:	4613      	mov	r3, r2
20001722:	009b      	lsls	r3, r3, #2
20001724:	4413      	add	r3, r2
20001726:	009b      	lsls	r3, r3, #2
20001728:	4a1c      	ldr	r2, [pc, #112]	@ (2000179c <initialize+0x130>)
2000172a:	4413      	add	r3, r2
2000172c:	491d      	ldr	r1, [pc, #116]	@ (200017a4 <initialize+0x138>)
2000172e:	4618      	mov	r0, r3
20001730:	f7ff fa87 	bl	20000c42 <SETPC>
    threads[i].waitsFor = NULL;
20001734:	4919      	ldr	r1, [pc, #100]	@ (2000179c <initialize+0x130>)
20001736:	687a      	ldr	r2, [r7, #4]
20001738:	4613      	mov	r3, r2
2000173a:	009b      	lsls	r3, r3, #2
2000173c:	4413      	add	r3, r2
2000173e:	009b      	lsls	r3, r3, #2
20001740:	440b      	add	r3, r1
20001742:	3310      	adds	r3, #16
20001744:	2200      	movs	r2, #0
20001746:	601a      	str	r2, [r3, #0]
  for (i = 0; i < NTHREADS; i++) {
20001748:	687b      	ldr	r3, [r7, #4]
2000174a:	3301      	adds	r3, #1
2000174c:	607b      	str	r3, [r7, #4]
2000174e:	687b      	ldr	r3, [r7, #4]
20001750:	2b03      	cmp	r3, #3
20001752:	ddcb      	ble.n	200016ec <initialize+0x80>
  }

  thread0.thread_no = -1;
20001754:	4b14      	ldr	r3, [pc, #80]	@ (200017a8 <initialize+0x13c>)
20001756:	f04f 32ff 	mov.w	r2, #4294967295
2000175a:	605a      	str	r2, [r3, #4]
  thread0.next = NULL;
2000175c:	4b12      	ldr	r3, [pc, #72]	@ (200017a8 <initialize+0x13c>)
2000175e:	2200      	movs	r2, #0
20001760:	609a      	str	r2, [r3, #8]
  thread0.waitsFor = NULL;
20001762:	4b11      	ldr	r3, [pc, #68]	@ (200017a8 <initialize+0x13c>)
20001764:	2200      	movs	r2, #0
20001766:	611a      	str	r2, [r3, #16]
  thread0.msg = NULL;
20001768:	4b0f      	ldr	r3, [pc, #60]	@ (200017a8 <initialize+0x13c>)
2000176a:	2200      	movs	r2, #0
2000176c:	60da      	str	r2, [r3, #12]

  DUMP("\n\r");
2000176e:	480f      	ldr	r0, [pc, #60]	@ (200017ac <initialize+0x140>)
20001770:	f7ff f956 	bl	20000a20 <DUMP>
  DUMP("TinyTimber ");
20001774:	480e      	ldr	r0, [pc, #56]	@ (200017b0 <initialize+0x144>)
20001776:	f7ff f953 	bl	20000a20 <DUMP>
  DUMP(TINYTIMBER_VERSION);
2000177a:	480e      	ldr	r0, [pc, #56]	@ (200017b4 <initialize+0x148>)
2000177c:	f7ff f950 	bl	20000a20 <DUMP>
  DUMP("\n\r");
20001780:	480a      	ldr	r0, [pc, #40]	@ (200017ac <initialize+0x140>)
20001782:	f7ff f94d 	bl	20000a20 <DUMP>
  DUMP("\n\r");
20001786:	4809      	ldr	r0, [pc, #36]	@ (200017ac <initialize+0x140>)
20001788:	f7ff f94a 	bl	20000a20 <DUMP>

  TIMER_INIT();
2000178c:	f7ff fa6b 	bl	20000c66 <TIMER_INIT>
}
20001790:	bf00      	nop
20001792:	3708      	adds	r7, #8
20001794:	46bd      	mov	sp, r7
20001796:	bd80      	pop	{r7, pc}
20001798:	2000a024 	.word	0x2000a024
2000179c:	2000a2f4 	.word	0x2000a2f4
200017a0:	2000a348 	.word	0x2000a348
200017a4:	20001179 	.word	0x20001179
200017a8:	20012348 	.word	0x20012348
200017ac:	200083e0 	.word	0x200083e0
200017b0:	200083e4 	.word	0x200083e4
200017b4:	200083f0 	.word	0x200083f0

200017b8 <install>:

void install(Object *obj, Method m, enum Vector i) {
200017b8:	b580      	push	{r7, lr}
200017ba:	b086      	sub	sp, #24
200017bc:	af00      	add	r7, sp, #0
200017be:	60f8      	str	r0, [r7, #12]
200017c0:	60b9      	str	r1, [r7, #8]
200017c2:	4613      	mov	r3, r2
200017c4:	71fb      	strb	r3, [r7, #7]
  if (i >= 0 && i < N_VECTORS) {
200017c6:	79fb      	ldrb	r3, [r7, #7]
200017c8:	2b02      	cmp	r3, #2
200017ca:	d841      	bhi.n	20001850 <install+0x98>
  __ASM volatile ("MRS %0, basepri_max" : "=r" (result) );
200017cc:	f3ef 8312 	mrs	r3, BASEPRI_MAX
200017d0:	613b      	str	r3, [r7, #16]
  return(result);
200017d2:	693b      	ldr	r3, [r7, #16]
    char wasEnabled = ENABLED();
200017d4:	091b      	lsrs	r3, r3, #4
200017d6:	2b01      	cmp	r3, #1
200017d8:	bf14      	ite	ne
200017da:	2301      	movne	r3, #1
200017dc:	2300      	moveq	r3, #0
200017de:	b2db      	uxtb	r3, r3
200017e0:	75fb      	strb	r3, [r7, #23]
    DISABLE();
200017e2:	f7ff f9bb 	bl	20000b5c <sei>
    switch (i) {
200017e6:	79fb      	ldrb	r3, [r7, #7]
200017e8:	2b02      	cmp	r3, #2
200017ea:	d00e      	beq.n	2000180a <install+0x52>
200017ec:	2b02      	cmp	r3, #2
200017ee:	dc10      	bgt.n	20001812 <install+0x5a>
200017f0:	2b00      	cmp	r3, #0
200017f2:	d002      	beq.n	200017fa <install+0x42>
200017f4:	2b01      	cmp	r3, #1
200017f6:	d004      	beq.n	20001802 <install+0x4a>
200017f8:	e00b      	b.n	20001812 <install+0x5a>
    case IRQ_USART1:
      *((void (**)(void))USART1_IRQ_VECTOR) = vect_USART1;
200017fa:	4b17      	ldr	r3, [pc, #92]	@ (20001858 <install+0xa0>)
200017fc:	4a17      	ldr	r2, [pc, #92]	@ (2000185c <install+0xa4>)
200017fe:	601a      	str	r2, [r3, #0]
      break;
20001800:	e014      	b.n	2000182c <install+0x74>

    case IRQ_CAN1:
      *((void (**)(void))CAN1_IRQ_VECTOR) = vect_CAN1;
20001802:	4b17      	ldr	r3, [pc, #92]	@ (20001860 <install+0xa8>)
20001804:	4a17      	ldr	r2, [pc, #92]	@ (20001864 <install+0xac>)
20001806:	601a      	str	r2, [r3, #0]
      break;
20001808:	e010      	b.n	2000182c <install+0x74>

    case IRQ_EXTI9_5:
      *((void (**)(void))EXTI9_5_IRQ_VECTOR) = vect_EXTI9_5;
2000180a:	4b17      	ldr	r3, [pc, #92]	@ (20001868 <install+0xb0>)
2000180c:	4a17      	ldr	r2, [pc, #92]	@ (2000186c <install+0xb4>)
2000180e:	601a      	str	r2, [r3, #0]
      break;
20001810:	e00c      	b.n	2000182c <install+0x74>

    default:
      PANIC("Device IRQ not supported ...");
20001812:	4817      	ldr	r0, [pc, #92]	@ (20001870 <install+0xb8>)
20001814:	f7ff f904 	bl	20000a20 <DUMP>
20001818:	2200      	movs	r2, #0
2000181a:	2102      	movs	r1, #2
2000181c:	4815      	ldr	r0, [pc, #84]	@ (20001874 <install+0xbc>)
2000181e:	f002 fc9c 	bl	2000415a <GPIO_WriteBit>
20001822:	4815      	ldr	r0, [pc, #84]	@ (20001878 <install+0xc0>)
20001824:	f7ff f8fc 	bl	20000a20 <DUMP>
20001828:	bf30      	wfi
2000182a:	e7fd      	b.n	20001828 <install+0x70>
    }
    otable[i] = obj;
2000182c:	79fb      	ldrb	r3, [r7, #7]
2000182e:	4913      	ldr	r1, [pc, #76]	@ (2000187c <install+0xc4>)
20001830:	68fa      	ldr	r2, [r7, #12]
20001832:	f841 2023 	str.w	r2, [r1, r3, lsl #2]
    mtable[i] = m;
20001836:	79fb      	ldrb	r3, [r7, #7]
20001838:	4911      	ldr	r1, [pc, #68]	@ (20001880 <install+0xc8>)
2000183a:	68ba      	ldr	r2, [r7, #8]
2000183c:	f841 2023 	str.w	r2, [r1, r3, lsl #2]
    obj->wantedBy = INSTALLED_TAG; // Mark object as subject to synchronization
20001840:	68fb      	ldr	r3, [r7, #12]
20001842:	2201      	movs	r2, #1
20001844:	605a      	str	r2, [r3, #4]
                                   // by interrupt disabling
    ENABLE(wasEnabled);
20001846:	7dfb      	ldrb	r3, [r7, #23]
20001848:	2b00      	cmp	r3, #0
2000184a:	d001      	beq.n	20001850 <install+0x98>
2000184c:	f7ff f995 	bl	20000b7a <cli>
  }
}
20001850:	bf00      	nop
20001852:	3718      	adds	r7, #24
20001854:	46bd      	mov	sp, r7
20001856:	bd80      	pop	{r7, pc}
20001858:	2001c0d4 	.word	0x2001c0d4
2000185c:	20000d31 	.word	0x20000d31
20001860:	2001c090 	.word	0x2001c090
20001864:	20000d99 	.word	0x20000d99
20001868:	2001c09c 	.word	0x2001c09c
2000186c:	20000e01 	.word	0x20000e01
20001870:	200083bc 	.word	0x200083bc
20001874:	40020400 	.word	0x40020400
20001878:	20008408 	.word	0x20008408
2000187c:	20012384 	.word	0x20012384
20001880:	20012378 	.word	0x20012378

20001884 <tinytimber>:

int tinytimber(Object *obj, Method meth, int arg) {
20001884:	b580      	push	{r7, lr}
20001886:	b086      	sub	sp, #24
20001888:	af02      	add	r7, sp, #8
2000188a:	60f8      	str	r0, [r7, #12]
2000188c:	60b9      	str	r1, [r7, #8]
2000188e:	607a      	str	r2, [r7, #4]
  DISABLE();
20001890:	f7ff f964 	bl	20000b5c <sei>
  initialize();
20001894:	f7ff feea 	bl	2000166c <initialize>
  if (meth != NULL) {
20001898:	68bb      	ldr	r3, [r7, #8]
2000189a:	2b00      	cmp	r3, #0
2000189c:	d016      	beq.n	200018cc <tinytimber+0x48>
    TIMERGET(timestamp);
2000189e:	480f      	ldr	r0, [pc, #60]	@ (200018dc <tinytimber+0x58>)
200018a0:	f003 fd92 	bl	200053c8 <TIM_GetCounter>
200018a4:	4603      	mov	r3, r0
200018a6:	461a      	mov	r2, r3
200018a8:	4b0d      	ldr	r3, [pc, #52]	@ (200018e0 <tinytimber+0x5c>)
200018aa:	601a      	str	r2, [r3, #0]
    runAsHardware = 1;
200018ac:	4b0d      	ldr	r3, [pc, #52]	@ (200018e4 <tinytimber+0x60>)
200018ae:	2201      	movs	r2, #1
200018b0:	601a      	str	r2, [r3, #0]
    ASYNC(obj, meth, arg);
200018b2:	687b      	ldr	r3, [r7, #4]
200018b4:	9300      	str	r3, [sp, #0]
200018b6:	68bb      	ldr	r3, [r7, #8]
200018b8:	68fa      	ldr	r2, [r7, #12]
200018ba:	2100      	movs	r1, #0
200018bc:	2000      	movs	r0, #0
200018be:	f7ff fce9 	bl	20001294 <async>
    runAsHardware = 0;
200018c2:	4b08      	ldr	r3, [pc, #32]	@ (200018e4 <tinytimber+0x60>)
200018c4:	2200      	movs	r2, #0
200018c6:	601a      	str	r2, [r3, #0]
#ifdef __TRACE_SCHEDULE
    DUMP("schedule() in tinytimber()");
    DUMP("\n\r");
#endif
    schedule();
200018c8:	f7ff fcb2 	bl	20001230 <schedule>
  }
  idle();
200018cc:	f7ff fca8 	bl	20001220 <idle>
  return 0;
200018d0:	2300      	movs	r3, #0
}
200018d2:	4618      	mov	r0, r3
200018d4:	3710      	adds	r7, #16
200018d6:	46bd      	mov	sp, r7
200018d8:	bd80      	pop	{r7, pc}
200018da:	bf00      	nop
200018dc:	40000c00 	.word	0x40000c00
200018e0:	2001236c 	.word	0x2001236c
200018e4:	20012364 	.word	0x20012364

200018e8 <NVIC_EnableIRQ>:
{
200018e8:	b480      	push	{r7}
200018ea:	b083      	sub	sp, #12
200018ec:	af00      	add	r7, sp, #0
200018ee:	4603      	mov	r3, r0
200018f0:	71fb      	strb	r3, [r7, #7]
  NVIC->ISER[(uint32_t)((int32_t)IRQn) >> 5] = (uint32_t)(1 << ((uint32_t)((int32_t)IRQn) & (uint32_t)0x1F)); /* enable interrupt */
200018f2:	79fb      	ldrb	r3, [r7, #7]
200018f4:	f003 031f 	and.w	r3, r3, #31
200018f8:	2201      	movs	r2, #1
200018fa:	fa02 f103 	lsl.w	r1, r2, r3
200018fe:	4a06      	ldr	r2, [pc, #24]	@ (20001918 <NVIC_EnableIRQ+0x30>)
20001900:	f997 3007 	ldrsb.w	r3, [r7, #7]
20001904:	095b      	lsrs	r3, r3, #5
20001906:	f842 1023 	str.w	r1, [r2, r3, lsl #2]
}
2000190a:	bf00      	nop
2000190c:	370c      	adds	r7, #12
2000190e:	46bd      	mov	sp, r7
20001910:	f85d 7b04 	ldr.w	r7, [sp], #4
20001914:	4770      	bx	lr
20001916:	bf00      	nop
20001918:	e000e100 	.word	0xe000e100

2000191c <NVIC_SetPriority>:
{
2000191c:	b480      	push	{r7}
2000191e:	b083      	sub	sp, #12
20001920:	af00      	add	r7, sp, #0
20001922:	4603      	mov	r3, r0
20001924:	6039      	str	r1, [r7, #0]
20001926:	71fb      	strb	r3, [r7, #7]
  if(IRQn < 0) {
20001928:	f997 3007 	ldrsb.w	r3, [r7, #7]
2000192c:	2b00      	cmp	r3, #0
2000192e:	da0b      	bge.n	20001948 <NVIC_SetPriority+0x2c>
    SCB->SHP[((uint32_t)(IRQn) & 0xF)-4] = ((priority << (8 - __NVIC_PRIO_BITS)) & 0xff); } /* set Priority for Cortex-M  System Interrupts */
20001930:	683b      	ldr	r3, [r7, #0]
20001932:	b2da      	uxtb	r2, r3
20001934:	490c      	ldr	r1, [pc, #48]	@ (20001968 <NVIC_SetPriority+0x4c>)
20001936:	79fb      	ldrb	r3, [r7, #7]
20001938:	f003 030f 	and.w	r3, r3, #15
2000193c:	3b04      	subs	r3, #4
2000193e:	0112      	lsls	r2, r2, #4
20001940:	b2d2      	uxtb	r2, r2
20001942:	440b      	add	r3, r1
20001944:	761a      	strb	r2, [r3, #24]
}
20001946:	e009      	b.n	2000195c <NVIC_SetPriority+0x40>
    NVIC->IP[(uint32_t)(IRQn)] = ((priority << (8 - __NVIC_PRIO_BITS)) & 0xff);    }        /* set Priority for device specific Interrupts  */
20001948:	683b      	ldr	r3, [r7, #0]
2000194a:	b2da      	uxtb	r2, r3
2000194c:	4907      	ldr	r1, [pc, #28]	@ (2000196c <NVIC_SetPriority+0x50>)
2000194e:	f997 3007 	ldrsb.w	r3, [r7, #7]
20001952:	0112      	lsls	r2, r2, #4
20001954:	b2d2      	uxtb	r2, r2
20001956:	440b      	add	r3, r1
20001958:	f883 2300 	strb.w	r2, [r3, #768]	@ 0x300
}
2000195c:	bf00      	nop
2000195e:	370c      	adds	r7, #12
20001960:	46bd      	mov	sp, r7
20001962:	f85d 7b04 	ldr.w	r7, [sp], #4
20001966:	4770      	bx	lr
20001968:	e000ed00 	.word	0xe000ed00
2000196c:	e000e100 	.word	0xe000e100

20001970 <can_init>:
void DUMP(char *s);

//
// Initialize CAN controller
//
void can_init(Can *self, int unused) {
20001970:	b580      	push	{r7, lr}
20001972:	b086      	sub	sp, #24
20001974:	af00      	add	r7, sp, #0
20001976:	6078      	str	r0, [r7, #4]
20001978:	6039      	str	r1, [r7, #0]
  CAN_InitTypeDef CAN_InitStructure;

  self->count = self->head = self->tail = 0;
2000197a:	687b      	ldr	r3, [r7, #4]
2000197c:	2200      	movs	r2, #0
2000197e:	619a      	str	r2, [r3, #24]
20001980:	687b      	ldr	r3, [r7, #4]
20001982:	699a      	ldr	r2, [r3, #24]
20001984:	687b      	ldr	r3, [r7, #4]
20001986:	615a      	str	r2, [r3, #20]
20001988:	687b      	ldr	r3, [r7, #4]
2000198a:	695a      	ldr	r2, [r3, #20]
2000198c:	687b      	ldr	r3, [r7, #4]
2000198e:	61da      	str	r2, [r3, #28]
  //#define	__CAN_TxAck // if defined: single transmission, can_send() will
  // wait for message error or acknowledgement
  //  default: automatic retransmission, can_send() will not wait for message
  //  error or acknowledgement

  CAN_StructInit(&CAN_InitStructure);
20001990:	f107 030c 	add.w	r3, r7, #12
20001994:	4618      	mov	r0, r3
20001996:	f000 ffa5 	bl	200028e4 <CAN_StructInit>

  CAN_InitStructure.CAN_TTCM =
2000199a:	2300      	movs	r3, #0
2000199c:	74bb      	strb	r3, [r7, #18]
      DISABLE; // time-triggered communication mode = DISABLED
  CAN_InitStructure.CAN_ABOM =
2000199e:	2300      	movs	r3, #0
200019a0:	74fb      	strb	r3, [r7, #19]
      DISABLE; // automatic bus-off management mode = DISABLED
  CAN_InitStructure.CAN_AWUM = DISABLE; // automatic wake-up mode = DISABLED
200019a2:	2300      	movs	r3, #0
200019a4:	753b      	strb	r3, [r7, #20]
#ifdef __CAN_TxAck
  CAN_InitStructure.CAN_NART = ENABLE; // non-automatic retransmission mode =
                                       // ENABLED (single transmission)
  DUMP("NOTE: CAN running with Tx Ack!\n\r");
#else
  CAN_InitStructure.CAN_NART =
200019a6:	2300      	movs	r3, #0
200019a8:	757b      	strb	r3, [r7, #21]
      DISABLE; // non-automatic retransmission mode = DISABLED (retransmit until
               // error or ack)
#endif
  CAN_InitStructure.CAN_RFLM = DISABLE; // receive FIFO locked mode = DISABLED
200019aa:	2300      	movs	r3, #0
200019ac:	75bb      	strb	r3, [r7, #22]
  CAN_InitStructure.CAN_TXFP = DISABLE; // transmit FIFO priority = DISABLED
200019ae:	2300      	movs	r3, #0
200019b0:	75fb      	strb	r3, [r7, #23]
  CAN_InitStructure.CAN_Mode = CAN_Mode_Normal; // normal CAN mode
200019b2:	2300      	movs	r3, #0
200019b4:	73bb      	strb	r3, [r7, #14]
  // 42 MHz clock on APB1
  // Prescaler = 7 => time quanta tq = 1/6 us
  // Bit time = tq*(SJW + BS1 + BS2)
  // See figure 346 in F407 - Reference Manual.pdf
  //
  CAN_InitStructure.CAN_SJW = CAN_SJW_1tq; // synchronization jump width = 1
200019b6:	2300      	movs	r3, #0
200019b8:	73fb      	strb	r3, [r7, #15]
  CAN_InitStructure.CAN_BS1 = CAN_BS1_3tq;
200019ba:	2302      	movs	r3, #2
200019bc:	743b      	strb	r3, [r7, #16]
  CAN_InitStructure.CAN_BS2 = CAN_BS2_4tq;
200019be:	2303      	movs	r3, #3
200019c0:	747b      	strb	r3, [r7, #17]
  CAN_InitStructure.CAN_Prescaler = 7; // baudrate 750kbps
200019c2:	2307      	movs	r3, #7
200019c4:	81bb      	strh	r3, [r7, #12]

  if (CAN_Init(CAN1, &CAN_InitStructure) == CAN_InitStatus_Failed)
200019c6:	f107 030c 	add.w	r3, r7, #12
200019ca:	4619      	mov	r1, r3
200019cc:	4812      	ldr	r0, [pc, #72]	@ (20001a18 <can_init+0xa8>)
200019ce:	f000 fdf5 	bl	200025bc <CAN_Init>
200019d2:	4603      	mov	r3, r0
200019d4:	2b00      	cmp	r3, #0
200019d6:	d102      	bne.n	200019de <can_init+0x6e>
    DUMP("\n\rCAN #1 Init failed!\n\r");
200019d8:	4810      	ldr	r0, [pc, #64]	@ (20001a1c <can_init+0xac>)
200019da:	f7ff f821 	bl	20000a20 <DUMP>
  //	else
  //		DUMP("\n\rCAN #1 successful!\n\r");

  if (CAN_Init(CAN2, &CAN_InitStructure) == CAN_InitStatus_Failed)
200019de:	f107 030c 	add.w	r3, r7, #12
200019e2:	4619      	mov	r1, r3
200019e4:	480e      	ldr	r0, [pc, #56]	@ (20001a20 <can_init+0xb0>)
200019e6:	f000 fde9 	bl	200025bc <CAN_Init>
200019ea:	4603      	mov	r3, r0
200019ec:	2b00      	cmp	r3, #0
200019ee:	d102      	bne.n	200019f6 <can_init+0x86>
    DUMP("CAN #2 Init failed!\n\r");
200019f0:	480c      	ldr	r0, [pc, #48]	@ (20001a24 <can_init+0xb4>)
200019f2:	f7ff f815 	bl	20000a20 <DUMP>
  //	else
  //		DUMP("CAN #2 successful!\n\r");

  NVIC_SetPriority(CAN1_RX0_IRQn, __IRQ_PRIORITY);
200019f6:	2102      	movs	r1, #2
200019f8:	2014      	movs	r0, #20
200019fa:	f7ff ff8f 	bl	2000191c <NVIC_SetPriority>
  NVIC_EnableIRQ(CAN1_RX0_IRQn);
200019fe:	2014      	movs	r0, #20
20001a00:	f7ff ff72 	bl	200018e8 <NVIC_EnableIRQ>
  CAN_ITConfig(CAN1, CAN_IT_FMP0, ENABLE);
20001a04:	2201      	movs	r2, #1
20001a06:	2102      	movs	r1, #2
20001a08:	4803      	ldr	r0, [pc, #12]	@ (20001a18 <can_init+0xa8>)
20001a0a:	f001 fba9 	bl	20003160 <CAN_ITConfig>
}
20001a0e:	bf00      	nop
20001a10:	3718      	adds	r7, #24
20001a12:	46bd      	mov	sp, r7
20001a14:	bd80      	pop	{r7, pc}
20001a16:	bf00      	nop
20001a18:	40006400 	.word	0x40006400
20001a1c:	20008428 	.word	0x20008428
20001a20:	40006800 	.word	0x40006800
20001a24:	20008440 	.word	0x20008440

20001a28 <can_interrupt>:

//
// When a message is received on the can bus, store it in a software
// buffer, notify the listener and clear the receive interrupt.
//
void can_interrupt(Can *self, int unused) {
20001a28:	b5b0      	push	{r4, r5, r7, lr}
20001a2a:	b08a      	sub	sp, #40	@ 0x28
20001a2c:	af02      	add	r7, sp, #8
20001a2e:	6078      	str	r0, [r7, #4]
20001a30:	6039      	str	r1, [r7, #0]
  uchar index;

  if (CAN_GetFlagStatus(self->port, CAN_FLAG_FMP0) ==
20001a32:	687b      	ldr	r3, [r7, #4]
20001a34:	689b      	ldr	r3, [r3, #8]
20001a36:	495a      	ldr	r1, [pc, #360]	@ (20001ba0 <can_interrupt+0x178>)
20001a38:	4618      	mov	r0, r3
20001a3a:	f001 fbaf 	bl	2000319c <CAN_GetFlagStatus>
20001a3e:	4603      	mov	r3, r0
20001a40:	2b01      	cmp	r3, #1
20001a42:	d002      	beq.n	20001a4a <can_interrupt+0x22>
      SET) { // Data received in FIFO0
             //		DUMP("\n\rYay: A CAN #1 FIFO0 IRQ!\n\r");
  } else
    DUMP("\n\rStrange: Not a CAN #1 FIFO0 IRQ!\n\r");
20001a44:	4857      	ldr	r0, [pc, #348]	@ (20001ba4 <can_interrupt+0x17c>)
20001a46:	f7fe ffeb 	bl	20000a20 <DUMP>

  if (self->count < CAN_BUFSIZE) {
20001a4a:	687b      	ldr	r3, [r7, #4]
20001a4c:	69db      	ldr	r3, [r3, #28]
20001a4e:	2b07      	cmp	r3, #7
20001a50:	f300 809e 	bgt.w	20001b90 <can_interrupt+0x168>
    CanRxMsg RxMessage;

    CAN_Receive(self->port, CAN_FIFO0, &RxMessage);
20001a54:	687b      	ldr	r3, [r7, #4]
20001a56:	689b      	ldr	r3, [r3, #8]
20001a58:	f107 0208 	add.w	r2, r7, #8
20001a5c:	2100      	movs	r1, #0
20001a5e:	4618      	mov	r0, r3
20001a60:	f001 f984 	bl	20002d6c <CAN_Receive>

    self->iBuff[self->head].msgId = (RxMessage.StdId >> 4) & 0x7F;
20001a64:	68bb      	ldr	r3, [r7, #8]
20001a66:	091b      	lsrs	r3, r3, #4
20001a68:	b2db      	uxtb	r3, r3
20001a6a:	687a      	ldr	r2, [r7, #4]
20001a6c:	6952      	ldr	r2, [r2, #20]
20001a6e:	f003 037f 	and.w	r3, r3, #127	@ 0x7f
20001a72:	b2d8      	uxtb	r0, r3
20001a74:	6879      	ldr	r1, [r7, #4]
20001a76:	4613      	mov	r3, r2
20001a78:	009b      	lsls	r3, r3, #2
20001a7a:	4413      	add	r3, r2
20001a7c:	005b      	lsls	r3, r3, #1
20001a7e:	4413      	add	r3, r2
20001a80:	440b      	add	r3, r1
20001a82:	3320      	adds	r3, #32
20001a84:	4602      	mov	r2, r0
20001a86:	701a      	strb	r2, [r3, #0]
    self->iBuff[self->head].nodeId = RxMessage.StdId & 0x0F;
20001a88:	68bb      	ldr	r3, [r7, #8]
20001a8a:	b2db      	uxtb	r3, r3
20001a8c:	687a      	ldr	r2, [r7, #4]
20001a8e:	6952      	ldr	r2, [r2, #20]
20001a90:	f003 030f 	and.w	r3, r3, #15
20001a94:	b2d8      	uxtb	r0, r3
20001a96:	6879      	ldr	r1, [r7, #4]
20001a98:	4613      	mov	r3, r2
20001a9a:	009b      	lsls	r3, r3, #2
20001a9c:	4413      	add	r3, r2
20001a9e:	005b      	lsls	r3, r3, #1
20001aa0:	4413      	add	r3, r2
20001aa2:	440b      	add	r3, r1
20001aa4:	3321      	adds	r3, #33	@ 0x21
20001aa6:	4602      	mov	r2, r0
20001aa8:	701a      	strb	r2, [r3, #0]

    self->iBuff[self->head].length = (RxMessage.DLC & 0x0F);
20001aaa:	7cbb      	ldrb	r3, [r7, #18]
20001aac:	687a      	ldr	r2, [r7, #4]
20001aae:	6952      	ldr	r2, [r2, #20]
20001ab0:	f003 030f 	and.w	r3, r3, #15
20001ab4:	b2d8      	uxtb	r0, r3
20001ab6:	6879      	ldr	r1, [r7, #4]
20001ab8:	4613      	mov	r3, r2
20001aba:	009b      	lsls	r3, r3, #2
20001abc:	4413      	add	r3, r2
20001abe:	005b      	lsls	r3, r3, #1
20001ac0:	4413      	add	r3, r2
20001ac2:	440b      	add	r3, r1
20001ac4:	3322      	adds	r3, #34	@ 0x22
20001ac6:	4602      	mov	r2, r0
20001ac8:	701a      	strb	r2, [r3, #0]

    for (index = 0; index < self->iBuff[self->head].length; index++) {
20001aca:	2300      	movs	r3, #0
20001acc:	77fb      	strb	r3, [r7, #31]
20001ace:	e015      	b.n	20001afc <can_interrupt+0xd4>
      // Get received data
      self->iBuff[self->head].buff[index] = RxMessage.Data[index];
20001ad0:	7ffb      	ldrb	r3, [r7, #31]
20001ad2:	687a      	ldr	r2, [r7, #4]
20001ad4:	6952      	ldr	r2, [r2, #20]
20001ad6:	7ff9      	ldrb	r1, [r7, #31]
20001ad8:	3320      	adds	r3, #32
20001ada:	443b      	add	r3, r7
20001adc:	f813 4c0d 	ldrb.w	r4, [r3, #-13]
20001ae0:	6878      	ldr	r0, [r7, #4]
20001ae2:	4613      	mov	r3, r2
20001ae4:	009b      	lsls	r3, r3, #2
20001ae6:	4413      	add	r3, r2
20001ae8:	005b      	lsls	r3, r3, #1
20001aea:	4413      	add	r3, r2
20001aec:	4403      	add	r3, r0
20001aee:	440b      	add	r3, r1
20001af0:	3323      	adds	r3, #35	@ 0x23
20001af2:	4622      	mov	r2, r4
20001af4:	701a      	strb	r2, [r3, #0]
    for (index = 0; index < self->iBuff[self->head].length; index++) {
20001af6:	7ffb      	ldrb	r3, [r7, #31]
20001af8:	3301      	adds	r3, #1
20001afa:	77fb      	strb	r3, [r7, #31]
20001afc:	687b      	ldr	r3, [r7, #4]
20001afe:	695a      	ldr	r2, [r3, #20]
20001b00:	6879      	ldr	r1, [r7, #4]
20001b02:	4613      	mov	r3, r2
20001b04:	009b      	lsls	r3, r3, #2
20001b06:	4413      	add	r3, r2
20001b08:	005b      	lsls	r3, r3, #1
20001b0a:	4413      	add	r3, r2
20001b0c:	440b      	add	r3, r1
20001b0e:	3322      	adds	r3, #34	@ 0x22
20001b10:	781b      	ldrb	r3, [r3, #0]
20001b12:	7ffa      	ldrb	r2, [r7, #31]
20001b14:	429a      	cmp	r2, r3
20001b16:	d3db      	bcc.n	20001ad0 <can_interrupt+0xa8>
    }

    if (self->obj) {
20001b18:	687b      	ldr	r3, [r7, #4]
20001b1a:	68db      	ldr	r3, [r3, #12]
20001b1c:	2b00      	cmp	r3, #0
20001b1e:	d025      	beq.n	20001b6c <can_interrupt+0x144>
      ASYNC(self->obj, self->meth,
20001b20:	687b      	ldr	r3, [r7, #4]
20001b22:	68dc      	ldr	r4, [r3, #12]
20001b24:	687b      	ldr	r3, [r7, #4]
20001b26:	691d      	ldr	r5, [r3, #16]
20001b28:	687b      	ldr	r3, [r7, #4]
20001b2a:	695a      	ldr	r2, [r3, #20]
20001b2c:	6879      	ldr	r1, [r7, #4]
20001b2e:	4613      	mov	r3, r2
20001b30:	009b      	lsls	r3, r3, #2
20001b32:	4413      	add	r3, r2
20001b34:	005b      	lsls	r3, r3, #1
20001b36:	4413      	add	r3, r2
20001b38:	440b      	add	r3, r1
20001b3a:	3320      	adds	r3, #32
20001b3c:	781b      	ldrb	r3, [r3, #0]
20001b3e:	0119      	lsls	r1, r3, #4
20001b40:	687b      	ldr	r3, [r7, #4]
20001b42:	695a      	ldr	r2, [r3, #20]
20001b44:	6878      	ldr	r0, [r7, #4]
20001b46:	4613      	mov	r3, r2
20001b48:	009b      	lsls	r3, r3, #2
20001b4a:	4413      	add	r3, r2
20001b4c:	005b      	lsls	r3, r3, #1
20001b4e:	4413      	add	r3, r2
20001b50:	4403      	add	r3, r0
20001b52:	3321      	adds	r3, #33	@ 0x21
20001b54:	781b      	ldrb	r3, [r3, #0]
20001b56:	440b      	add	r3, r1
20001b58:	9300      	str	r3, [sp, #0]
20001b5a:	462b      	mov	r3, r5
20001b5c:	4622      	mov	r2, r4
20001b5e:	2100      	movs	r1, #0
20001b60:	2000      	movs	r0, #0
20001b62:	f7ff fb97 	bl	20001294 <async>
            (self->iBuff[self->head].msgId << 4) +
                self->iBuff[self->head].nodeId);
      doIRQSchedule = 1;
20001b66:	4b10      	ldr	r3, [pc, #64]	@ (20001ba8 <can_interrupt+0x180>)
20001b68:	2201      	movs	r2, #1
20001b6a:	601a      	str	r2, [r3, #0]
    }

    self->head = (self->head + 1) % CAN_BUFSIZE;
20001b6c:	687b      	ldr	r3, [r7, #4]
20001b6e:	695b      	ldr	r3, [r3, #20]
20001b70:	3301      	adds	r3, #1
20001b72:	425a      	negs	r2, r3
20001b74:	f003 0307 	and.w	r3, r3, #7
20001b78:	f002 0207 	and.w	r2, r2, #7
20001b7c:	bf58      	it	pl
20001b7e:	4253      	negpl	r3, r2
20001b80:	687a      	ldr	r2, [r7, #4]
20001b82:	6153      	str	r3, [r2, #20]
    self->count++;
20001b84:	687b      	ldr	r3, [r7, #4]
20001b86:	69db      	ldr	r3, [r3, #28]
20001b88:	1c5a      	adds	r2, r3, #1
20001b8a:	687b      	ldr	r3, [r7, #4]
20001b8c:	61da      	str	r2, [r3, #28]
  } else {
    DUMP("\n\rStrange: CAN #1 FIFO0 Full!\n\r");
    // Handle full buffers
    // Now just discards message
  }
}
20001b8e:	e002      	b.n	20001b96 <can_interrupt+0x16e>
    DUMP("\n\rStrange: CAN #1 FIFO0 Full!\n\r");
20001b90:	4806      	ldr	r0, [pc, #24]	@ (20001bac <can_interrupt+0x184>)
20001b92:	f7fe ff45 	bl	20000a20 <DUMP>
}
20001b96:	bf00      	nop
20001b98:	3720      	adds	r7, #32
20001b9a:	46bd      	mov	sp, r7
20001b9c:	bdb0      	pop	{r4, r5, r7, pc}
20001b9e:	bf00      	nop
20001ba0:	12000003 	.word	0x12000003
20001ba4:	20008458 	.word	0x20008458
20001ba8:	20012368 	.word	0x20012368
20001bac:	20008480 	.word	0x20008480

20001bb0 <can_receive>:

//
// Copy the first message from the software buffer to the supplied
// message data structure.
//
int can_receive(Can *self, CANMsg *msg) {
20001bb0:	b490      	push	{r4, r7}
20001bb2:	b084      	sub	sp, #16
20001bb4:	af00      	add	r7, sp, #0
20001bb6:	6078      	str	r0, [r7, #4]
20001bb8:	6039      	str	r1, [r7, #0]
  uchar index;

  if (self->count > 0) {
20001bba:	687b      	ldr	r3, [r7, #4]
20001bbc:	69db      	ldr	r3, [r3, #28]
20001bbe:	2b00      	cmp	r3, #0
20001bc0:	dd55      	ble.n	20001c6e <can_receive+0xbe>
    msg->msgId = self->iBuff[self->tail].msgId;
20001bc2:	687b      	ldr	r3, [r7, #4]
20001bc4:	699a      	ldr	r2, [r3, #24]
20001bc6:	6879      	ldr	r1, [r7, #4]
20001bc8:	4613      	mov	r3, r2
20001bca:	009b      	lsls	r3, r3, #2
20001bcc:	4413      	add	r3, r2
20001bce:	005b      	lsls	r3, r3, #1
20001bd0:	4413      	add	r3, r2
20001bd2:	440b      	add	r3, r1
20001bd4:	3320      	adds	r3, #32
20001bd6:	781a      	ldrb	r2, [r3, #0]
20001bd8:	683b      	ldr	r3, [r7, #0]
20001bda:	701a      	strb	r2, [r3, #0]
    msg->nodeId = self->iBuff[self->tail].nodeId;
20001bdc:	687b      	ldr	r3, [r7, #4]
20001bde:	699a      	ldr	r2, [r3, #24]
20001be0:	6879      	ldr	r1, [r7, #4]
20001be2:	4613      	mov	r3, r2
20001be4:	009b      	lsls	r3, r3, #2
20001be6:	4413      	add	r3, r2
20001be8:	005b      	lsls	r3, r3, #1
20001bea:	4413      	add	r3, r2
20001bec:	440b      	add	r3, r1
20001bee:	3321      	adds	r3, #33	@ 0x21
20001bf0:	781a      	ldrb	r2, [r3, #0]
20001bf2:	683b      	ldr	r3, [r7, #0]
20001bf4:	705a      	strb	r2, [r3, #1]
    msg->length = self->iBuff[self->tail].length;
20001bf6:	687b      	ldr	r3, [r7, #4]
20001bf8:	699a      	ldr	r2, [r3, #24]
20001bfa:	6879      	ldr	r1, [r7, #4]
20001bfc:	4613      	mov	r3, r2
20001bfe:	009b      	lsls	r3, r3, #2
20001c00:	4413      	add	r3, r2
20001c02:	005b      	lsls	r3, r3, #1
20001c04:	4413      	add	r3, r2
20001c06:	440b      	add	r3, r1
20001c08:	3322      	adds	r3, #34	@ 0x22
20001c0a:	781a      	ldrb	r2, [r3, #0]
20001c0c:	683b      	ldr	r3, [r7, #0]
20001c0e:	709a      	strb	r2, [r3, #2]

    // Get received data
    for (index = 0; index < msg->length; index++) {
20001c10:	2300      	movs	r3, #0
20001c12:	73fb      	strb	r3, [r7, #15]
20001c14:	e013      	b.n	20001c3e <can_receive+0x8e>
      msg->buff[index] = self->iBuff[self->tail].buff[index];
20001c16:	687b      	ldr	r3, [r7, #4]
20001c18:	699a      	ldr	r2, [r3, #24]
20001c1a:	7bf8      	ldrb	r0, [r7, #15]
20001c1c:	7bf9      	ldrb	r1, [r7, #15]
20001c1e:	687c      	ldr	r4, [r7, #4]
20001c20:	4613      	mov	r3, r2
20001c22:	009b      	lsls	r3, r3, #2
20001c24:	4413      	add	r3, r2
20001c26:	005b      	lsls	r3, r3, #1
20001c28:	4413      	add	r3, r2
20001c2a:	4423      	add	r3, r4
20001c2c:	4403      	add	r3, r0
20001c2e:	3323      	adds	r3, #35	@ 0x23
20001c30:	781a      	ldrb	r2, [r3, #0]
20001c32:	683b      	ldr	r3, [r7, #0]
20001c34:	440b      	add	r3, r1
20001c36:	70da      	strb	r2, [r3, #3]
    for (index = 0; index < msg->length; index++) {
20001c38:	7bfb      	ldrb	r3, [r7, #15]
20001c3a:	3301      	adds	r3, #1
20001c3c:	73fb      	strb	r3, [r7, #15]
20001c3e:	683b      	ldr	r3, [r7, #0]
20001c40:	789b      	ldrb	r3, [r3, #2]
20001c42:	7bfa      	ldrb	r2, [r7, #15]
20001c44:	429a      	cmp	r2, r3
20001c46:	d3e6      	bcc.n	20001c16 <can_receive+0x66>
    }

    self->tail = (self->tail + 1) % CAN_BUFSIZE;
20001c48:	687b      	ldr	r3, [r7, #4]
20001c4a:	699b      	ldr	r3, [r3, #24]
20001c4c:	3301      	adds	r3, #1
20001c4e:	425a      	negs	r2, r3
20001c50:	f003 0307 	and.w	r3, r3, #7
20001c54:	f002 0207 	and.w	r2, r2, #7
20001c58:	bf58      	it	pl
20001c5a:	4253      	negpl	r3, r2
20001c5c:	687a      	ldr	r2, [r7, #4]
20001c5e:	6193      	str	r3, [r2, #24]
    self->count--;
20001c60:	687b      	ldr	r3, [r7, #4]
20001c62:	69db      	ldr	r3, [r3, #28]
20001c64:	1e5a      	subs	r2, r3, #1
20001c66:	687b      	ldr	r3, [r7, #4]
20001c68:	61da      	str	r2, [r3, #28]
    return 0;
20001c6a:	2300      	movs	r3, #0
20001c6c:	e000      	b.n	20001c70 <can_receive+0xc0>
  }
  return 1;
20001c6e:	2301      	movs	r3, #1
}
20001c70:	4618      	mov	r0, r3
20001c72:	3710      	adds	r7, #16
20001c74:	46bd      	mov	sp, r7
20001c76:	bc90      	pop	{r4, r7}
20001c78:	4770      	bx	lr

20001c7a <can_send>:

//
// Copy the given message to a transmit buffer and send the message
//
int can_send(Can *self, CANMsg *msg) {
20001c7a:	b580      	push	{r7, lr}
20001c7c:	b08a      	sub	sp, #40	@ 0x28
20001c7e:	af00      	add	r7, sp, #0
20001c80:	6078      	str	r0, [r7, #4]
20001c82:	6039      	str	r1, [r7, #0]
  uchar index;
  CAN_TypeDef *canport = self->port;
20001c84:	687b      	ldr	r3, [r7, #4]
20001c86:	689b      	ldr	r3, [r3, #8]
20001c88:	623b      	str	r3, [r7, #32]
  CanTxMsg TxMessage;
  uint8_t TransmitMailbox = 0;
20001c8a:	2300      	movs	r3, #0
20001c8c:	77fb      	strb	r3, [r7, #31]
#ifdef __CAN_LOOPBACK
  canport = CAN2;
#endif

  // set the transmit ID, standard identifiers are used, combine IDs
  TxMessage.StdId = (msg->msgId << 4) + msg->nodeId;
20001c8e:	683b      	ldr	r3, [r7, #0]
20001c90:	781b      	ldrb	r3, [r3, #0]
20001c92:	011b      	lsls	r3, r3, #4
20001c94:	683a      	ldr	r2, [r7, #0]
20001c96:	7852      	ldrb	r2, [r2, #1]
20001c98:	4413      	add	r3, r2
20001c9a:	60bb      	str	r3, [r7, #8]
  TxMessage.RTR = CAN_RTR_Data;
20001c9c:	2300      	movs	r3, #0
20001c9e:	747b      	strb	r3, [r7, #17]
  TxMessage.IDE = CAN_Id_Standard;
20001ca0:	2300      	movs	r3, #0
20001ca2:	743b      	strb	r3, [r7, #16]
  if (msg->length > 8)
20001ca4:	683b      	ldr	r3, [r7, #0]
20001ca6:	789b      	ldrb	r3, [r3, #2]
20001ca8:	2b08      	cmp	r3, #8
20001caa:	d902      	bls.n	20001cb2 <can_send+0x38>
    msg->length = 8;
20001cac:	683b      	ldr	r3, [r7, #0]
20001cae:	2208      	movs	r2, #8
20001cb0:	709a      	strb	r2, [r3, #2]
  TxMessage.DLC = msg->length; // set number of bytes to send
20001cb2:	683b      	ldr	r3, [r7, #0]
20001cb4:	789b      	ldrb	r3, [r3, #2]
20001cb6:	74bb      	strb	r3, [r7, #18]

  for (index = 0; index < msg->length; index++) {
20001cb8:	2300      	movs	r3, #0
20001cba:	f887 3027 	strb.w	r3, [r7, #39]	@ 0x27
20001cbe:	e00f      	b.n	20001ce0 <can_send+0x66>
    TxMessage.Data[index] = msg->buff[index]; // copy data to buffer
20001cc0:	f897 2027 	ldrb.w	r2, [r7, #39]	@ 0x27
20001cc4:	f897 3027 	ldrb.w	r3, [r7, #39]	@ 0x27
20001cc8:	6839      	ldr	r1, [r7, #0]
20001cca:	440a      	add	r2, r1
20001ccc:	78d2      	ldrb	r2, [r2, #3]
20001cce:	3328      	adds	r3, #40	@ 0x28
20001cd0:	443b      	add	r3, r7
20001cd2:	f803 2c15 	strb.w	r2, [r3, #-21]
  for (index = 0; index < msg->length; index++) {
20001cd6:	f897 3027 	ldrb.w	r3, [r7, #39]	@ 0x27
20001cda:	3301      	adds	r3, #1
20001cdc:	f887 3027 	strb.w	r3, [r7, #39]	@ 0x27
20001ce0:	683b      	ldr	r3, [r7, #0]
20001ce2:	789b      	ldrb	r3, [r3, #2]
20001ce4:	f897 2027 	ldrb.w	r2, [r7, #39]	@ 0x27
20001ce8:	429a      	cmp	r2, r3
20001cea:	d3e9      	bcc.n	20001cc0 <can_send+0x46>
  }

  TransmitMailbox = CAN_Transmit(canport, &TxMessage);
20001cec:	f107 0308 	add.w	r3, r7, #8
20001cf0:	4619      	mov	r1, r3
20001cf2:	6a38      	ldr	r0, [r7, #32]
20001cf4:	f000 feba 	bl	20002a6c <CAN_Transmit>
20001cf8:	4603      	mov	r3, r0
20001cfa:	77fb      	strb	r3, [r7, #31]

  if (TransmitMailbox == CAN_TxStatus_NoMailBox) {
20001cfc:	7ffb      	ldrb	r3, [r7, #31]
20001cfe:	2b04      	cmp	r3, #4
20001d00:	d104      	bne.n	20001d0c <can_send+0x92>
    DUMP("CAN TxBuf full!\n\r");
20001d02:	4805      	ldr	r0, [pc, #20]	@ (20001d18 <can_send+0x9e>)
20001d04:	f7fe fe8c 	bl	20000a20 <DUMP>
    return 1;
20001d08:	2301      	movs	r3, #1
20001d0a:	e000      	b.n	20001d0e <can_send+0x94>
    DUMP("CAN Tx fail!\n\r");
    return 1;
  }
#endif

  return 0;
20001d0c:	2300      	movs	r3, #0
}
20001d0e:	4618      	mov	r0, r3
20001d10:	3728      	adds	r7, #40	@ 0x28
20001d12:	46bd      	mov	sp, r7
20001d14:	bd80      	pop	{r7, pc}
20001d16:	bf00      	nop
20001d18:	200084a0 	.word	0x200084a0

20001d1c <NVIC_EnableIRQ>:
{
20001d1c:	b480      	push	{r7}
20001d1e:	b083      	sub	sp, #12
20001d20:	af00      	add	r7, sp, #0
20001d22:	4603      	mov	r3, r0
20001d24:	71fb      	strb	r3, [r7, #7]
  NVIC->ISER[(uint32_t)((int32_t)IRQn) >> 5] = (uint32_t)(1 << ((uint32_t)((int32_t)IRQn) & (uint32_t)0x1F)); /* enable interrupt */
20001d26:	79fb      	ldrb	r3, [r7, #7]
20001d28:	f003 031f 	and.w	r3, r3, #31
20001d2c:	2201      	movs	r2, #1
20001d2e:	fa02 f103 	lsl.w	r1, r2, r3
20001d32:	4a06      	ldr	r2, [pc, #24]	@ (20001d4c <NVIC_EnableIRQ+0x30>)
20001d34:	f997 3007 	ldrsb.w	r3, [r7, #7]
20001d38:	095b      	lsrs	r3, r3, #5
20001d3a:	f842 1023 	str.w	r1, [r2, r3, lsl #2]
}
20001d3e:	bf00      	nop
20001d40:	370c      	adds	r7, #12
20001d42:	46bd      	mov	sp, r7
20001d44:	f85d 7b04 	ldr.w	r7, [sp], #4
20001d48:	4770      	bx	lr
20001d4a:	bf00      	nop
20001d4c:	e000e100 	.word	0xe000e100

20001d50 <NVIC_SetPriority>:
{
20001d50:	b480      	push	{r7}
20001d52:	b083      	sub	sp, #12
20001d54:	af00      	add	r7, sp, #0
20001d56:	4603      	mov	r3, r0
20001d58:	6039      	str	r1, [r7, #0]
20001d5a:	71fb      	strb	r3, [r7, #7]
  if(IRQn < 0) {
20001d5c:	f997 3007 	ldrsb.w	r3, [r7, #7]
20001d60:	2b00      	cmp	r3, #0
20001d62:	da0b      	bge.n	20001d7c <NVIC_SetPriority+0x2c>
    SCB->SHP[((uint32_t)(IRQn) & 0xF)-4] = ((priority << (8 - __NVIC_PRIO_BITS)) & 0xff); } /* set Priority for Cortex-M  System Interrupts */
20001d64:	683b      	ldr	r3, [r7, #0]
20001d66:	b2da      	uxtb	r2, r3
20001d68:	490c      	ldr	r1, [pc, #48]	@ (20001d9c <NVIC_SetPriority+0x4c>)
20001d6a:	79fb      	ldrb	r3, [r7, #7]
20001d6c:	f003 030f 	and.w	r3, r3, #15
20001d70:	3b04      	subs	r3, #4
20001d72:	0112      	lsls	r2, r2, #4
20001d74:	b2d2      	uxtb	r2, r2
20001d76:	440b      	add	r3, r1
20001d78:	761a      	strb	r2, [r3, #24]
}
20001d7a:	e009      	b.n	20001d90 <NVIC_SetPriority+0x40>
    NVIC->IP[(uint32_t)(IRQn)] = ((priority << (8 - __NVIC_PRIO_BITS)) & 0xff);    }        /* set Priority for device specific Interrupts  */
20001d7c:	683b      	ldr	r3, [r7, #0]
20001d7e:	b2da      	uxtb	r2, r3
20001d80:	4907      	ldr	r1, [pc, #28]	@ (20001da0 <NVIC_SetPriority+0x50>)
20001d82:	f997 3007 	ldrsb.w	r3, [r7, #7]
20001d86:	0112      	lsls	r2, r2, #4
20001d88:	b2d2      	uxtb	r2, r2
20001d8a:	440b      	add	r3, r1
20001d8c:	f883 2300 	strb.w	r2, [r3, #768]	@ 0x300
}
20001d90:	bf00      	nop
20001d92:	370c      	adds	r7, #12
20001d94:	46bd      	mov	sp, r7
20001d96:	f85d 7b04 	ldr.w	r7, [sp], #4
20001d9a:	4770      	bx	lr
20001d9c:	e000ed00 	.word	0xe000ed00
20001da0:	e000e100 	.word	0xe000e100

20001da4 <sci_init>:
#include "sciTinyTimber.h"
#include "TinyTimber.h"

void sci_init(Serial *self, int unused) {
20001da4:	b580      	push	{r7, lr}
20001da6:	b082      	sub	sp, #8
20001da8:	af00      	add	r7, sp, #0
20001daa:	6078      	str	r0, [r7, #4]
20001dac:	6039      	str	r1, [r7, #0]
  self->count = self->head = self->tail = 0;
20001dae:	687b      	ldr	r3, [r7, #4]
20001db0:	2200      	movs	r2, #0
20001db2:	619a      	str	r2, [r3, #24]
20001db4:	687b      	ldr	r3, [r7, #4]
20001db6:	699a      	ldr	r2, [r3, #24]
20001db8:	687b      	ldr	r3, [r7, #4]
20001dba:	615a      	str	r2, [r3, #20]
20001dbc:	687b      	ldr	r3, [r7, #4]
20001dbe:	695a      	ldr	r2, [r3, #20]
20001dc0:	687b      	ldr	r3, [r7, #4]
20001dc2:	61da      	str	r2, [r3, #28]

  USART_ITConfig(USART1, USART_IT_RXNE, ENABLE);
20001dc4:	2201      	movs	r2, #1
20001dc6:	f240 5125 	movw	r1, #1317	@ 0x525
20001dca:	480a      	ldr	r0, [pc, #40]	@ (20001df4 <sci_init+0x50>)
20001dcc:	f005 fb22 	bl	20007414 <USART_ITConfig>
  USART_ITConfig(USART1, USART_IT_TXE, DISABLE);
20001dd0:	2200      	movs	r2, #0
20001dd2:	f240 7127 	movw	r1, #1831	@ 0x727
20001dd6:	4807      	ldr	r0, [pc, #28]	@ (20001df4 <sci_init+0x50>)
20001dd8:	f005 fb1c 	bl	20007414 <USART_ITConfig>
  NVIC_SetPriority(USART1_IRQn, __IRQ_PRIORITY);
20001ddc:	2102      	movs	r1, #2
20001dde:	2025      	movs	r0, #37	@ 0x25
20001de0:	f7ff ffb6 	bl	20001d50 <NVIC_SetPriority>
  NVIC_EnableIRQ(USART1_IRQn);
20001de4:	2025      	movs	r0, #37	@ 0x25
20001de6:	f7ff ff99 	bl	20001d1c <NVIC_EnableIRQ>
}
20001dea:	bf00      	nop
20001dec:	3708      	adds	r7, #8
20001dee:	46bd      	mov	sp, r7
20001df0:	bd80      	pop	{r7, pc}
20001df2:	bf00      	nop
20001df4:	40011000 	.word	0x40011000

20001df8 <outc>:

static void outc(Serial *self, char c) {
20001df8:	b480      	push	{r7}
20001dfa:	b083      	sub	sp, #12
20001dfc:	af00      	add	r7, sp, #0
20001dfe:	6078      	str	r0, [r7, #4]
20001e00:	460b      	mov	r3, r1
20001e02:	70fb      	strb	r3, [r7, #3]
  if (self->count < SCI_BUFSIZE) {
20001e04:	687b      	ldr	r3, [r7, #4]
20001e06:	69db      	ldr	r3, [r3, #28]
20001e08:	f5b3 6f80 	cmp.w	r3, #1024	@ 0x400
20001e0c:	da17      	bge.n	20001e3e <outc+0x46>
    self->buf[self->head] = c;
20001e0e:	687b      	ldr	r3, [r7, #4]
20001e10:	695b      	ldr	r3, [r3, #20]
20001e12:	687a      	ldr	r2, [r7, #4]
20001e14:	4413      	add	r3, r2
20001e16:	78fa      	ldrb	r2, [r7, #3]
20001e18:	f883 2020 	strb.w	r2, [r3, #32]
    self->head = (self->head + 1) % SCI_BUFSIZE;
20001e1c:	687b      	ldr	r3, [r7, #4]
20001e1e:	695b      	ldr	r3, [r3, #20]
20001e20:	3301      	adds	r3, #1
20001e22:	425a      	negs	r2, r3
20001e24:	f3c3 0309 	ubfx	r3, r3, #0, #10
20001e28:	f3c2 0209 	ubfx	r2, r2, #0, #10
20001e2c:	bf58      	it	pl
20001e2e:	4253      	negpl	r3, r2
20001e30:	687a      	ldr	r2, [r7, #4]
20001e32:	6153      	str	r3, [r2, #20]
    self->count++;
20001e34:	687b      	ldr	r3, [r7, #4]
20001e36:	69db      	ldr	r3, [r3, #28]
20001e38:	1c5a      	adds	r2, r3, #1
20001e3a:	687b      	ldr	r3, [r7, #4]
20001e3c:	61da      	str	r2, [r3, #28]
  }
  //	else
  //		Should handle overflow;
}
20001e3e:	bf00      	nop
20001e40:	370c      	adds	r7, #12
20001e42:	46bd      	mov	sp, r7
20001e44:	f85d 7b04 	ldr.w	r7, [sp], #4
20001e48:	4770      	bx	lr

20001e4a <sci_write>:

void sci_write(Serial *self, char *p) {
20001e4a:	b580      	push	{r7, lr}
20001e4c:	b082      	sub	sp, #8
20001e4e:	af00      	add	r7, sp, #0
20001e50:	6078      	str	r0, [r7, #4]
20001e52:	6039      	str	r1, [r7, #0]
  if (self->count == 0)
20001e54:	687b      	ldr	r3, [r7, #4]
20001e56:	69db      	ldr	r3, [r3, #28]
20001e58:	2b00      	cmp	r3, #0
20001e5a:	d118      	bne.n	20001e8e <sci_write+0x44>
    USART_ITConfig(self->port, USART_IT_TXE, ENABLE);
20001e5c:	687b      	ldr	r3, [r7, #4]
20001e5e:	689b      	ldr	r3, [r3, #8]
20001e60:	2201      	movs	r2, #1
20001e62:	f240 7127 	movw	r1, #1831	@ 0x727
20001e66:	4618      	mov	r0, r3
20001e68:	f005 fad4 	bl	20007414 <USART_ITConfig>

  while (*p != '\0') {
20001e6c:	e00f      	b.n	20001e8e <sci_write+0x44>
    if (*p == '\n')
20001e6e:	683b      	ldr	r3, [r7, #0]
20001e70:	781b      	ldrb	r3, [r3, #0]
20001e72:	2b0a      	cmp	r3, #10
20001e74:	d103      	bne.n	20001e7e <sci_write+0x34>
      outc(self, '\r');
20001e76:	210d      	movs	r1, #13
20001e78:	6878      	ldr	r0, [r7, #4]
20001e7a:	f7ff ffbd 	bl	20001df8 <outc>
    outc(self, *p++);
20001e7e:	683b      	ldr	r3, [r7, #0]
20001e80:	1c5a      	adds	r2, r3, #1
20001e82:	603a      	str	r2, [r7, #0]
20001e84:	781b      	ldrb	r3, [r3, #0]
20001e86:	4619      	mov	r1, r3
20001e88:	6878      	ldr	r0, [r7, #4]
20001e8a:	f7ff ffb5 	bl	20001df8 <outc>
  while (*p != '\0') {
20001e8e:	683b      	ldr	r3, [r7, #0]
20001e90:	781b      	ldrb	r3, [r3, #0]
20001e92:	2b00      	cmp	r3, #0
20001e94:	d1eb      	bne.n	20001e6e <sci_write+0x24>
  }
}
20001e96:	bf00      	nop
20001e98:	bf00      	nop
20001e9a:	3708      	adds	r7, #8
20001e9c:	46bd      	mov	sp, r7
20001e9e:	bd80      	pop	{r7, pc}

20001ea0 <sci_writechar>:

void sci_writechar(Serial *self, int c) {
20001ea0:	b580      	push	{r7, lr}
20001ea2:	b082      	sub	sp, #8
20001ea4:	af00      	add	r7, sp, #0
20001ea6:	6078      	str	r0, [r7, #4]
20001ea8:	6039      	str	r1, [r7, #0]
  if (self->count == 0)
20001eaa:	687b      	ldr	r3, [r7, #4]
20001eac:	69db      	ldr	r3, [r3, #28]
20001eae:	2b00      	cmp	r3, #0
20001eb0:	d107      	bne.n	20001ec2 <sci_writechar+0x22>
    USART_ITConfig(self->port, USART_IT_TXE, ENABLE);
20001eb2:	687b      	ldr	r3, [r7, #4]
20001eb4:	689b      	ldr	r3, [r3, #8]
20001eb6:	2201      	movs	r2, #1
20001eb8:	f240 7127 	movw	r1, #1831	@ 0x727
20001ebc:	4618      	mov	r0, r3
20001ebe:	f005 faa9 	bl	20007414 <USART_ITConfig>
  outc(self, c);
20001ec2:	683b      	ldr	r3, [r7, #0]
20001ec4:	b2db      	uxtb	r3, r3
20001ec6:	4619      	mov	r1, r3
20001ec8:	6878      	ldr	r0, [r7, #4]
20001eca:	f7ff ff95 	bl	20001df8 <outc>
}
20001ece:	bf00      	nop
20001ed0:	3708      	adds	r7, #8
20001ed2:	46bd      	mov	sp, r7
20001ed4:	bd80      	pop	{r7, pc}

20001ed6 <sci_interrupt>:

int sci_interrupt(Serial *self, int unused) {
20001ed6:	b580      	push	{r7, lr}
20001ed8:	b086      	sub	sp, #24
20001eda:	af02      	add	r7, sp, #8
20001edc:	6078      	str	r0, [r7, #4]
20001ede:	6039      	str	r1, [r7, #0]
  if (USART_GetFlagStatus(self->port, USART_FLAG_RXNE) ==
20001ee0:	687b      	ldr	r3, [r7, #4]
20001ee2:	689b      	ldr	r3, [r3, #8]
20001ee4:	2120      	movs	r1, #32
20001ee6:	4618      	mov	r0, r3
20001ee8:	f005 fadc 	bl	200074a4 <USART_GetFlagStatus>
20001eec:	4603      	mov	r3, r0
20001eee:	2b01      	cmp	r3, #1
20001ef0:	d118      	bne.n	20001f24 <sci_interrupt+0x4e>
      SET) { // Data received
    int c;

    c = USART_ReceiveData(self->port);
20001ef2:	687b      	ldr	r3, [r7, #4]
20001ef4:	689b      	ldr	r3, [r3, #8]
20001ef6:	4618      	mov	r0, r3
20001ef8:	f005 f8f7 	bl	200070ea <USART_ReceiveData>
20001efc:	4603      	mov	r3, r0
20001efe:	60fb      	str	r3, [r7, #12]

    if (self->obj) {
20001f00:	687b      	ldr	r3, [r7, #4]
20001f02:	68db      	ldr	r3, [r3, #12]
20001f04:	2b00      	cmp	r3, #0
20001f06:	d00d      	beq.n	20001f24 <sci_interrupt+0x4e>
      ASYNC(self->obj, self->meth, c);
20001f08:	687b      	ldr	r3, [r7, #4]
20001f0a:	68da      	ldr	r2, [r3, #12]
20001f0c:	687b      	ldr	r3, [r7, #4]
20001f0e:	6919      	ldr	r1, [r3, #16]
20001f10:	68fb      	ldr	r3, [r7, #12]
20001f12:	9300      	str	r3, [sp, #0]
20001f14:	460b      	mov	r3, r1
20001f16:	2100      	movs	r1, #0
20001f18:	2000      	movs	r0, #0
20001f1a:	f7ff f9bb 	bl	20001294 <async>
      doIRQSchedule = 1;
20001f1e:	4b23      	ldr	r3, [pc, #140]	@ (20001fac <sci_interrupt+0xd6>)
20001f20:	2201      	movs	r2, #1
20001f22:	601a      	str	r2, [r3, #0]
    }
  }

  if (USART_GetFlagStatus(self->port, USART_FLAG_TXE) ==
20001f24:	687b      	ldr	r3, [r7, #4]
20001f26:	689b      	ldr	r3, [r3, #8]
20001f28:	2180      	movs	r1, #128	@ 0x80
20001f2a:	4618      	mov	r0, r3
20001f2c:	f005 faba 	bl	200074a4 <USART_GetFlagStatus>
20001f30:	4603      	mov	r3, r0
20001f32:	2b01      	cmp	r3, #1
20001f34:	d134      	bne.n	20001fa0 <sci_interrupt+0xca>
      SET) { // Transmit buffer empty
    if (self->count > 0) {
20001f36:	687b      	ldr	r3, [r7, #4]
20001f38:	69db      	ldr	r3, [r3, #28]
20001f3a:	2b00      	cmp	r3, #0
20001f3c:	dd28      	ble.n	20001f90 <sci_interrupt+0xba>
      USART_SendData(self->port, self->buf[self->tail]);
20001f3e:	687b      	ldr	r3, [r7, #4]
20001f40:	6898      	ldr	r0, [r3, #8]
20001f42:	687b      	ldr	r3, [r7, #4]
20001f44:	699b      	ldr	r3, [r3, #24]
20001f46:	687a      	ldr	r2, [r7, #4]
20001f48:	4413      	add	r3, r2
20001f4a:	f893 3020 	ldrb.w	r3, [r3, #32]
20001f4e:	4619      	mov	r1, r3
20001f50:	f005 f8b9 	bl	200070c6 <USART_SendData>
      self->tail = (self->tail + 1) % SCI_BUFSIZE;
20001f54:	687b      	ldr	r3, [r7, #4]
20001f56:	699b      	ldr	r3, [r3, #24]
20001f58:	3301      	adds	r3, #1
20001f5a:	425a      	negs	r2, r3
20001f5c:	f3c3 0309 	ubfx	r3, r3, #0, #10
20001f60:	f3c2 0209 	ubfx	r2, r2, #0, #10
20001f64:	bf58      	it	pl
20001f66:	4253      	negpl	r3, r2
20001f68:	687a      	ldr	r2, [r7, #4]
20001f6a:	6193      	str	r3, [r2, #24]
      self->count--;
20001f6c:	687b      	ldr	r3, [r7, #4]
20001f6e:	69db      	ldr	r3, [r3, #28]
20001f70:	1e5a      	subs	r2, r3, #1
20001f72:	687b      	ldr	r3, [r7, #4]
20001f74:	61da      	str	r2, [r3, #28]
      if (self->count == 0)
20001f76:	687b      	ldr	r3, [r7, #4]
20001f78:	69db      	ldr	r3, [r3, #28]
20001f7a:	2b00      	cmp	r3, #0
20001f7c:	d110      	bne.n	20001fa0 <sci_interrupt+0xca>
        USART_ITConfig(self->port, USART_IT_TXE, DISABLE);
20001f7e:	687b      	ldr	r3, [r7, #4]
20001f80:	689b      	ldr	r3, [r3, #8]
20001f82:	2200      	movs	r2, #0
20001f84:	f240 7127 	movw	r1, #1831	@ 0x727
20001f88:	4618      	mov	r0, r3
20001f8a:	f005 fa43 	bl	20007414 <USART_ITConfig>
20001f8e:	e007      	b.n	20001fa0 <sci_interrupt+0xca>
    } else {
      USART_ITConfig(self->port, USART_IT_TXE, DISABLE);
20001f90:	687b      	ldr	r3, [r7, #4]
20001f92:	689b      	ldr	r3, [r3, #8]
20001f94:	2200      	movs	r2, #0
20001f96:	f240 7127 	movw	r1, #1831	@ 0x727
20001f9a:	4618      	mov	r0, r3
20001f9c:	f005 fa3a 	bl	20007414 <USART_ITConfig>
    }
  }
  return 0;
20001fa0:	2300      	movs	r3, #0
}
20001fa2:	4618      	mov	r0, r3
20001fa4:	3710      	adds	r7, #16
20001fa6:	46bd      	mov	sp, r7
20001fa8:	bd80      	pop	{r7, pc}
20001faa:	bf00      	nop
20001fac:	20012368 	.word	0x20012368

20001fb0 <NVIC_EnableIRQ>:
{
20001fb0:	b480      	push	{r7}
20001fb2:	b083      	sub	sp, #12
20001fb4:	af00      	add	r7, sp, #0
20001fb6:	4603      	mov	r3, r0
20001fb8:	71fb      	strb	r3, [r7, #7]
  NVIC->ISER[(uint32_t)((int32_t)IRQn) >> 5] = (uint32_t)(1 << ((uint32_t)((int32_t)IRQn) & (uint32_t)0x1F)); /* enable interrupt */
20001fba:	79fb      	ldrb	r3, [r7, #7]
20001fbc:	f003 031f 	and.w	r3, r3, #31
20001fc0:	2201      	movs	r2, #1
20001fc2:	fa02 f103 	lsl.w	r1, r2, r3
20001fc6:	4a06      	ldr	r2, [pc, #24]	@ (20001fe0 <NVIC_EnableIRQ+0x30>)
20001fc8:	f997 3007 	ldrsb.w	r3, [r7, #7]
20001fcc:	095b      	lsrs	r3, r3, #5
20001fce:	f842 1023 	str.w	r1, [r2, r3, lsl #2]
}
20001fd2:	bf00      	nop
20001fd4:	370c      	adds	r7, #12
20001fd6:	46bd      	mov	sp, r7
20001fd8:	f85d 7b04 	ldr.w	r7, [sp], #4
20001fdc:	4770      	bx	lr
20001fde:	bf00      	nop
20001fe0:	e000e100 	.word	0xe000e100

20001fe4 <NVIC_SetPriority>:
{
20001fe4:	b480      	push	{r7}
20001fe6:	b083      	sub	sp, #12
20001fe8:	af00      	add	r7, sp, #0
20001fea:	4603      	mov	r3, r0
20001fec:	6039      	str	r1, [r7, #0]
20001fee:	71fb      	strb	r3, [r7, #7]
  if(IRQn < 0) {
20001ff0:	f997 3007 	ldrsb.w	r3, [r7, #7]
20001ff4:	2b00      	cmp	r3, #0
20001ff6:	da0b      	bge.n	20002010 <NVIC_SetPriority+0x2c>
    SCB->SHP[((uint32_t)(IRQn) & 0xF)-4] = ((priority << (8 - __NVIC_PRIO_BITS)) & 0xff); } /* set Priority for Cortex-M  System Interrupts */
20001ff8:	683b      	ldr	r3, [r7, #0]
20001ffa:	b2da      	uxtb	r2, r3
20001ffc:	490c      	ldr	r1, [pc, #48]	@ (20002030 <NVIC_SetPriority+0x4c>)
20001ffe:	79fb      	ldrb	r3, [r7, #7]
20002000:	f003 030f 	and.w	r3, r3, #15
20002004:	3b04      	subs	r3, #4
20002006:	0112      	lsls	r2, r2, #4
20002008:	b2d2      	uxtb	r2, r2
2000200a:	440b      	add	r3, r1
2000200c:	761a      	strb	r2, [r3, #24]
}
2000200e:	e009      	b.n	20002024 <NVIC_SetPriority+0x40>
    NVIC->IP[(uint32_t)(IRQn)] = ((priority << (8 - __NVIC_PRIO_BITS)) & 0xff);    }        /* set Priority for device specific Interrupts  */
20002010:	683b      	ldr	r3, [r7, #0]
20002012:	b2da      	uxtb	r2, r3
20002014:	4907      	ldr	r1, [pc, #28]	@ (20002034 <NVIC_SetPriority+0x50>)
20002016:	f997 3007 	ldrsb.w	r3, [r7, #7]
2000201a:	0112      	lsls	r2, r2, #4
2000201c:	b2d2      	uxtb	r2, r2
2000201e:	440b      	add	r3, r1
20002020:	f883 2300 	strb.w	r2, [r3, #768]	@ 0x300
}
20002024:	bf00      	nop
20002026:	370c      	adds	r7, #12
20002028:	46bd      	mov	sp, r7
2000202a:	f85d 7b04 	ldr.w	r7, [sp], #4
2000202e:	4770      	bx	lr
20002030:	e000ed00 	.word	0xe000ed00
20002034:	e000e100 	.word	0xe000e100

20002038 <sio_init>:
#include "sioTinyTimber.h"
#include "TinyTimber.h"

void sio_init(SysIO *self, int unused) {
20002038:	b580      	push	{r7, lr}
2000203a:	b082      	sub	sp, #8
2000203c:	af00      	add	r7, sp, #0
2000203e:	6078      	str	r0, [r7, #4]
20002040:	6039      	str	r1, [r7, #0]

  GPIO_WriteBit(GPIOB, GPIO_Pin_0, (BitAction)0); // Green LED On
20002042:	2200      	movs	r2, #0
20002044:	2101      	movs	r1, #1
20002046:	4807      	ldr	r0, [pc, #28]	@ (20002064 <sio_init+0x2c>)
20002048:	f002 f887 	bl	2000415a <GPIO_WriteBit>

  NVIC_SetPriority(EXTI9_5_IRQn, __IRQ_PRIORITY);
2000204c:	2102      	movs	r1, #2
2000204e:	2017      	movs	r0, #23
20002050:	f7ff ffc8 	bl	20001fe4 <NVIC_SetPriority>
  NVIC_EnableIRQ(EXTI9_5_IRQn);
20002054:	2017      	movs	r0, #23
20002056:	f7ff ffab 	bl	20001fb0 <NVIC_EnableIRQ>
}
2000205a:	bf00      	nop
2000205c:	3708      	adds	r7, #8
2000205e:	46bd      	mov	sp, r7
20002060:	bd80      	pop	{r7, pc}
20002062:	bf00      	nop
20002064:	40020400 	.word	0x40020400

20002068 <sio_read>:

int sio_read(SysIO *self, int unused) {
20002068:	b580      	push	{r7, lr}
2000206a:	b082      	sub	sp, #8
2000206c:	af00      	add	r7, sp, #0
2000206e:	6078      	str	r0, [r7, #4]
20002070:	6039      	str	r1, [r7, #0]
  return GPIO_ReadInputDataBit(self->port, GPIO_Pin_7);
20002072:	687b      	ldr	r3, [r7, #4]
20002074:	689b      	ldr	r3, [r3, #8]
20002076:	2180      	movs	r1, #128	@ 0x80
20002078:	4618      	mov	r0, r3
2000207a:	f002 f802 	bl	20004082 <GPIO_ReadInputDataBit>
2000207e:	4603      	mov	r3, r0
}
20002080:	4618      	mov	r0, r3
20002082:	3708      	adds	r7, #8
20002084:	46bd      	mov	sp, r7
20002086:	bd80      	pop	{r7, pc}

20002088 <sio_write>:

void sio_write(SysIO *self, int val) {
20002088:	b580      	push	{r7, lr}
2000208a:	b082      	sub	sp, #8
2000208c:	af00      	add	r7, sp, #0
2000208e:	6078      	str	r0, [r7, #4]
20002090:	6039      	str	r1, [r7, #0]
  GPIO_WriteBit(self->port, GPIO_Pin_0, (BitAction)val);
20002092:	687b      	ldr	r3, [r7, #4]
20002094:	689b      	ldr	r3, [r3, #8]
20002096:	683a      	ldr	r2, [r7, #0]
20002098:	b2d2      	uxtb	r2, r2
2000209a:	2101      	movs	r1, #1
2000209c:	4618      	mov	r0, r3
2000209e:	f002 f85c 	bl	2000415a <GPIO_WriteBit>
}
200020a2:	bf00      	nop
200020a4:	3708      	adds	r7, #8
200020a6:	46bd      	mov	sp, r7
200020a8:	bd80      	pop	{r7, pc}

200020aa <sio_toggle>:

void sio_toggle(SysIO *self, int unused) {
200020aa:	b580      	push	{r7, lr}
200020ac:	b082      	sub	sp, #8
200020ae:	af00      	add	r7, sp, #0
200020b0:	6078      	str	r0, [r7, #4]
200020b2:	6039      	str	r1, [r7, #0]
  GPIO_ToggleBits(self->port, GPIO_Pin_0);
200020b4:	687b      	ldr	r3, [r7, #4]
200020b6:	689b      	ldr	r3, [r3, #8]
200020b8:	2101      	movs	r1, #1
200020ba:	4618      	mov	r0, r3
200020bc:	f002 f874 	bl	200041a8 <GPIO_ToggleBits>
}
200020c0:	bf00      	nop
200020c2:	3708      	adds	r7, #8
200020c4:	46bd      	mov	sp, r7
200020c6:	bd80      	pop	{r7, pc}

200020c8 <sio_trig>:

void sio_trig(SysIO *self, int rise) {
200020c8:	b580      	push	{r7, lr}
200020ca:	b084      	sub	sp, #16
200020cc:	af00      	add	r7, sp, #0
200020ce:	6078      	str	r0, [r7, #4]
200020d0:	6039      	str	r1, [r7, #0]
  EXTI_InitTypeDef EXTI_InitStructure;

  EXTI_StructInit(&EXTI_InitStructure);
200020d2:	f107 0308 	add.w	r3, r7, #8
200020d6:	4618      	mov	r0, r3
200020d8:	f001 fdda 	bl	20003c90 <EXTI_StructInit>
  EXTI_InitStructure.EXTI_Line = EXTI_Line7;
200020dc:	2380      	movs	r3, #128	@ 0x80
200020de:	60bb      	str	r3, [r7, #8]
  EXTI_InitStructure.EXTI_Mode = EXTI_Mode_Interrupt;
200020e0:	2300      	movs	r3, #0
200020e2:	733b      	strb	r3, [r7, #12]
  EXTI_InitStructure.EXTI_Trigger =
      rise ? EXTI_Trigger_Rising : EXTI_Trigger_Falling;
200020e4:	683b      	ldr	r3, [r7, #0]
200020e6:	2b00      	cmp	r3, #0
200020e8:	d001      	beq.n	200020ee <sio_trig+0x26>
200020ea:	2308      	movs	r3, #8
200020ec:	e000      	b.n	200020f0 <sio_trig+0x28>
200020ee:	230c      	movs	r3, #12
  EXTI_InitStructure.EXTI_Trigger =
200020f0:	737b      	strb	r3, [r7, #13]
  EXTI_InitStructure.EXTI_LineCmd = ENABLE;
200020f2:	2301      	movs	r3, #1
200020f4:	73bb      	strb	r3, [r7, #14]
  EXTI_Init(&EXTI_InitStructure);
200020f6:	f107 0308 	add.w	r3, r7, #8
200020fa:	4618      	mov	r0, r3
200020fc:	f001 fd56 	bl	20003bac <EXTI_Init>
}
20002100:	bf00      	nop
20002102:	3710      	adds	r7, #16
20002104:	46bd      	mov	sp, r7
20002106:	bd80      	pop	{r7, pc}

20002108 <sio_interrupt>:

void DUMP(char *s);

int sio_interrupt(SysIO *self, int unused) {
20002108:	b580      	push	{r7, lr}
2000210a:	b084      	sub	sp, #16
2000210c:	af02      	add	r7, sp, #8
2000210e:	6078      	str	r0, [r7, #4]
20002110:	6039      	str	r1, [r7, #0]
  if (EXTI_GetITStatus(EXTI_Line7) == SET) {
20002112:	2080      	movs	r0, #128	@ 0x80
20002114:	f001 fe0e 	bl	20003d34 <EXTI_GetITStatus>
20002118:	4603      	mov	r3, r0
2000211a:	2b01      	cmp	r3, #1
2000211c:	d114      	bne.n	20002148 <sio_interrupt+0x40>
    //        DUMP("\n\rYey! A GPIOB bit7 IRQ!\n\r");

    EXTI_ClearITPendingBit(EXTI_Line7); // remove interrupt request
2000211e:	2080      	movs	r0, #128	@ 0x80
20002120:	f001 fe22 	bl	20003d68 <EXTI_ClearITPendingBit>

    if (self->obj) {
20002124:	687b      	ldr	r3, [r7, #4]
20002126:	68db      	ldr	r3, [r3, #12]
20002128:	2b00      	cmp	r3, #0
2000212a:	d010      	beq.n	2000214e <sio_interrupt+0x46>
      ASYNC(self->obj, self->meth, 0);
2000212c:	687b      	ldr	r3, [r7, #4]
2000212e:	68da      	ldr	r2, [r3, #12]
20002130:	687b      	ldr	r3, [r7, #4]
20002132:	691b      	ldr	r3, [r3, #16]
20002134:	2100      	movs	r1, #0
20002136:	9100      	str	r1, [sp, #0]
20002138:	2100      	movs	r1, #0
2000213a:	2000      	movs	r0, #0
2000213c:	f7ff f8aa 	bl	20001294 <async>
      doIRQSchedule = 1;
20002140:	4b05      	ldr	r3, [pc, #20]	@ (20002158 <sio_interrupt+0x50>)
20002142:	2201      	movs	r2, #1
20002144:	601a      	str	r2, [r3, #0]
20002146:	e002      	b.n	2000214e <sio_interrupt+0x46>
    }
  } else {
    DUMP("\n\rStrange: Not a GPIOB bit7 IRQ!\n\r");
20002148:	4804      	ldr	r0, [pc, #16]	@ (2000215c <sio_interrupt+0x54>)
2000214a:	f7fe fc69 	bl	20000a20 <DUMP>
  }

  return 0;
2000214e:	2300      	movs	r3, #0
}
20002150:	4618      	mov	r0, r3
20002152:	3708      	adds	r7, #8
20002154:	46bd      	mov	sp, r7
20002156:	bd80      	pop	{r7, pc}
20002158:	20012368 	.word	0x20012368
2000215c:	200084b4 	.word	0x200084b4

20002160 <vect_SVCall>:
@	void vect_SVCall ( void)
    .section  .text,"ax",%progbits
	.type  vect_SVCall, %function

vect_SVCall:
	ldr	r1, =L00
20002160:	4931      	ldr	r1, [pc, #196]	@ (20002228 <L000b+0x26>)
	b vect_PendSV1
20002162:	e000      	b.n	20002166 <vect_PendSV1>

20002164 <vect_PendSV>:
@	void vect_PendSV ( void)
    .section  .text,"ax",%progbits
	.type  vect_PendSV, %function

vect_PendSV:
	ldr r1, =L01
20002164:	4931      	ldr	r1, [pc, #196]	@ (2000222c <L000b+0x2a>)

20002166 <vect_PendSV1>:

vect_PendSV1:
	mrs r0, msp
20002166:	f3ef 8008 	mrs	r0, MSP
	vstmdb r0!, {s16-s31} @ save floating point registers
2000216a:	ed20 8a10 	vstmdb	r0!, {s16-s31}
	mov r2, lr
2000216e:	4672      	mov	r2, lr
	mrs r3, basepri
20002170:	f3ef 8311 	mrs	r3, BASEPRI
	stmdb r0!, {r2-r11} @ save LR, BASEPRI and R4 to R11
20002174:	e920 0ffc 	stmdb	r0!, {r2, r3, r4, r5, r6, r7, r8, r9, sl, fp}

	ldr r7, =current
20002178:	4f2d      	ldr	r7, [pc, #180]	@ (20002230 <L000b+0x2e>)
	ldr	r8, [r7]
2000217a:	f8d7 8000 	ldr.w	r8, [r7]
	str r0, [r8] @ save thread context
2000217e:	f8c8 0000 	str.w	r0, [r8]
	
	b L000a
20002182:	e01e      	b.n	200021c2 <L000a>
	
@ Debug printout
	mov r0, r1
20002184:	4608      	mov	r0, r1
	bl		DUMP
20002186:	f7fe fc4b 	bl	20000a20 <DUMP>
	ldr	r0, =L99
2000218a:	482a      	ldr	r0, [pc, #168]	@ (20002234 <L000b+0x32>)
	bl		DUMP
2000218c:	f7fe fc48 	bl	20000a20 <DUMP>

	ldr	r0, =L03a
20002190:	4829      	ldr	r0, [pc, #164]	@ (20002238 <L000b+0x36>)
	bl		DUMP
20002192:	f7fe fc45 	bl	20000a20 <DUMP>
	ldr	r0, [r8, #4] @ Thread ID
20002196:	f8d8 0004 	ldr.w	r0, [r8, #4]
	bl		DUMPD
2000219a:	f7fe fc8d 	bl	20000ab8 <DUMPD>
	ldr	r0, =L03b
2000219e:	4827      	ldr	r0, [pc, #156]	@ (2000223c <L000b+0x3a>)
	bl		DUMP
200021a0:	f7fe fc3e 	bl	20000a20 <DUMP>
	ldr	r0, [r8] @ Thread context
200021a4:	f8d8 0000 	ldr.w	r0, [r8]
	bl		DUMPH
200021a8:	f7fe fc57 	bl	20000a5a <DUMPH>
	ldr	r0, =L03c
200021ac:	4824      	ldr	r0, [pc, #144]	@ (20002240 <L000b+0x3e>)
	bl		DUMP
200021ae:	f7fe fc37 	bl	20000a20 <DUMP>
	ldr	r0, [r8] 
200021b2:	f8d8 0000 	ldr.w	r0, [r8]
	ldr	r0, [r0] @ EXC_RETURN value
200021b6:	6800      	ldr	r0, [r0, #0]
	bl		DUMPH
200021b8:	f7fe fc4f 	bl	20000a5a <DUMPH>
	ldr	r0, =L99
200021bc:	481d      	ldr	r0, [pc, #116]	@ (20002234 <L000b+0x32>)
	bl		DUMP
200021be:	f7fe fc2f 	bl	20000a20 <DUMP>

200021c2 <L000a>:

L000a:
	ldr	r8, =upcoming
200021c2:	f8df 8080 	ldr.w	r8, [pc, #128]	@ 20002244 <L000b+0x42>
	ldr	r8, [r8]
200021c6:	f8d8 8000 	ldr.w	r8, [r8]
	str r8, [r7] @ set current = upcoming
200021ca:	f8c7 8000 	str.w	r8, [r7]

	b L000b
200021ce:	e018      	b.n	20002202 <L000b>
	
	ldr	r0, =L04a
200021d0:	481d      	ldr	r0, [pc, #116]	@ (20002248 <L000b+0x46>)
	bl		DUMP
200021d2:	f7fe fc25 	bl	20000a20 <DUMP>
	ldr	r0, [r8, #4] @ Thread ID
200021d6:	f8d8 0004 	ldr.w	r0, [r8, #4]
	bl		DUMPD
200021da:	f7fe fc6d 	bl	20000ab8 <DUMPD>
	ldr	r0, =L04b
200021de:	481b      	ldr	r0, [pc, #108]	@ (2000224c <L000b+0x4a>)
	bl		DUMP
200021e0:	f7fe fc1e 	bl	20000a20 <DUMP>
	ldr	r0, [r8] @ Thread context
200021e4:	f8d8 0000 	ldr.w	r0, [r8]
	bl		DUMPH
200021e8:	f7fe fc37 	bl	20000a5a <DUMPH>
	ldr	r0, =L03c
200021ec:	4814      	ldr	r0, [pc, #80]	@ (20002240 <L000b+0x3e>)
	bl		DUMP
200021ee:	f7fe fc17 	bl	20000a20 <DUMP>
	ldr	r0, [r8] 
200021f2:	f8d8 0000 	ldr.w	r0, [r8]
	ldr	r0, [r0] @ EXC_RETURN value
200021f6:	6800      	ldr	r0, [r0, #0]
	bl		DUMPH
200021f8:	f7fe fc2f 	bl	20000a5a <DUMPH>
	ldr	r0, =L99
200021fc:	480d      	ldr	r0, [pc, #52]	@ (20002234 <L000b+0x32>)
	bl		DUMP
200021fe:	f7fe fc0f 	bl	20000a20 <DUMP>

20002202 <L000b>:

L000b:
@ Clear Pend_SV exception	
	ldr	r2,=0xE000ED00
20002202:	4a13      	ldr	r2, [pc, #76]	@ (20002250 <L000b+0x4e>)
	ldr	r3, [r2, #4]	@ SCB->ICSR
20002204:	6853      	ldr	r3, [r2, #4]
	orr	r3, r3, #(1<<27)	@ SCB_ICSR_PENDSVCLR_Msk
20002206:	f043 6300 	orr.w	r3, r3, #134217728	@ 0x8000000
	str	r3, [r2, #4]	@ SCB->ICSR
2000220a:	6053      	str	r3, [r2, #4]
	nop
2000220c:	bf00      	nop

	ldr r0, [r8] @ save thread context
2000220e:	f8d8 0000 	ldr.w	r0, [r8]
	ldmia r0!, {r2-r11} @ load LR, BASEPRI and R4 to R11
20002212:	e8b0 0ffc 	ldmia.w	r0!, {r2, r3, r4, r5, r6, r7, r8, r9, sl, fp}
	msr basepri, r3
20002216:	f383 8811 	msr	BASEPRI, r3
	mov lr, r2
2000221a:	4696      	mov	lr, r2
	vldmia r0!, {s16-s31} @ load floating point registers
2000221c:	ecb0 8a10 	vldmia	r0!, {s16-s31}
	msr msp, r0
20002220:	f380 8808 	msr	MSP, r0
	bx lr
20002224:	4770      	bx	lr
20002226:	0000      	.short	0x0000
	ldr	r1, =L00
20002228:	20009650 	.word	0x20009650
	ldr r1, =L01
2000222c:	20009661 	.word	0x20009661
	ldr r7, =current
20002230:	2000964c 	.word	0x2000964c
	ldr	r0, =L99
20002234:	200096d1 	.word	0x200096d1
	ldr	r0, =L03a
20002238:	20009682 	.word	0x20009682
	ldr	r0, =L03b
2000223c:	2000969a 	.word	0x2000969a
	ldr	r0, =L03c
20002240:	200096a2 	.word	0x200096a2
	ldr	r8, =upcoming
20002244:	20012374 	.word	0x20012374
	ldr	r0, =L04a
20002248:	200096ab 	.word	0x200096ab
	ldr	r0, =L04b
2000224c:	200096c0 	.word	0x200096c0
	ldr	r2,=0xE000ED00
20002250:	e000ed00 	.word	0xe000ed00

20002254 <__usart_init>:
static void __usart_init() {}
20002254:	b480      	push	{r7}
20002256:	af00      	add	r7, sp, #0
20002258:	bf00      	nop
2000225a:	46bd      	mov	sp, r7
2000225c:	f85d 7b04 	ldr.w	r7, [sp], #4
20002260:	4770      	bx	lr

20002262 <__can_init>:
static void __can_init() {
20002262:	b580      	push	{r7, lr}
20002264:	b086      	sub	sp, #24
20002266:	af00      	add	r7, sp, #0
  GPIO_DeInit(GPIOB);
20002268:	4845      	ldr	r0, [pc, #276]	@ (20002380 <__can_init+0x11e>)
2000226a:	f001 fd8d 	bl	20003d88 <GPIO_DeInit>
  CAN_DeInit(CAN1);
2000226e:	4845      	ldr	r0, [pc, #276]	@ (20002384 <__can_init+0x122>)
20002270:	f000 f980 	bl	20002574 <CAN_DeInit>
  CAN_DeInit(CAN2);
20002274:	4844      	ldr	r0, [pc, #272]	@ (20002388 <__can_init+0x126>)
20002276:	f000 f97d 	bl	20002574 <CAN_DeInit>
  RCC_APB1PeriphClockCmd(RCC_APB1Periph_CAN1, ENABLE);
2000227a:	2101      	movs	r1, #1
2000227c:	f04f 7000 	mov.w	r0, #33554432	@ 0x2000000
20002280:	f002 fc2a 	bl	20004ad8 <RCC_APB1PeriphClockCmd>
  RCC_APB1PeriphClockCmd(RCC_APB1Periph_CAN2, ENABLE);
20002284:	2101      	movs	r1, #1
20002286:	f04f 6080 	mov.w	r0, #67108864	@ 0x4000000
2000228a:	f002 fc25 	bl	20004ad8 <RCC_APB1PeriphClockCmd>
  RCC_AHB1PeriphClockCmd(RCC_AHB1Periph_GPIOB, ENABLE);
2000228e:	2101      	movs	r1, #1
20002290:	2002      	movs	r0, #2
20002292:	f002 fbc1 	bl	20004a18 <RCC_AHB1PeriphClockCmd>
  GPIO_PinAFConfig(GPIOB, GPIO_PinSource9, GPIO_AF_CAN1);
20002296:	2209      	movs	r2, #9
20002298:	2109      	movs	r1, #9
2000229a:	4839      	ldr	r0, [pc, #228]	@ (20002380 <__can_init+0x11e>)
2000229c:	f001 ff96 	bl	200041cc <GPIO_PinAFConfig>
  GPIO_PinAFConfig(GPIOB, GPIO_PinSource8, GPIO_AF_CAN1);
200022a0:	2209      	movs	r2, #9
200022a2:	2108      	movs	r1, #8
200022a4:	4836      	ldr	r0, [pc, #216]	@ (20002380 <__can_init+0x11e>)
200022a6:	f001 ff91 	bl	200041cc <GPIO_PinAFConfig>
  GPIO_StructInit(&GPIO_InitStructure);
200022aa:	f107 0310 	add.w	r3, r7, #16
200022ae:	4618      	mov	r0, r3
200022b0:	f001 feab 	bl	2000400a <GPIO_StructInit>
  GPIO_InitStructure.GPIO_Pin = GPIO_Pin_9;
200022b4:	f44f 7300 	mov.w	r3, #512	@ 0x200
200022b8:	613b      	str	r3, [r7, #16]
  GPIO_InitStructure.GPIO_Mode = GPIO_Mode_AF;
200022ba:	2302      	movs	r3, #2
200022bc:	753b      	strb	r3, [r7, #20]
  GPIO_InitStructure.GPIO_OType = GPIO_OType_PP;
200022be:	2300      	movs	r3, #0
200022c0:	75bb      	strb	r3, [r7, #22]
  GPIO_InitStructure.GPIO_PuPd = GPIO_PuPd_NOPULL;
200022c2:	2300      	movs	r3, #0
200022c4:	75fb      	strb	r3, [r7, #23]
  GPIO_InitStructure.GPIO_Speed = GPIO_Speed_50MHz;
200022c6:	2302      	movs	r3, #2
200022c8:	757b      	strb	r3, [r7, #21]
  GPIO_Init(GPIOB, &GPIO_InitStructure);
200022ca:	f107 0310 	add.w	r3, r7, #16
200022ce:	4619      	mov	r1, r3
200022d0:	482b      	ldr	r0, [pc, #172]	@ (20002380 <__can_init+0x11e>)
200022d2:	f001 fe0b 	bl	20003eec <GPIO_Init>
  GPIO_InitStructure.GPIO_Pin = GPIO_Pin_8;
200022d6:	f44f 7380 	mov.w	r3, #256	@ 0x100
200022da:	613b      	str	r3, [r7, #16]
  GPIO_InitStructure.GPIO_Mode = GPIO_Mode_AF;
200022dc:	2302      	movs	r3, #2
200022de:	753b      	strb	r3, [r7, #20]
  GPIO_InitStructure.GPIO_OType =
200022e0:	2300      	movs	r3, #0
200022e2:	75bb      	strb	r3, [r7, #22]
  GPIO_InitStructure.GPIO_PuPd = GPIO_PuPd_UP;
200022e4:	2301      	movs	r3, #1
200022e6:	75fb      	strb	r3, [r7, #23]
  GPIO_InitStructure.GPIO_Speed = GPIO_Speed_50MHz;
200022e8:	2302      	movs	r3, #2
200022ea:	757b      	strb	r3, [r7, #21]
  GPIO_Init(GPIOB, &GPIO_InitStructure);
200022ec:	f107 0310 	add.w	r3, r7, #16
200022f0:	4619      	mov	r1, r3
200022f2:	4823      	ldr	r0, [pc, #140]	@ (20002380 <__can_init+0x11e>)
200022f4:	f001 fdfa 	bl	20003eec <GPIO_Init>
  GPIO_PinAFConfig(GPIOB, GPIO_PinSource6, GPIO_AF_CAN2);
200022f8:	2209      	movs	r2, #9
200022fa:	2106      	movs	r1, #6
200022fc:	4820      	ldr	r0, [pc, #128]	@ (20002380 <__can_init+0x11e>)
200022fe:	f001 ff65 	bl	200041cc <GPIO_PinAFConfig>
  GPIO_PinAFConfig(GPIOB, GPIO_PinSource5, GPIO_AF_CAN2);
20002302:	2209      	movs	r2, #9
20002304:	2105      	movs	r1, #5
20002306:	481e      	ldr	r0, [pc, #120]	@ (20002380 <__can_init+0x11e>)
20002308:	f001 ff60 	bl	200041cc <GPIO_PinAFConfig>
  GPIO_InitStructure.GPIO_Pin = GPIO_Pin_6;
2000230c:	2340      	movs	r3, #64	@ 0x40
2000230e:	613b      	str	r3, [r7, #16]
  GPIO_InitStructure.GPIO_Mode = GPIO_Mode_AF;
20002310:	2302      	movs	r3, #2
20002312:	753b      	strb	r3, [r7, #20]
  GPIO_InitStructure.GPIO_OType = GPIO_OType_PP;
20002314:	2300      	movs	r3, #0
20002316:	75bb      	strb	r3, [r7, #22]
  GPIO_InitStructure.GPIO_PuPd = GPIO_PuPd_NOPULL;
20002318:	2300      	movs	r3, #0
2000231a:	75fb      	strb	r3, [r7, #23]
  GPIO_InitStructure.GPIO_Speed = GPIO_Speed_50MHz;
2000231c:	2302      	movs	r3, #2
2000231e:	757b      	strb	r3, [r7, #21]
  GPIO_Init(GPIOB, &GPIO_InitStructure);
20002320:	f107 0310 	add.w	r3, r7, #16
20002324:	4619      	mov	r1, r3
20002326:	4816      	ldr	r0, [pc, #88]	@ (20002380 <__can_init+0x11e>)
20002328:	f001 fde0 	bl	20003eec <GPIO_Init>
  GPIO_InitStructure.GPIO_Pin = GPIO_Pin_5;
2000232c:	2320      	movs	r3, #32
2000232e:	613b      	str	r3, [r7, #16]
  GPIO_InitStructure.GPIO_Mode = GPIO_Mode_AF;
20002330:	2302      	movs	r3, #2
20002332:	753b      	strb	r3, [r7, #20]
  GPIO_InitStructure.GPIO_OType =
20002334:	2300      	movs	r3, #0
20002336:	75bb      	strb	r3, [r7, #22]
  GPIO_InitStructure.GPIO_PuPd = GPIO_PuPd_UP;
20002338:	2301      	movs	r3, #1
2000233a:	75fb      	strb	r3, [r7, #23]
  GPIO_InitStructure.GPIO_Speed = GPIO_Speed_50MHz;
2000233c:	2302      	movs	r3, #2
2000233e:	757b      	strb	r3, [r7, #21]
  GPIO_Init(GPIOB, &GPIO_InitStructure);
20002340:	f107 0310 	add.w	r3, r7, #16
20002344:	4619      	mov	r1, r3
20002346:	480e      	ldr	r0, [pc, #56]	@ (20002380 <__can_init+0x11e>)
20002348:	f001 fdd0 	bl	20003eec <GPIO_Init>
  CAN_FilterInitStructure.CAN_FilterNumber = 0;
2000234c:	2300      	movs	r3, #0
2000234e:	72bb      	strb	r3, [r7, #10]
  CAN_FilterInitStructure.CAN_FilterMode = CAN_FilterMode_IdMask;
20002350:	2300      	movs	r3, #0
20002352:	72fb      	strb	r3, [r7, #11]
  CAN_FilterInitStructure.CAN_FilterScale = CAN_FilterScale_32bit;
20002354:	2301      	movs	r3, #1
20002356:	733b      	strb	r3, [r7, #12]
  CAN_FilterInitStructure.CAN_FilterIdHigh = 0x0000;
20002358:	2300      	movs	r3, #0
2000235a:	803b      	strh	r3, [r7, #0]
  CAN_FilterInitStructure.CAN_FilterIdLow = 0x0000;
2000235c:	2300      	movs	r3, #0
2000235e:	807b      	strh	r3, [r7, #2]
  CAN_FilterInitStructure.CAN_FilterMaskIdHigh =
20002360:	2300      	movs	r3, #0
20002362:	80bb      	strh	r3, [r7, #4]
  CAN_FilterInitStructure.CAN_FilterMaskIdLow = 0x0000;
20002364:	2300      	movs	r3, #0
20002366:	80fb      	strh	r3, [r7, #6]
  CAN_FilterInitStructure.CAN_FilterFIFOAssignment = CAN_Filter_FIFO0;
20002368:	2300      	movs	r3, #0
2000236a:	813b      	strh	r3, [r7, #8]
  CAN_FilterInitStructure.CAN_FilterActivation = ENABLE;
2000236c:	2301      	movs	r3, #1
2000236e:	737b      	strb	r3, [r7, #13]
  CAN_FilterInit(&CAN_FilterInitStructure);
20002370:	463b      	mov	r3, r7
20002372:	4618      	mov	r0, r3
20002374:	f000 f9f3 	bl	2000275e <CAN_FilterInit>
}
20002378:	bf00      	nop
2000237a:	3718      	adds	r7, #24
2000237c:	46bd      	mov	sp, r7
2000237e:	bd80      	pop	{r7, pc}
20002380:	40020400 	.word	0x40020400
20002384:	40006400 	.word	0x40006400
20002388:	40006800 	.word	0x40006800

2000238c <__dac_init>:
static void __dac_init() {
2000238c:	b580      	push	{r7, lr}
2000238e:	b086      	sub	sp, #24
20002390:	af00      	add	r7, sp, #0
  RCC_APB1PeriphClockCmd(RCC_APB1Periph_DAC, ENABLE);
20002392:	2101      	movs	r1, #1
20002394:	f04f 5000 	mov.w	r0, #536870912	@ 0x20000000
20002398:	f002 fb9e 	bl	20004ad8 <RCC_APB1PeriphClockCmd>
  GPIO_StructInit(&GPIO_InitStructure);
2000239c:	f107 0310 	add.w	r3, r7, #16
200023a0:	4618      	mov	r0, r3
200023a2:	f001 fe32 	bl	2000400a <GPIO_StructInit>
  GPIO_InitStructure.GPIO_Pin = GPIO_Pin_5;
200023a6:	2320      	movs	r3, #32
200023a8:	613b      	str	r3, [r7, #16]
  GPIO_InitStructure.GPIO_Mode = GPIO_Mode_AN;
200023aa:	2303      	movs	r3, #3
200023ac:	753b      	strb	r3, [r7, #20]
  GPIO_InitStructure.GPIO_PuPd = GPIO_PuPd_NOPULL;
200023ae:	2300      	movs	r3, #0
200023b0:	75fb      	strb	r3, [r7, #23]
  GPIO_Init(GPIOA, &GPIO_InitStructure);
200023b2:	f107 0310 	add.w	r3, r7, #16
200023b6:	4619      	mov	r1, r3
200023b8:	480f      	ldr	r0, [pc, #60]	@ (200023f8 <__dac_init+0x6c>)
200023ba:	f001 fd97 	bl	20003eec <GPIO_Init>
  DAC_DeInit();
200023be:	f001 f9b3 	bl	20003728 <DAC_DeInit>
  DAC_StructInit(&DAC_InitStructure);
200023c2:	463b      	mov	r3, r7
200023c4:	4618      	mov	r0, r3
200023c6:	f001 f9f1 	bl	200037ac <DAC_StructInit>
  DAC_InitStructure.DAC_Trigger = DAC_Trigger_None;
200023ca:	2300      	movs	r3, #0
200023cc:	603b      	str	r3, [r7, #0]
  DAC_InitStructure.DAC_WaveGeneration = DAC_WaveGeneration_None;
200023ce:	2300      	movs	r3, #0
200023d0:	607b      	str	r3, [r7, #4]
  DAC_InitStructure.DAC_OutputBuffer = DAC_OutputBuffer_Enable;
200023d2:	2300      	movs	r3, #0
200023d4:	60fb      	str	r3, [r7, #12]
  DAC_Init(DAC_Channel_2, &DAC_InitStructure);
200023d6:	463b      	mov	r3, r7
200023d8:	4619      	mov	r1, r3
200023da:	2010      	movs	r0, #16
200023dc:	f001 f9b2 	bl	20003744 <DAC_Init>
  DAC_Cmd(DAC_Channel_2, ENABLE);
200023e0:	2101      	movs	r1, #1
200023e2:	2010      	movs	r0, #16
200023e4:	f001 f9f8 	bl	200037d8 <DAC_Cmd>
  DAC_SetChannel2Data(DAC_Align_8b_R, 0);
200023e8:	2100      	movs	r1, #0
200023ea:	2008      	movs	r0, #8
200023ec:	f001 faa2 	bl	20003934 <DAC_SetChannel2Data>
}
200023f0:	bf00      	nop
200023f2:	3718      	adds	r7, #24
200023f4:	46bd      	mov	sp, r7
200023f6:	bd80      	pop	{r7, pc}
200023f8:	40020000 	.word	0x40020000

200023fc <__sio_init>:
static void __sio_init() {
200023fc:	b580      	push	{r7, lr}
200023fe:	b084      	sub	sp, #16
20002400:	af00      	add	r7, sp, #0
  RCC_APB2PeriphClockCmd(RCC_APB2Periph_SYSCFG, ENABLE);
20002402:	2101      	movs	r1, #1
20002404:	f44f 4080 	mov.w	r0, #16384	@ 0x4000
20002408:	f002 fb86 	bl	20004b18 <RCC_APB2PeriphClockCmd>
  SYSCFG_EXTILineConfig(EXTI_PortSourceGPIOB, EXTI_PinSource7);
2000240c:	2107      	movs	r1, #7
2000240e:	2001      	movs	r0, #1
20002410:	f002 fdac 	bl	20004f6c <SYSCFG_EXTILineConfig>
  EXTI_DeInit();
20002414:	f001 fbb0 	bl	20003b78 <EXTI_DeInit>
  EXTI_StructInit(&EXTI_InitStructure);
20002418:	463b      	mov	r3, r7
2000241a:	4618      	mov	r0, r3
2000241c:	f001 fc38 	bl	20003c90 <EXTI_StructInit>
  EXTI_InitStructure.EXTI_Line = EXTI_Line7;
20002420:	2380      	movs	r3, #128	@ 0x80
20002422:	603b      	str	r3, [r7, #0]
  EXTI_InitStructure.EXTI_Mode = EXTI_Mode_Interrupt;
20002424:	2300      	movs	r3, #0
20002426:	713b      	strb	r3, [r7, #4]
  EXTI_InitStructure.EXTI_Trigger = EXTI_Trigger_Falling;
20002428:	230c      	movs	r3, #12
2000242a:	717b      	strb	r3, [r7, #5]
  EXTI_InitStructure.EXTI_LineCmd = ENABLE;
2000242c:	2301      	movs	r3, #1
2000242e:	71bb      	strb	r3, [r7, #6]
  EXTI_Init(&EXTI_InitStructure);
20002430:	463b      	mov	r3, r7
20002432:	4618      	mov	r0, r3
20002434:	f001 fbba 	bl	20003bac <EXTI_Init>
  GPIO_StructInit(&GPIO_InitStructure);
20002438:	f107 0308 	add.w	r3, r7, #8
2000243c:	4618      	mov	r0, r3
2000243e:	f001 fde4 	bl	2000400a <GPIO_StructInit>
  GPIO_InitStructure.GPIO_Pin = GPIO_Pin_1;
20002442:	2302      	movs	r3, #2
20002444:	60bb      	str	r3, [r7, #8]
  GPIO_InitStructure.GPIO_Mode = GPIO_Mode_OUT;
20002446:	2301      	movs	r3, #1
20002448:	733b      	strb	r3, [r7, #12]
  GPIO_InitStructure.GPIO_OType = GPIO_OType_OD;
2000244a:	2301      	movs	r3, #1
2000244c:	73bb      	strb	r3, [r7, #14]
  GPIO_InitStructure.GPIO_PuPd = GPIO_PuPd_NOPULL;
2000244e:	2300      	movs	r3, #0
20002450:	73fb      	strb	r3, [r7, #15]
  GPIO_InitStructure.GPIO_Speed = GPIO_Speed_25MHz;
20002452:	2301      	movs	r3, #1
20002454:	737b      	strb	r3, [r7, #13]
  GPIO_Init(GPIOB, &GPIO_InitStructure);
20002456:	f107 0308 	add.w	r3, r7, #8
2000245a:	4619      	mov	r1, r3
2000245c:	4818      	ldr	r0, [pc, #96]	@ (200024c0 <__sio_init+0xc4>)
2000245e:	f001 fd45 	bl	20003eec <GPIO_Init>
  GPIO_InitStructure.GPIO_Pin = GPIO_Pin_0;
20002462:	2301      	movs	r3, #1
20002464:	60bb      	str	r3, [r7, #8]
  GPIO_InitStructure.GPIO_Mode = GPIO_Mode_OUT;
20002466:	2301      	movs	r3, #1
20002468:	733b      	strb	r3, [r7, #12]
  GPIO_InitStructure.GPIO_OType = GPIO_OType_OD;
2000246a:	2301      	movs	r3, #1
2000246c:	73bb      	strb	r3, [r7, #14]
  GPIO_InitStructure.GPIO_PuPd = GPIO_PuPd_NOPULL;
2000246e:	2300      	movs	r3, #0
20002470:	73fb      	strb	r3, [r7, #15]
  GPIO_InitStructure.GPIO_Speed = GPIO_Speed_25MHz;
20002472:	2301      	movs	r3, #1
20002474:	737b      	strb	r3, [r7, #13]
  GPIO_Init(GPIOB, &GPIO_InitStructure);
20002476:	f107 0308 	add.w	r3, r7, #8
2000247a:	4619      	mov	r1, r3
2000247c:	4810      	ldr	r0, [pc, #64]	@ (200024c0 <__sio_init+0xc4>)
2000247e:	f001 fd35 	bl	20003eec <GPIO_Init>
  GPIO_WriteBit(GPIOB, GPIO_Pin_1, (BitAction)1); // default red LED Off
20002482:	2201      	movs	r2, #1
20002484:	2102      	movs	r1, #2
20002486:	480e      	ldr	r0, [pc, #56]	@ (200024c0 <__sio_init+0xc4>)
20002488:	f001 fe67 	bl	2000415a <GPIO_WriteBit>
  GPIO_WriteBit(GPIOB, GPIO_Pin_0, (BitAction)1); // default green LED Off
2000248c:	2201      	movs	r2, #1
2000248e:	2101      	movs	r1, #1
20002490:	480b      	ldr	r0, [pc, #44]	@ (200024c0 <__sio_init+0xc4>)
20002492:	f001 fe62 	bl	2000415a <GPIO_WriteBit>
  GPIO_InitStructure.GPIO_Pin = GPIO_Pin_7;
20002496:	2380      	movs	r3, #128	@ 0x80
20002498:	60bb      	str	r3, [r7, #8]
  GPIO_InitStructure.GPIO_Mode = GPIO_Mode_IN;
2000249a:	2300      	movs	r3, #0
2000249c:	733b      	strb	r3, [r7, #12]
  GPIO_InitStructure.GPIO_OType = GPIO_OType_PP;
2000249e:	2300      	movs	r3, #0
200024a0:	73bb      	strb	r3, [r7, #14]
  GPIO_InitStructure.GPIO_PuPd = GPIO_PuPd_NOPULL;
200024a2:	2300      	movs	r3, #0
200024a4:	73fb      	strb	r3, [r7, #15]
  GPIO_InitStructure.GPIO_Speed = GPIO_Speed_25MHz;
200024a6:	2301      	movs	r3, #1
200024a8:	737b      	strb	r3, [r7, #13]
  GPIO_Init(GPIOB, &GPIO_InitStructure);
200024aa:	f107 0308 	add.w	r3, r7, #8
200024ae:	4619      	mov	r1, r3
200024b0:	4803      	ldr	r0, [pc, #12]	@ (200024c0 <__sio_init+0xc4>)
200024b2:	f001 fd1b 	bl	20003eec <GPIO_Init>
}
200024b6:	bf00      	nop
200024b8:	3710      	adds	r7, #16
200024ba:	46bd      	mov	sp, r7
200024bc:	bd80      	pop	{r7, pc}
200024be:	bf00      	nop
200024c0:	40020400 	.word	0x40020400

200024c4 <__sys_init>:
static void __sys_init() {
200024c4:	b480      	push	{r7}
200024c6:	b083      	sub	sp, #12
200024c8:	af00      	add	r7, sp, #0
  __ASM volatile ("MRS %0, control" : "=r" (result) );
200024ca:	f3ef 8314 	mrs	r3, CONTROL
200024ce:	603b      	str	r3, [r7, #0]
  return(result);
200024d0:	683b      	ldr	r3, [r7, #0]
  __set_CONTROL(__get_CONTROL() & ~0x03); // Use MSP and privileged Thread mode
200024d2:	f023 0303 	bic.w	r3, r3, #3
200024d6:	607b      	str	r3, [r7, #4]
  __ASM volatile ("MSR control, %0" : : "r" (control) : "memory");
200024d8:	687b      	ldr	r3, [r7, #4]
200024da:	f383 8814 	msr	CONTROL, r3
}
200024de:	bf00      	nop
  SCB->CCR = 0x210; // STKALIGN + DIV_0_TRP
200024e0:	4b06      	ldr	r3, [pc, #24]	@ (200024fc <__sys_init+0x38>)
200024e2:	f44f 7204 	mov.w	r2, #528	@ 0x210
200024e6:	615a      	str	r2, [r3, #20]
  FPU->FPCCR = 0x80000000; // No lazy stacking
200024e8:	4b05      	ldr	r3, [pc, #20]	@ (20002500 <__sys_init+0x3c>)
200024ea:	f04f 4200 	mov.w	r2, #2147483648	@ 0x80000000
200024ee:	605a      	str	r2, [r3, #4]
}
200024f0:	bf00      	nop
200024f2:	370c      	adds	r7, #12
200024f4:	46bd      	mov	sp, r7
200024f6:	f85d 7b04 	ldr.w	r7, [sp], #4
200024fa:	4770      	bx	lr
200024fc:	e000ed00 	.word	0xe000ed00
20002500:	e000ef30 	.word	0xe000ef30

20002504 <__timer_init>:
static void __timer_init() {
20002504:	b580      	push	{r7, lr}
20002506:	af00      	add	r7, sp, #0
  RCC_APB1PeriphClockCmd(RCC_APB1Periph_TIM5, ENABLE);
20002508:	2101      	movs	r1, #1
2000250a:	2008      	movs	r0, #8
2000250c:	f002 fae4 	bl	20004ad8 <RCC_APB1PeriphClockCmd>
  RCC_APB1PeriphClockLPModeCmd(RCC_APB1Periph_TIM5, ENABLE);
20002510:	2101      	movs	r1, #1
20002512:	2008      	movs	r0, #8
20002514:	f002 fc20 	bl	20004d58 <RCC_APB1PeriphClockLPModeCmd>
}
20002518:	bf00      	nop
2000251a:	bd80      	pop	{r7, pc}

2000251c <__bss_init>:
static void __bss_init() {
2000251c:	b480      	push	{r7}
2000251e:	af00      	add	r7, sp, #0
  asm volatile(" ldr  r2, =_sbss\n"
20002520:	4a12      	ldr	r2, [pc, #72]	@ (2000256c <Exit+0xe>)
20002522:	e002      	b.n	2000252a <LoopFillZerobss>

20002524 <FillZerobss>:
20002524:	2300      	movs	r3, #0
20002526:	f842 3b04 	str.w	r3, [r2], #4

2000252a <LoopFillZerobss>:
2000252a:	4b11      	ldr	r3, [pc, #68]	@ (20002570 <Exit+0x12>)
2000252c:	429a      	cmp	r2, r3
2000252e:	d3f9      	bcc.n	20002524 <FillZerobss>
}
20002530:	bf00      	nop
20002532:	46bd      	mov	sp, r7
20002534:	f85d 7b04 	ldr.w	r7, [sp], #4
20002538:	4770      	bx	lr

2000253a <Init>:
static void Init(void) {
2000253a:	b580      	push	{r7, lr}
2000253c:	af00      	add	r7, sp, #0
  __bss_init();
2000253e:	f7ff ffed 	bl	2000251c <__bss_init>
  __usart_init();
20002542:	f7ff fe87 	bl	20002254 <__usart_init>
  __can_init();
20002546:	f7ff fe8c 	bl	20002262 <__can_init>
  __dac_init();
2000254a:	f7ff ff1f 	bl	2000238c <__dac_init>
  __sio_init();
2000254e:	f7ff ff55 	bl	200023fc <__sio_init>
  __sys_init();
20002552:	f7ff ffb7 	bl	200024c4 <__sys_init>
  __timer_init();
20002556:	f7ff ffd5 	bl	20002504 <__timer_init>
}
2000255a:	bf00      	nop
2000255c:	bd80      	pop	{r7, pc}

2000255e <Exit>:
static void Exit(void) {
2000255e:	b480      	push	{r7}
20002560:	af00      	add	r7, sp, #0
}
20002562:	bf00      	nop
20002564:	46bd      	mov	sp, r7
20002566:	f85d 7b04 	ldr.w	r7, [sp], #4
2000256a:	4770      	bx	lr
2000256c:	2000a000 	.word	0x2000a000
20002570:	200123a4 	.word	0x200123a4

20002574 <CAN_DeInit>:
  * @brief  Deinitializes the CAN peripheral registers to their default reset values.
  * @param  CANx: where x can be 1 or 2 to select the CAN peripheral.
  * @retval None.
  */
void CAN_DeInit(CAN_TypeDef* CANx)
{
20002574:	b580      	push	{r7, lr}
20002576:	b082      	sub	sp, #8
20002578:	af00      	add	r7, sp, #0
2000257a:	6078      	str	r0, [r7, #4]
  /* Check the parameters */
  assert_param(IS_CAN_ALL_PERIPH(CANx));
 
  if (CANx == CAN1)
2000257c:	687b      	ldr	r3, [r7, #4]
2000257e:	4a0e      	ldr	r2, [pc, #56]	@ (200025b8 <CAN_DeInit+0x44>)
20002580:	4293      	cmp	r3, r2
20002582:	d10a      	bne.n	2000259a <CAN_DeInit+0x26>
  {
    /* Enable CAN1 reset state */
    RCC_APB1PeriphResetCmd(RCC_APB1Periph_CAN1, ENABLE);
20002584:	2101      	movs	r1, #1
20002586:	f04f 7000 	mov.w	r0, #33554432	@ 0x2000000
2000258a:	f002 fb45 	bl	20004c18 <RCC_APB1PeriphResetCmd>
    /* Release CAN1 from reset state */
    RCC_APB1PeriphResetCmd(RCC_APB1Periph_CAN1, DISABLE);
2000258e:	2100      	movs	r1, #0
20002590:	f04f 7000 	mov.w	r0, #33554432	@ 0x2000000
20002594:	f002 fb40 	bl	20004c18 <RCC_APB1PeriphResetCmd>
    /* Enable CAN2 reset state */
    RCC_APB1PeriphResetCmd(RCC_APB1Periph_CAN2, ENABLE);
    /* Release CAN2 from reset state */
    RCC_APB1PeriphResetCmd(RCC_APB1Periph_CAN2, DISABLE);
  }
}
20002598:	e009      	b.n	200025ae <CAN_DeInit+0x3a>
    RCC_APB1PeriphResetCmd(RCC_APB1Periph_CAN2, ENABLE);
2000259a:	2101      	movs	r1, #1
2000259c:	f04f 6080 	mov.w	r0, #67108864	@ 0x4000000
200025a0:	f002 fb3a 	bl	20004c18 <RCC_APB1PeriphResetCmd>
    RCC_APB1PeriphResetCmd(RCC_APB1Periph_CAN2, DISABLE);
200025a4:	2100      	movs	r1, #0
200025a6:	f04f 6080 	mov.w	r0, #67108864	@ 0x4000000
200025aa:	f002 fb35 	bl	20004c18 <RCC_APB1PeriphResetCmd>
}
200025ae:	bf00      	nop
200025b0:	3708      	adds	r7, #8
200025b2:	46bd      	mov	sp, r7
200025b4:	bd80      	pop	{r7, pc}
200025b6:	bf00      	nop
200025b8:	40006400 	.word	0x40006400

200025bc <CAN_Init>:
  *         the configuration information for the CAN peripheral.
  * @retval Constant indicates initialization succeed which will be 
  *         CAN_InitStatus_Failed or CAN_InitStatus_Success.
  */
uint8_t CAN_Init(CAN_TypeDef* CANx, CAN_InitTypeDef* CAN_InitStruct)
{
200025bc:	b480      	push	{r7}
200025be:	b085      	sub	sp, #20
200025c0:	af00      	add	r7, sp, #0
200025c2:	6078      	str	r0, [r7, #4]
200025c4:	6039      	str	r1, [r7, #0]
  uint8_t InitStatus = CAN_InitStatus_Failed;
200025c6:	2300      	movs	r3, #0
200025c8:	73fb      	strb	r3, [r7, #15]
  uint32_t wait_ack = 0x00000000;
200025ca:	2300      	movs	r3, #0
200025cc:	60bb      	str	r3, [r7, #8]
  assert_param(IS_CAN_BS1(CAN_InitStruct->CAN_BS1));
  assert_param(IS_CAN_BS2(CAN_InitStruct->CAN_BS2));
  assert_param(IS_CAN_PRESCALER(CAN_InitStruct->CAN_Prescaler));

  /* Exit from sleep mode */
  CANx->MCR &= (~(uint32_t)CAN_MCR_SLEEP);
200025ce:	687b      	ldr	r3, [r7, #4]
200025d0:	681b      	ldr	r3, [r3, #0]
200025d2:	f023 0202 	bic.w	r2, r3, #2
200025d6:	687b      	ldr	r3, [r7, #4]
200025d8:	601a      	str	r2, [r3, #0]

  /* Request initialisation */
  CANx->MCR |= CAN_MCR_INRQ ;
200025da:	687b      	ldr	r3, [r7, #4]
200025dc:	681b      	ldr	r3, [r3, #0]
200025de:	f043 0201 	orr.w	r2, r3, #1
200025e2:	687b      	ldr	r3, [r7, #4]
200025e4:	601a      	str	r2, [r3, #0]

  /* Wait the acknowledge */
  while (((CANx->MSR & CAN_MSR_INAK) != CAN_MSR_INAK) && (wait_ack != INAK_TIMEOUT))
200025e6:	e002      	b.n	200025ee <CAN_Init+0x32>
  {
    wait_ack++;
200025e8:	68bb      	ldr	r3, [r7, #8]
200025ea:	3301      	adds	r3, #1
200025ec:	60bb      	str	r3, [r7, #8]
  while (((CANx->MSR & CAN_MSR_INAK) != CAN_MSR_INAK) && (wait_ack != INAK_TIMEOUT))
200025ee:	687b      	ldr	r3, [r7, #4]
200025f0:	685b      	ldr	r3, [r3, #4]
200025f2:	f003 0301 	and.w	r3, r3, #1
200025f6:	2b01      	cmp	r3, #1
200025f8:	d004      	beq.n	20002604 <CAN_Init+0x48>
200025fa:	68bb      	ldr	r3, [r7, #8]
200025fc:	f64f 72ff 	movw	r2, #65535	@ 0xffff
20002600:	4293      	cmp	r3, r2
20002602:	d1f1      	bne.n	200025e8 <CAN_Init+0x2c>
  }

  /* Check acknowledge */
  if ((CANx->MSR & CAN_MSR_INAK) != CAN_MSR_INAK)
20002604:	687b      	ldr	r3, [r7, #4]
20002606:	685b      	ldr	r3, [r3, #4]
20002608:	f003 0301 	and.w	r3, r3, #1
2000260c:	2b01      	cmp	r3, #1
2000260e:	d002      	beq.n	20002616 <CAN_Init+0x5a>
  {
    InitStatus = CAN_InitStatus_Failed;
20002610:	2300      	movs	r3, #0
20002612:	73fb      	strb	r3, [r7, #15]
20002614:	e09c      	b.n	20002750 <CAN_Init+0x194>
  }
  else 
  {
    /* Set the time triggered communication mode */
    if (CAN_InitStruct->CAN_TTCM == ENABLE)
20002616:	683b      	ldr	r3, [r7, #0]
20002618:	799b      	ldrb	r3, [r3, #6]
2000261a:	2b01      	cmp	r3, #1
2000261c:	d106      	bne.n	2000262c <CAN_Init+0x70>
    {
      CANx->MCR |= CAN_MCR_TTCM;
2000261e:	687b      	ldr	r3, [r7, #4]
20002620:	681b      	ldr	r3, [r3, #0]
20002622:	f043 0280 	orr.w	r2, r3, #128	@ 0x80
20002626:	687b      	ldr	r3, [r7, #4]
20002628:	601a      	str	r2, [r3, #0]
2000262a:	e005      	b.n	20002638 <CAN_Init+0x7c>
    }
    else
    {
      CANx->MCR &= ~(uint32_t)CAN_MCR_TTCM;
2000262c:	687b      	ldr	r3, [r7, #4]
2000262e:	681b      	ldr	r3, [r3, #0]
20002630:	f023 0280 	bic.w	r2, r3, #128	@ 0x80
20002634:	687b      	ldr	r3, [r7, #4]
20002636:	601a      	str	r2, [r3, #0]
    }

    /* Set the automatic bus-off management */
    if (CAN_InitStruct->CAN_ABOM == ENABLE)
20002638:	683b      	ldr	r3, [r7, #0]
2000263a:	79db      	ldrb	r3, [r3, #7]
2000263c:	2b01      	cmp	r3, #1
2000263e:	d106      	bne.n	2000264e <CAN_Init+0x92>
    {
      CANx->MCR |= CAN_MCR_ABOM;
20002640:	687b      	ldr	r3, [r7, #4]
20002642:	681b      	ldr	r3, [r3, #0]
20002644:	f043 0240 	orr.w	r2, r3, #64	@ 0x40
20002648:	687b      	ldr	r3, [r7, #4]
2000264a:	601a      	str	r2, [r3, #0]
2000264c:	e005      	b.n	2000265a <CAN_Init+0x9e>
    }
    else
    {
      CANx->MCR &= ~(uint32_t)CAN_MCR_ABOM;
2000264e:	687b      	ldr	r3, [r7, #4]
20002650:	681b      	ldr	r3, [r3, #0]
20002652:	f023 0240 	bic.w	r2, r3, #64	@ 0x40
20002656:	687b      	ldr	r3, [r7, #4]
20002658:	601a      	str	r2, [r3, #0]
    }

    /* Set the automatic wake-up mode */
    if (CAN_InitStruct->CAN_AWUM == ENABLE)
2000265a:	683b      	ldr	r3, [r7, #0]
2000265c:	7a1b      	ldrb	r3, [r3, #8]
2000265e:	2b01      	cmp	r3, #1
20002660:	d106      	bne.n	20002670 <CAN_Init+0xb4>
    {
      CANx->MCR |= CAN_MCR_AWUM;
20002662:	687b      	ldr	r3, [r7, #4]
20002664:	681b      	ldr	r3, [r3, #0]
20002666:	f043 0220 	orr.w	r2, r3, #32
2000266a:	687b      	ldr	r3, [r7, #4]
2000266c:	601a      	str	r2, [r3, #0]
2000266e:	e005      	b.n	2000267c <CAN_Init+0xc0>
    }
    else
    {
      CANx->MCR &= ~(uint32_t)CAN_MCR_AWUM;
20002670:	687b      	ldr	r3, [r7, #4]
20002672:	681b      	ldr	r3, [r3, #0]
20002674:	f023 0220 	bic.w	r2, r3, #32
20002678:	687b      	ldr	r3, [r7, #4]
2000267a:	601a      	str	r2, [r3, #0]
    }

    /* Set the no automatic retransmission */
    if (CAN_InitStruct->CAN_NART == ENABLE)
2000267c:	683b      	ldr	r3, [r7, #0]
2000267e:	7a5b      	ldrb	r3, [r3, #9]
20002680:	2b01      	cmp	r3, #1
20002682:	d106      	bne.n	20002692 <CAN_Init+0xd6>
    {
      CANx->MCR |= CAN_MCR_NART;
20002684:	687b      	ldr	r3, [r7, #4]
20002686:	681b      	ldr	r3, [r3, #0]
20002688:	f043 0210 	orr.w	r2, r3, #16
2000268c:	687b      	ldr	r3, [r7, #4]
2000268e:	601a      	str	r2, [r3, #0]
20002690:	e005      	b.n	2000269e <CAN_Init+0xe2>
    }
    else
    {
      CANx->MCR &= ~(uint32_t)CAN_MCR_NART;
20002692:	687b      	ldr	r3, [r7, #4]
20002694:	681b      	ldr	r3, [r3, #0]
20002696:	f023 0210 	bic.w	r2, r3, #16
2000269a:	687b      	ldr	r3, [r7, #4]
2000269c:	601a      	str	r2, [r3, #0]
    }

    /* Set the receive FIFO locked mode */
    if (CAN_InitStruct->CAN_RFLM == ENABLE)
2000269e:	683b      	ldr	r3, [r7, #0]
200026a0:	7a9b      	ldrb	r3, [r3, #10]
200026a2:	2b01      	cmp	r3, #1
200026a4:	d106      	bne.n	200026b4 <CAN_Init+0xf8>
    {
      CANx->MCR |= CAN_MCR_RFLM;
200026a6:	687b      	ldr	r3, [r7, #4]
200026a8:	681b      	ldr	r3, [r3, #0]
200026aa:	f043 0208 	orr.w	r2, r3, #8
200026ae:	687b      	ldr	r3, [r7, #4]
200026b0:	601a      	str	r2, [r3, #0]
200026b2:	e005      	b.n	200026c0 <CAN_Init+0x104>
    }
    else
    {
      CANx->MCR &= ~(uint32_t)CAN_MCR_RFLM;
200026b4:	687b      	ldr	r3, [r7, #4]
200026b6:	681b      	ldr	r3, [r3, #0]
200026b8:	f023 0208 	bic.w	r2, r3, #8
200026bc:	687b      	ldr	r3, [r7, #4]
200026be:	601a      	str	r2, [r3, #0]
    }

    /* Set the transmit FIFO priority */
    if (CAN_InitStruct->CAN_TXFP == ENABLE)
200026c0:	683b      	ldr	r3, [r7, #0]
200026c2:	7adb      	ldrb	r3, [r3, #11]
200026c4:	2b01      	cmp	r3, #1
200026c6:	d106      	bne.n	200026d6 <CAN_Init+0x11a>
    {
      CANx->MCR |= CAN_MCR_TXFP;
200026c8:	687b      	ldr	r3, [r7, #4]
200026ca:	681b      	ldr	r3, [r3, #0]
200026cc:	f043 0204 	orr.w	r2, r3, #4
200026d0:	687b      	ldr	r3, [r7, #4]
200026d2:	601a      	str	r2, [r3, #0]
200026d4:	e005      	b.n	200026e2 <CAN_Init+0x126>
    }
    else
    {
      CANx->MCR &= ~(uint32_t)CAN_MCR_TXFP;
200026d6:	687b      	ldr	r3, [r7, #4]
200026d8:	681b      	ldr	r3, [r3, #0]
200026da:	f023 0204 	bic.w	r2, r3, #4
200026de:	687b      	ldr	r3, [r7, #4]
200026e0:	601a      	str	r2, [r3, #0]
    }

    /* Set the bit timing register */
    CANx->BTR = (uint32_t)((uint32_t)CAN_InitStruct->CAN_Mode << 30) | \
200026e2:	683b      	ldr	r3, [r7, #0]
200026e4:	789b      	ldrb	r3, [r3, #2]
200026e6:	079a      	lsls	r2, r3, #30
                ((uint32_t)CAN_InitStruct->CAN_SJW << 24) | \
200026e8:	683b      	ldr	r3, [r7, #0]
200026ea:	78db      	ldrb	r3, [r3, #3]
200026ec:	061b      	lsls	r3, r3, #24
    CANx->BTR = (uint32_t)((uint32_t)CAN_InitStruct->CAN_Mode << 30) | \
200026ee:	431a      	orrs	r2, r3
                ((uint32_t)CAN_InitStruct->CAN_BS1 << 16) | \
200026f0:	683b      	ldr	r3, [r7, #0]
200026f2:	791b      	ldrb	r3, [r3, #4]
200026f4:	041b      	lsls	r3, r3, #16
                ((uint32_t)CAN_InitStruct->CAN_SJW << 24) | \
200026f6:	431a      	orrs	r2, r3
                ((uint32_t)CAN_InitStruct->CAN_BS2 << 20) | \
200026f8:	683b      	ldr	r3, [r7, #0]
200026fa:	795b      	ldrb	r3, [r3, #5]
200026fc:	051b      	lsls	r3, r3, #20
                ((uint32_t)CAN_InitStruct->CAN_BS1 << 16) | \
200026fe:	431a      	orrs	r2, r3
               ((uint32_t)CAN_InitStruct->CAN_Prescaler - 1);
20002700:	683b      	ldr	r3, [r7, #0]
20002702:	881b      	ldrh	r3, [r3, #0]
20002704:	3b01      	subs	r3, #1
                ((uint32_t)CAN_InitStruct->CAN_BS2 << 20) | \
20002706:	431a      	orrs	r2, r3
    CANx->BTR = (uint32_t)((uint32_t)CAN_InitStruct->CAN_Mode << 30) | \
20002708:	687b      	ldr	r3, [r7, #4]
2000270a:	61da      	str	r2, [r3, #28]

    /* Request leave initialisation */
    CANx->MCR &= ~(uint32_t)CAN_MCR_INRQ;
2000270c:	687b      	ldr	r3, [r7, #4]
2000270e:	681b      	ldr	r3, [r3, #0]
20002710:	f023 0201 	bic.w	r2, r3, #1
20002714:	687b      	ldr	r3, [r7, #4]
20002716:	601a      	str	r2, [r3, #0]

   /* Wait the acknowledge */
   wait_ack = 0;
20002718:	2300      	movs	r3, #0
2000271a:	60bb      	str	r3, [r7, #8]

   while (((CANx->MSR & CAN_MSR_INAK) == CAN_MSR_INAK) && (wait_ack != INAK_TIMEOUT))
2000271c:	e002      	b.n	20002724 <CAN_Init+0x168>
   {
     wait_ack++;
2000271e:	68bb      	ldr	r3, [r7, #8]
20002720:	3301      	adds	r3, #1
20002722:	60bb      	str	r3, [r7, #8]
   while (((CANx->MSR & CAN_MSR_INAK) == CAN_MSR_INAK) && (wait_ack != INAK_TIMEOUT))
20002724:	687b      	ldr	r3, [r7, #4]
20002726:	685b      	ldr	r3, [r3, #4]
20002728:	f003 0301 	and.w	r3, r3, #1
2000272c:	2b01      	cmp	r3, #1
2000272e:	d104      	bne.n	2000273a <CAN_Init+0x17e>
20002730:	68bb      	ldr	r3, [r7, #8]
20002732:	f64f 72ff 	movw	r2, #65535	@ 0xffff
20002736:	4293      	cmp	r3, r2
20002738:	d1f1      	bne.n	2000271e <CAN_Init+0x162>
   }

    /* ...and check acknowledged */
    if ((CANx->MSR & CAN_MSR_INAK) == CAN_MSR_INAK)
2000273a:	687b      	ldr	r3, [r7, #4]
2000273c:	685b      	ldr	r3, [r3, #4]
2000273e:	f003 0301 	and.w	r3, r3, #1
20002742:	2b01      	cmp	r3, #1
20002744:	d102      	bne.n	2000274c <CAN_Init+0x190>
    {
      InitStatus = CAN_InitStatus_Failed;
20002746:	2300      	movs	r3, #0
20002748:	73fb      	strb	r3, [r7, #15]
2000274a:	e001      	b.n	20002750 <CAN_Init+0x194>
    }
    else
    {
      InitStatus = CAN_InitStatus_Success ;
2000274c:	2301      	movs	r3, #1
2000274e:	73fb      	strb	r3, [r7, #15]
    }
  }

  /* At this step, return the status of initialization */
  return InitStatus;
20002750:	7bfb      	ldrb	r3, [r7, #15]
}
20002752:	4618      	mov	r0, r3
20002754:	3714      	adds	r7, #20
20002756:	46bd      	mov	sp, r7
20002758:	f85d 7b04 	ldr.w	r7, [sp], #4
2000275c:	4770      	bx	lr

2000275e <CAN_FilterInit>:
  * @param  CAN_FilterInitStruct: pointer to a CAN_FilterInitTypeDef structure that
  *         contains the configuration information.
  * @retval None
  */
void CAN_FilterInit(CAN_FilterInitTypeDef* CAN_FilterInitStruct)
{
2000275e:	b490      	push	{r4, r7}
20002760:	b084      	sub	sp, #16
20002762:	af00      	add	r7, sp, #0
20002764:	6078      	str	r0, [r7, #4]
  uint32_t filter_number_bit_pos = 0;
20002766:	2300      	movs	r3, #0
20002768:	60fb      	str	r3, [r7, #12]
  assert_param(IS_CAN_FILTER_MODE(CAN_FilterInitStruct->CAN_FilterMode));
  assert_param(IS_CAN_FILTER_SCALE(CAN_FilterInitStruct->CAN_FilterScale));
  assert_param(IS_CAN_FILTER_FIFO(CAN_FilterInitStruct->CAN_FilterFIFOAssignment));
  assert_param(IS_FUNCTIONAL_STATE(CAN_FilterInitStruct->CAN_FilterActivation));

  filter_number_bit_pos = ((uint32_t)1) << CAN_FilterInitStruct->CAN_FilterNumber;
2000276a:	687b      	ldr	r3, [r7, #4]
2000276c:	7a9b      	ldrb	r3, [r3, #10]
2000276e:	461a      	mov	r2, r3
20002770:	2301      	movs	r3, #1
20002772:	4093      	lsls	r3, r2
20002774:	60fb      	str	r3, [r7, #12]

  /* Initialisation mode for the filter */
  CAN1->FMR |= FMR_FINIT;
20002776:	4b5a      	ldr	r3, [pc, #360]	@ (200028e0 <CAN_FilterInit+0x182>)
20002778:	f8d3 3200 	ldr.w	r3, [r3, #512]	@ 0x200
2000277c:	4a58      	ldr	r2, [pc, #352]	@ (200028e0 <CAN_FilterInit+0x182>)
2000277e:	f043 0301 	orr.w	r3, r3, #1
20002782:	f8c2 3200 	str.w	r3, [r2, #512]	@ 0x200

  /* Filter Deactivation */
  CAN1->FA1R &= ~(uint32_t)filter_number_bit_pos;
20002786:	4b56      	ldr	r3, [pc, #344]	@ (200028e0 <CAN_FilterInit+0x182>)
20002788:	f8d3 221c 	ldr.w	r2, [r3, #540]	@ 0x21c
2000278c:	68fb      	ldr	r3, [r7, #12]
2000278e:	43db      	mvns	r3, r3
20002790:	4953      	ldr	r1, [pc, #332]	@ (200028e0 <CAN_FilterInit+0x182>)
20002792:	4013      	ands	r3, r2
20002794:	f8c1 321c 	str.w	r3, [r1, #540]	@ 0x21c

  /* Filter Scale */
  if (CAN_FilterInitStruct->CAN_FilterScale == CAN_FilterScale_16bit)
20002798:	687b      	ldr	r3, [r7, #4]
2000279a:	7b1b      	ldrb	r3, [r3, #12]
2000279c:	2b00      	cmp	r3, #0
2000279e:	d129      	bne.n	200027f4 <CAN_FilterInit+0x96>
  {
    /* 16-bit scale for the filter */
    CAN1->FS1R &= ~(uint32_t)filter_number_bit_pos;
200027a0:	4b4f      	ldr	r3, [pc, #316]	@ (200028e0 <CAN_FilterInit+0x182>)
200027a2:	f8d3 220c 	ldr.w	r2, [r3, #524]	@ 0x20c
200027a6:	68fb      	ldr	r3, [r7, #12]
200027a8:	43db      	mvns	r3, r3
200027aa:	494d      	ldr	r1, [pc, #308]	@ (200028e0 <CAN_FilterInit+0x182>)
200027ac:	4013      	ands	r3, r2
200027ae:	f8c1 320c 	str.w	r3, [r1, #524]	@ 0x20c

    /* First 16-bit identifier and First 16-bit mask */
    /* Or First 16-bit identifier and Second 16-bit identifier */
    CAN1->sFilterRegister[CAN_FilterInitStruct->CAN_FilterNumber].FR1 = 
       ((0x0000FFFF & (uint32_t)CAN_FilterInitStruct->CAN_FilterMaskIdLow) << 16) |
200027b2:	687b      	ldr	r3, [r7, #4]
200027b4:	88db      	ldrh	r3, [r3, #6]
200027b6:	041b      	lsls	r3, r3, #16
        (0x0000FFFF & (uint32_t)CAN_FilterInitStruct->CAN_FilterIdLow);
200027b8:	687a      	ldr	r2, [r7, #4]
200027ba:	8852      	ldrh	r2, [r2, #2]
200027bc:	4614      	mov	r4, r2
    CAN1->sFilterRegister[CAN_FilterInitStruct->CAN_FilterNumber].FR1 = 
200027be:	4948      	ldr	r1, [pc, #288]	@ (200028e0 <CAN_FilterInit+0x182>)
200027c0:	687a      	ldr	r2, [r7, #4]
200027c2:	7a92      	ldrb	r2, [r2, #10]
200027c4:	4610      	mov	r0, r2
       ((0x0000FFFF & (uint32_t)CAN_FilterInitStruct->CAN_FilterMaskIdLow) << 16) |
200027c6:	ea43 0204 	orr.w	r2, r3, r4
    CAN1->sFilterRegister[CAN_FilterInitStruct->CAN_FilterNumber].FR1 = 
200027ca:	f100 0348 	add.w	r3, r0, #72	@ 0x48
200027ce:	f841 2033 	str.w	r2, [r1, r3, lsl #3]

    /* Second 16-bit identifier and Second 16-bit mask */
    /* Or Third 16-bit identifier and Fourth 16-bit identifier */
    CAN1->sFilterRegister[CAN_FilterInitStruct->CAN_FilterNumber].FR2 = 
       ((0x0000FFFF & (uint32_t)CAN_FilterInitStruct->CAN_FilterMaskIdHigh) << 16) |
200027d2:	687b      	ldr	r3, [r7, #4]
200027d4:	889b      	ldrh	r3, [r3, #4]
200027d6:	041b      	lsls	r3, r3, #16
        (0x0000FFFF & (uint32_t)CAN_FilterInitStruct->CAN_FilterIdHigh);
200027d8:	687a      	ldr	r2, [r7, #4]
200027da:	8812      	ldrh	r2, [r2, #0]
200027dc:	4614      	mov	r4, r2
    CAN1->sFilterRegister[CAN_FilterInitStruct->CAN_FilterNumber].FR2 = 
200027de:	4940      	ldr	r1, [pc, #256]	@ (200028e0 <CAN_FilterInit+0x182>)
200027e0:	687a      	ldr	r2, [r7, #4]
200027e2:	7a92      	ldrb	r2, [r2, #10]
200027e4:	4610      	mov	r0, r2
       ((0x0000FFFF & (uint32_t)CAN_FilterInitStruct->CAN_FilterMaskIdHigh) << 16) |
200027e6:	ea43 0204 	orr.w	r2, r3, r4
    CAN1->sFilterRegister[CAN_FilterInitStruct->CAN_FilterNumber].FR2 = 
200027ea:	f100 0348 	add.w	r3, r0, #72	@ 0x48
200027ee:	00db      	lsls	r3, r3, #3
200027f0:	440b      	add	r3, r1
200027f2:	605a      	str	r2, [r3, #4]
  }

  if (CAN_FilterInitStruct->CAN_FilterScale == CAN_FilterScale_32bit)
200027f4:	687b      	ldr	r3, [r7, #4]
200027f6:	7b1b      	ldrb	r3, [r3, #12]
200027f8:	2b01      	cmp	r3, #1
200027fa:	d128      	bne.n	2000284e <CAN_FilterInit+0xf0>
  {
    /* 32-bit scale for the filter */
    CAN1->FS1R |= filter_number_bit_pos;
200027fc:	4b38      	ldr	r3, [pc, #224]	@ (200028e0 <CAN_FilterInit+0x182>)
200027fe:	f8d3 220c 	ldr.w	r2, [r3, #524]	@ 0x20c
20002802:	4937      	ldr	r1, [pc, #220]	@ (200028e0 <CAN_FilterInit+0x182>)
20002804:	68fb      	ldr	r3, [r7, #12]
20002806:	4313      	orrs	r3, r2
20002808:	f8c1 320c 	str.w	r3, [r1, #524]	@ 0x20c
    /* 32-bit identifier or First 32-bit identifier */
    CAN1->sFilterRegister[CAN_FilterInitStruct->CAN_FilterNumber].FR1 = 
       ((0x0000FFFF & (uint32_t)CAN_FilterInitStruct->CAN_FilterIdHigh) << 16) |
2000280c:	687b      	ldr	r3, [r7, #4]
2000280e:	881b      	ldrh	r3, [r3, #0]
20002810:	041b      	lsls	r3, r3, #16
        (0x0000FFFF & (uint32_t)CAN_FilterInitStruct->CAN_FilterIdLow);
20002812:	687a      	ldr	r2, [r7, #4]
20002814:	8852      	ldrh	r2, [r2, #2]
20002816:	4614      	mov	r4, r2
    CAN1->sFilterRegister[CAN_FilterInitStruct->CAN_FilterNumber].FR1 = 
20002818:	4931      	ldr	r1, [pc, #196]	@ (200028e0 <CAN_FilterInit+0x182>)
2000281a:	687a      	ldr	r2, [r7, #4]
2000281c:	7a92      	ldrb	r2, [r2, #10]
2000281e:	4610      	mov	r0, r2
       ((0x0000FFFF & (uint32_t)CAN_FilterInitStruct->CAN_FilterIdHigh) << 16) |
20002820:	ea43 0204 	orr.w	r2, r3, r4
    CAN1->sFilterRegister[CAN_FilterInitStruct->CAN_FilterNumber].FR1 = 
20002824:	f100 0348 	add.w	r3, r0, #72	@ 0x48
20002828:	f841 2033 	str.w	r2, [r1, r3, lsl #3]
    /* 32-bit mask or Second 32-bit identifier */
    CAN1->sFilterRegister[CAN_FilterInitStruct->CAN_FilterNumber].FR2 = 
       ((0x0000FFFF & (uint32_t)CAN_FilterInitStruct->CAN_FilterMaskIdHigh) << 16) |
2000282c:	687b      	ldr	r3, [r7, #4]
2000282e:	889b      	ldrh	r3, [r3, #4]
20002830:	041b      	lsls	r3, r3, #16
        (0x0000FFFF & (uint32_t)CAN_FilterInitStruct->CAN_FilterMaskIdLow);
20002832:	687a      	ldr	r2, [r7, #4]
20002834:	88d2      	ldrh	r2, [r2, #6]
20002836:	4614      	mov	r4, r2
    CAN1->sFilterRegister[CAN_FilterInitStruct->CAN_FilterNumber].FR2 = 
20002838:	4929      	ldr	r1, [pc, #164]	@ (200028e0 <CAN_FilterInit+0x182>)
2000283a:	687a      	ldr	r2, [r7, #4]
2000283c:	7a92      	ldrb	r2, [r2, #10]
2000283e:	4610      	mov	r0, r2
       ((0x0000FFFF & (uint32_t)CAN_FilterInitStruct->CAN_FilterMaskIdHigh) << 16) |
20002840:	ea43 0204 	orr.w	r2, r3, r4
    CAN1->sFilterRegister[CAN_FilterInitStruct->CAN_FilterNumber].FR2 = 
20002844:	f100 0348 	add.w	r3, r0, #72	@ 0x48
20002848:	00db      	lsls	r3, r3, #3
2000284a:	440b      	add	r3, r1
2000284c:	605a      	str	r2, [r3, #4]
  }

  /* Filter Mode */
  if (CAN_FilterInitStruct->CAN_FilterMode == CAN_FilterMode_IdMask)
2000284e:	687b      	ldr	r3, [r7, #4]
20002850:	7adb      	ldrb	r3, [r3, #11]
20002852:	2b00      	cmp	r3, #0
20002854:	d109      	bne.n	2000286a <CAN_FilterInit+0x10c>
  {
    /*Id/Mask mode for the filter*/
    CAN1->FM1R &= ~(uint32_t)filter_number_bit_pos;
20002856:	4b22      	ldr	r3, [pc, #136]	@ (200028e0 <CAN_FilterInit+0x182>)
20002858:	f8d3 2204 	ldr.w	r2, [r3, #516]	@ 0x204
2000285c:	68fb      	ldr	r3, [r7, #12]
2000285e:	43db      	mvns	r3, r3
20002860:	491f      	ldr	r1, [pc, #124]	@ (200028e0 <CAN_FilterInit+0x182>)
20002862:	4013      	ands	r3, r2
20002864:	f8c1 3204 	str.w	r3, [r1, #516]	@ 0x204
20002868:	e007      	b.n	2000287a <CAN_FilterInit+0x11c>
  }
  else /* CAN_FilterInitStruct->CAN_FilterMode == CAN_FilterMode_IdList */
  {
    /*Identifier list mode for the filter*/
    CAN1->FM1R |= (uint32_t)filter_number_bit_pos;
2000286a:	4b1d      	ldr	r3, [pc, #116]	@ (200028e0 <CAN_FilterInit+0x182>)
2000286c:	f8d3 2204 	ldr.w	r2, [r3, #516]	@ 0x204
20002870:	491b      	ldr	r1, [pc, #108]	@ (200028e0 <CAN_FilterInit+0x182>)
20002872:	68fb      	ldr	r3, [r7, #12]
20002874:	4313      	orrs	r3, r2
20002876:	f8c1 3204 	str.w	r3, [r1, #516]	@ 0x204
  }

  /* Filter FIFO assignment */
  if (CAN_FilterInitStruct->CAN_FilterFIFOAssignment == CAN_Filter_FIFO0)
2000287a:	687b      	ldr	r3, [r7, #4]
2000287c:	891b      	ldrh	r3, [r3, #8]
2000287e:	2b00      	cmp	r3, #0
20002880:	d108      	bne.n	20002894 <CAN_FilterInit+0x136>
  {
    /* FIFO 0 assignation for the filter */
    CAN1->FFA1R &= ~(uint32_t)filter_number_bit_pos;
20002882:	4b17      	ldr	r3, [pc, #92]	@ (200028e0 <CAN_FilterInit+0x182>)
20002884:	f8d3 2214 	ldr.w	r2, [r3, #532]	@ 0x214
20002888:	68fb      	ldr	r3, [r7, #12]
2000288a:	43db      	mvns	r3, r3
2000288c:	4914      	ldr	r1, [pc, #80]	@ (200028e0 <CAN_FilterInit+0x182>)
2000288e:	4013      	ands	r3, r2
20002890:	f8c1 3214 	str.w	r3, [r1, #532]	@ 0x214
  }

  if (CAN_FilterInitStruct->CAN_FilterFIFOAssignment == CAN_Filter_FIFO1)
20002894:	687b      	ldr	r3, [r7, #4]
20002896:	891b      	ldrh	r3, [r3, #8]
20002898:	2b01      	cmp	r3, #1
2000289a:	d107      	bne.n	200028ac <CAN_FilterInit+0x14e>
  {
    /* FIFO 1 assignation for the filter */
    CAN1->FFA1R |= (uint32_t)filter_number_bit_pos;
2000289c:	4b10      	ldr	r3, [pc, #64]	@ (200028e0 <CAN_FilterInit+0x182>)
2000289e:	f8d3 2214 	ldr.w	r2, [r3, #532]	@ 0x214
200028a2:	490f      	ldr	r1, [pc, #60]	@ (200028e0 <CAN_FilterInit+0x182>)
200028a4:	68fb      	ldr	r3, [r7, #12]
200028a6:	4313      	orrs	r3, r2
200028a8:	f8c1 3214 	str.w	r3, [r1, #532]	@ 0x214
  }
  
  /* Filter activation */
  if (CAN_FilterInitStruct->CAN_FilterActivation == ENABLE)
200028ac:	687b      	ldr	r3, [r7, #4]
200028ae:	7b5b      	ldrb	r3, [r3, #13]
200028b0:	2b01      	cmp	r3, #1
200028b2:	d107      	bne.n	200028c4 <CAN_FilterInit+0x166>
  {
    CAN1->FA1R |= filter_number_bit_pos;
200028b4:	4b0a      	ldr	r3, [pc, #40]	@ (200028e0 <CAN_FilterInit+0x182>)
200028b6:	f8d3 221c 	ldr.w	r2, [r3, #540]	@ 0x21c
200028ba:	4909      	ldr	r1, [pc, #36]	@ (200028e0 <CAN_FilterInit+0x182>)
200028bc:	68fb      	ldr	r3, [r7, #12]
200028be:	4313      	orrs	r3, r2
200028c0:	f8c1 321c 	str.w	r3, [r1, #540]	@ 0x21c
  }

  /* Leave the initialisation mode for the filter */
  CAN1->FMR &= ~FMR_FINIT;
200028c4:	4b06      	ldr	r3, [pc, #24]	@ (200028e0 <CAN_FilterInit+0x182>)
200028c6:	f8d3 3200 	ldr.w	r3, [r3, #512]	@ 0x200
200028ca:	4a05      	ldr	r2, [pc, #20]	@ (200028e0 <CAN_FilterInit+0x182>)
200028cc:	f023 0301 	bic.w	r3, r3, #1
200028d0:	f8c2 3200 	str.w	r3, [r2, #512]	@ 0x200
}
200028d4:	bf00      	nop
200028d6:	3710      	adds	r7, #16
200028d8:	46bd      	mov	sp, r7
200028da:	bc90      	pop	{r4, r7}
200028dc:	4770      	bx	lr
200028de:	bf00      	nop
200028e0:	40006400 	.word	0x40006400

200028e4 <CAN_StructInit>:
  * @brief  Fills each CAN_InitStruct member with its default value.
  * @param  CAN_InitStruct: pointer to a CAN_InitTypeDef structure which ill be initialized.
  * @retval None
  */
void CAN_StructInit(CAN_InitTypeDef* CAN_InitStruct)
{
200028e4:	b480      	push	{r7}
200028e6:	b083      	sub	sp, #12
200028e8:	af00      	add	r7, sp, #0
200028ea:	6078      	str	r0, [r7, #4]
  /* Reset CAN init structure parameters values */
  
  /* Initialize the time triggered communication mode */
  CAN_InitStruct->CAN_TTCM = DISABLE;
200028ec:	687b      	ldr	r3, [r7, #4]
200028ee:	2200      	movs	r2, #0
200028f0:	719a      	strb	r2, [r3, #6]
  
  /* Initialize the automatic bus-off management */
  CAN_InitStruct->CAN_ABOM = DISABLE;
200028f2:	687b      	ldr	r3, [r7, #4]
200028f4:	2200      	movs	r2, #0
200028f6:	71da      	strb	r2, [r3, #7]
  
  /* Initialize the automatic wake-up mode */
  CAN_InitStruct->CAN_AWUM = DISABLE;
200028f8:	687b      	ldr	r3, [r7, #4]
200028fa:	2200      	movs	r2, #0
200028fc:	721a      	strb	r2, [r3, #8]
  
  /* Initialize the no automatic retransmission */
  CAN_InitStruct->CAN_NART = DISABLE;
200028fe:	687b      	ldr	r3, [r7, #4]
20002900:	2200      	movs	r2, #0
20002902:	725a      	strb	r2, [r3, #9]
  
  /* Initialize the receive FIFO locked mode */
  CAN_InitStruct->CAN_RFLM = DISABLE;
20002904:	687b      	ldr	r3, [r7, #4]
20002906:	2200      	movs	r2, #0
20002908:	729a      	strb	r2, [r3, #10]
  
  /* Initialize the transmit FIFO priority */
  CAN_InitStruct->CAN_TXFP = DISABLE;
2000290a:	687b      	ldr	r3, [r7, #4]
2000290c:	2200      	movs	r2, #0
2000290e:	72da      	strb	r2, [r3, #11]
  
  /* Initialize the CAN_Mode member */
  CAN_InitStruct->CAN_Mode = CAN_Mode_Normal;
20002910:	687b      	ldr	r3, [r7, #4]
20002912:	2200      	movs	r2, #0
20002914:	709a      	strb	r2, [r3, #2]
  
  /* Initialize the CAN_SJW member */
  CAN_InitStruct->CAN_SJW = CAN_SJW_1tq;
20002916:	687b      	ldr	r3, [r7, #4]
20002918:	2200      	movs	r2, #0
2000291a:	70da      	strb	r2, [r3, #3]
  
  /* Initialize the CAN_BS1 member */
  CAN_InitStruct->CAN_BS1 = CAN_BS1_4tq;
2000291c:	687b      	ldr	r3, [r7, #4]
2000291e:	2203      	movs	r2, #3
20002920:	711a      	strb	r2, [r3, #4]
  
  /* Initialize the CAN_BS2 member */
  CAN_InitStruct->CAN_BS2 = CAN_BS2_3tq;
20002922:	687b      	ldr	r3, [r7, #4]
20002924:	2202      	movs	r2, #2
20002926:	715a      	strb	r2, [r3, #5]
  
  /* Initialize the CAN_Prescaler member */
  CAN_InitStruct->CAN_Prescaler = 1;
20002928:	687b      	ldr	r3, [r7, #4]
2000292a:	2201      	movs	r2, #1
2000292c:	801a      	strh	r2, [r3, #0]
}
2000292e:	bf00      	nop
20002930:	370c      	adds	r7, #12
20002932:	46bd      	mov	sp, r7
20002934:	f85d 7b04 	ldr.w	r7, [sp], #4
20002938:	4770      	bx	lr

2000293a <CAN_SlaveStartBank>:
  * @brief  Select the start bank filter for slave CAN.
  * @param  CAN_BankNumber: Select the start slave bank filter from 1..27.
  * @retval None
  */
void CAN_SlaveStartBank(uint8_t CAN_BankNumber) 
{
2000293a:	b480      	push	{r7}
2000293c:	b083      	sub	sp, #12
2000293e:	af00      	add	r7, sp, #0
20002940:	4603      	mov	r3, r0
20002942:	71fb      	strb	r3, [r7, #7]
  /* Check the parameters */
  assert_param(IS_CAN_BANKNUMBER(CAN_BankNumber));
  
  /* Enter Initialisation mode for the filter */
  CAN1->FMR |= FMR_FINIT;
20002944:	4b14      	ldr	r3, [pc, #80]	@ (20002998 <CAN_SlaveStartBank+0x5e>)
20002946:	f8d3 3200 	ldr.w	r3, [r3, #512]	@ 0x200
2000294a:	4a13      	ldr	r2, [pc, #76]	@ (20002998 <CAN_SlaveStartBank+0x5e>)
2000294c:	f043 0301 	orr.w	r3, r3, #1
20002950:	f8c2 3200 	str.w	r3, [r2, #512]	@ 0x200
  
  /* Select the start slave bank */
  CAN1->FMR &= (uint32_t)0xFFFFC0F1 ;
20002954:	4b10      	ldr	r3, [pc, #64]	@ (20002998 <CAN_SlaveStartBank+0x5e>)
20002956:	f8d3 3200 	ldr.w	r3, [r3, #512]	@ 0x200
2000295a:	4a0f      	ldr	r2, [pc, #60]	@ (20002998 <CAN_SlaveStartBank+0x5e>)
2000295c:	f423 537c 	bic.w	r3, r3, #16128	@ 0x3f00
20002960:	f023 030e 	bic.w	r3, r3, #14
20002964:	f8c2 3200 	str.w	r3, [r2, #512]	@ 0x200
  CAN1->FMR |= (uint32_t)(CAN_BankNumber)<<8;
20002968:	4b0b      	ldr	r3, [pc, #44]	@ (20002998 <CAN_SlaveStartBank+0x5e>)
2000296a:	f8d3 2200 	ldr.w	r2, [r3, #512]	@ 0x200
2000296e:	79fb      	ldrb	r3, [r7, #7]
20002970:	021b      	lsls	r3, r3, #8
20002972:	4909      	ldr	r1, [pc, #36]	@ (20002998 <CAN_SlaveStartBank+0x5e>)
20002974:	4313      	orrs	r3, r2
20002976:	f8c1 3200 	str.w	r3, [r1, #512]	@ 0x200
  
  /* Leave Initialisation mode for the filter */
  CAN1->FMR &= ~FMR_FINIT;
2000297a:	4b07      	ldr	r3, [pc, #28]	@ (20002998 <CAN_SlaveStartBank+0x5e>)
2000297c:	f8d3 3200 	ldr.w	r3, [r3, #512]	@ 0x200
20002980:	4a05      	ldr	r2, [pc, #20]	@ (20002998 <CAN_SlaveStartBank+0x5e>)
20002982:	f023 0301 	bic.w	r3, r3, #1
20002986:	f8c2 3200 	str.w	r3, [r2, #512]	@ 0x200
}
2000298a:	bf00      	nop
2000298c:	370c      	adds	r7, #12
2000298e:	46bd      	mov	sp, r7
20002990:	f85d 7b04 	ldr.w	r7, [sp], #4
20002994:	4770      	bx	lr
20002996:	bf00      	nop
20002998:	40006400 	.word	0x40006400

2000299c <CAN_DBGFreeze>:
  *          during debug. Reception FIFOs can still be accessed/controlled normally) 
  *          or DISABLE (CAN is working during debug).
  * @retval None
  */
void CAN_DBGFreeze(CAN_TypeDef* CANx, FunctionalState NewState)
{
2000299c:	b480      	push	{r7}
2000299e:	b083      	sub	sp, #12
200029a0:	af00      	add	r7, sp, #0
200029a2:	6078      	str	r0, [r7, #4]
200029a4:	460b      	mov	r3, r1
200029a6:	70fb      	strb	r3, [r7, #3]
  /* Check the parameters */
  assert_param(IS_CAN_ALL_PERIPH(CANx));
  assert_param(IS_FUNCTIONAL_STATE(NewState));
  
  if (NewState != DISABLE)
200029a8:	78fb      	ldrb	r3, [r7, #3]
200029aa:	2b00      	cmp	r3, #0
200029ac:	d006      	beq.n	200029bc <CAN_DBGFreeze+0x20>
  {
    /* Enable Debug Freeze  */
    CANx->MCR |= MCR_DBF;
200029ae:	687b      	ldr	r3, [r7, #4]
200029b0:	681b      	ldr	r3, [r3, #0]
200029b2:	f443 3280 	orr.w	r2, r3, #65536	@ 0x10000
200029b6:	687b      	ldr	r3, [r7, #4]
200029b8:	601a      	str	r2, [r3, #0]
  else
  {
    /* Disable Debug Freeze */
    CANx->MCR &= ~MCR_DBF;
  }
}
200029ba:	e005      	b.n	200029c8 <CAN_DBGFreeze+0x2c>
    CANx->MCR &= ~MCR_DBF;
200029bc:	687b      	ldr	r3, [r7, #4]
200029be:	681b      	ldr	r3, [r3, #0]
200029c0:	f423 3280 	bic.w	r2, r3, #65536	@ 0x10000
200029c4:	687b      	ldr	r3, [r7, #4]
200029c6:	601a      	str	r2, [r3, #0]
}
200029c8:	bf00      	nop
200029ca:	370c      	adds	r7, #12
200029cc:	46bd      	mov	sp, r7
200029ce:	f85d 7b04 	ldr.w	r7, [sp], #4
200029d2:	4770      	bx	lr

200029d4 <CAN_TTComModeCmd>:
  *         data bytes of the 8-byte message: TIME[7:0] in data byte 6 and TIME[15:8] 
  *         in data byte 7. 
  * @retval None
  */
void CAN_TTComModeCmd(CAN_TypeDef* CANx, FunctionalState NewState)
{
200029d4:	b480      	push	{r7}
200029d6:	b083      	sub	sp, #12
200029d8:	af00      	add	r7, sp, #0
200029da:	6078      	str	r0, [r7, #4]
200029dc:	460b      	mov	r3, r1
200029de:	70fb      	strb	r3, [r7, #3]
  /* Check the parameters */
  assert_param(IS_CAN_ALL_PERIPH(CANx));
  assert_param(IS_FUNCTIONAL_STATE(NewState));
  if (NewState != DISABLE)
200029e0:	78fb      	ldrb	r3, [r7, #3]
200029e2:	2b00      	cmp	r3, #0
200029e4:	d01e      	beq.n	20002a24 <CAN_TTComModeCmd+0x50>
  {
    /* Enable the TTCM mode */
    CANx->MCR |= CAN_MCR_TTCM;
200029e6:	687b      	ldr	r3, [r7, #4]
200029e8:	681b      	ldr	r3, [r3, #0]
200029ea:	f043 0280 	orr.w	r2, r3, #128	@ 0x80
200029ee:	687b      	ldr	r3, [r7, #4]
200029f0:	601a      	str	r2, [r3, #0]

    /* Set TGT bits */
    CANx->sTxMailBox[0].TDTR |= ((uint32_t)CAN_TDT0R_TGT);
200029f2:	687b      	ldr	r3, [r7, #4]
200029f4:	f8d3 3184 	ldr.w	r3, [r3, #388]	@ 0x184
200029f8:	f443 7280 	orr.w	r2, r3, #256	@ 0x100
200029fc:	687b      	ldr	r3, [r7, #4]
200029fe:	f8c3 2184 	str.w	r2, [r3, #388]	@ 0x184
    CANx->sTxMailBox[1].TDTR |= ((uint32_t)CAN_TDT1R_TGT);
20002a02:	687b      	ldr	r3, [r7, #4]
20002a04:	f8d3 3194 	ldr.w	r3, [r3, #404]	@ 0x194
20002a08:	f443 7280 	orr.w	r2, r3, #256	@ 0x100
20002a0c:	687b      	ldr	r3, [r7, #4]
20002a0e:	f8c3 2194 	str.w	r2, [r3, #404]	@ 0x194
    CANx->sTxMailBox[2].TDTR |= ((uint32_t)CAN_TDT2R_TGT);
20002a12:	687b      	ldr	r3, [r7, #4]
20002a14:	f8d3 31a4 	ldr.w	r3, [r3, #420]	@ 0x1a4
20002a18:	f443 7280 	orr.w	r2, r3, #256	@ 0x100
20002a1c:	687b      	ldr	r3, [r7, #4]
20002a1e:	f8c3 21a4 	str.w	r2, [r3, #420]	@ 0x1a4
    /* Reset TGT bits */
    CANx->sTxMailBox[0].TDTR &= ((uint32_t)~CAN_TDT0R_TGT);
    CANx->sTxMailBox[1].TDTR &= ((uint32_t)~CAN_TDT1R_TGT);
    CANx->sTxMailBox[2].TDTR &= ((uint32_t)~CAN_TDT2R_TGT);
  }
}
20002a22:	e01d      	b.n	20002a60 <CAN_TTComModeCmd+0x8c>
    CANx->MCR &= (uint32_t)(~(uint32_t)CAN_MCR_TTCM);
20002a24:	687b      	ldr	r3, [r7, #4]
20002a26:	681b      	ldr	r3, [r3, #0]
20002a28:	f023 0280 	bic.w	r2, r3, #128	@ 0x80
20002a2c:	687b      	ldr	r3, [r7, #4]
20002a2e:	601a      	str	r2, [r3, #0]
    CANx->sTxMailBox[0].TDTR &= ((uint32_t)~CAN_TDT0R_TGT);
20002a30:	687b      	ldr	r3, [r7, #4]
20002a32:	f8d3 3184 	ldr.w	r3, [r3, #388]	@ 0x184
20002a36:	f423 7280 	bic.w	r2, r3, #256	@ 0x100
20002a3a:	687b      	ldr	r3, [r7, #4]
20002a3c:	f8c3 2184 	str.w	r2, [r3, #388]	@ 0x184
    CANx->sTxMailBox[1].TDTR &= ((uint32_t)~CAN_TDT1R_TGT);
20002a40:	687b      	ldr	r3, [r7, #4]
20002a42:	f8d3 3194 	ldr.w	r3, [r3, #404]	@ 0x194
20002a46:	f423 7280 	bic.w	r2, r3, #256	@ 0x100
20002a4a:	687b      	ldr	r3, [r7, #4]
20002a4c:	f8c3 2194 	str.w	r2, [r3, #404]	@ 0x194
    CANx->sTxMailBox[2].TDTR &= ((uint32_t)~CAN_TDT2R_TGT);
20002a50:	687b      	ldr	r3, [r7, #4]
20002a52:	f8d3 31a4 	ldr.w	r3, [r3, #420]	@ 0x1a4
20002a56:	f423 7280 	bic.w	r2, r3, #256	@ 0x100
20002a5a:	687b      	ldr	r3, [r7, #4]
20002a5c:	f8c3 21a4 	str.w	r2, [r3, #420]	@ 0x1a4
}
20002a60:	bf00      	nop
20002a62:	370c      	adds	r7, #12
20002a64:	46bd      	mov	sp, r7
20002a66:	f85d 7b04 	ldr.w	r7, [sp], #4
20002a6a:	4770      	bx	lr

20002a6c <CAN_Transmit>:
  * @param  TxMessage: pointer to a structure which contains CAN Id, CAN DLC and CAN data.
  * @retval The number of the mailbox that is used for transmission or
  *         CAN_TxStatus_NoMailBox if there is no empty mailbox.
  */
uint8_t CAN_Transmit(CAN_TypeDef* CANx, CanTxMsg* TxMessage)
{
20002a6c:	b480      	push	{r7}
20002a6e:	b085      	sub	sp, #20
20002a70:	af00      	add	r7, sp, #0
20002a72:	6078      	str	r0, [r7, #4]
20002a74:	6039      	str	r1, [r7, #0]
  uint8_t transmit_mailbox = 0;
20002a76:	2300      	movs	r3, #0
20002a78:	73fb      	strb	r3, [r7, #15]
  assert_param(IS_CAN_IDTYPE(TxMessage->IDE));
  assert_param(IS_CAN_RTR(TxMessage->RTR));
  assert_param(IS_CAN_DLC(TxMessage->DLC));

  /* Select one empty transmit mailbox */
  if ((CANx->TSR&CAN_TSR_TME0) == CAN_TSR_TME0)
20002a7a:	687b      	ldr	r3, [r7, #4]
20002a7c:	689b      	ldr	r3, [r3, #8]
20002a7e:	f003 6380 	and.w	r3, r3, #67108864	@ 0x4000000
20002a82:	f1b3 6f80 	cmp.w	r3, #67108864	@ 0x4000000
20002a86:	d102      	bne.n	20002a8e <CAN_Transmit+0x22>
  {
    transmit_mailbox = 0;
20002a88:	2300      	movs	r3, #0
20002a8a:	73fb      	strb	r3, [r7, #15]
20002a8c:	e015      	b.n	20002aba <CAN_Transmit+0x4e>
  }
  else if ((CANx->TSR&CAN_TSR_TME1) == CAN_TSR_TME1)
20002a8e:	687b      	ldr	r3, [r7, #4]
20002a90:	689b      	ldr	r3, [r3, #8]
20002a92:	f003 6300 	and.w	r3, r3, #134217728	@ 0x8000000
20002a96:	f1b3 6f00 	cmp.w	r3, #134217728	@ 0x8000000
20002a9a:	d102      	bne.n	20002aa2 <CAN_Transmit+0x36>
  {
    transmit_mailbox = 1;
20002a9c:	2301      	movs	r3, #1
20002a9e:	73fb      	strb	r3, [r7, #15]
20002aa0:	e00b      	b.n	20002aba <CAN_Transmit+0x4e>
  }
  else if ((CANx->TSR&CAN_TSR_TME2) == CAN_TSR_TME2)
20002aa2:	687b      	ldr	r3, [r7, #4]
20002aa4:	689b      	ldr	r3, [r3, #8]
20002aa6:	f003 5380 	and.w	r3, r3, #268435456	@ 0x10000000
20002aaa:	f1b3 5f80 	cmp.w	r3, #268435456	@ 0x10000000
20002aae:	d102      	bne.n	20002ab6 <CAN_Transmit+0x4a>
  {
    transmit_mailbox = 2;
20002ab0:	2302      	movs	r3, #2
20002ab2:	73fb      	strb	r3, [r7, #15]
20002ab4:	e001      	b.n	20002aba <CAN_Transmit+0x4e>
  }
  else
  {
    transmit_mailbox = CAN_TxStatus_NoMailBox;
20002ab6:	2304      	movs	r3, #4
20002ab8:	73fb      	strb	r3, [r7, #15]
  }

  if (transmit_mailbox != CAN_TxStatus_NoMailBox)
20002aba:	7bfb      	ldrb	r3, [r7, #15]
20002abc:	2b04      	cmp	r3, #4
20002abe:	f000 809f 	beq.w	20002c00 <CAN_Transmit+0x194>
  {
    /* Set up the Id */
    CANx->sTxMailBox[transmit_mailbox].TIR &= TMIDxR_TXRQ;
20002ac2:	7bfb      	ldrb	r3, [r7, #15]
20002ac4:	687a      	ldr	r2, [r7, #4]
20002ac6:	3318      	adds	r3, #24
20002ac8:	011b      	lsls	r3, r3, #4
20002aca:	4413      	add	r3, r2
20002acc:	681a      	ldr	r2, [r3, #0]
20002ace:	7bfb      	ldrb	r3, [r7, #15]
20002ad0:	f002 0201 	and.w	r2, r2, #1
20002ad4:	6879      	ldr	r1, [r7, #4]
20002ad6:	3318      	adds	r3, #24
20002ad8:	011b      	lsls	r3, r3, #4
20002ada:	440b      	add	r3, r1
20002adc:	601a      	str	r2, [r3, #0]
    if (TxMessage->IDE == CAN_Id_Standard)
20002ade:	683b      	ldr	r3, [r7, #0]
20002ae0:	7a1b      	ldrb	r3, [r3, #8]
20002ae2:	2b00      	cmp	r3, #0
20002ae4:	d113      	bne.n	20002b0e <CAN_Transmit+0xa2>
    {
      assert_param(IS_CAN_STDID(TxMessage->StdId));  
      CANx->sTxMailBox[transmit_mailbox].TIR |= ((TxMessage->StdId << 21) | \
20002ae6:	7bfb      	ldrb	r3, [r7, #15]
20002ae8:	687a      	ldr	r2, [r7, #4]
20002aea:	3318      	adds	r3, #24
20002aec:	011b      	lsls	r3, r3, #4
20002aee:	4413      	add	r3, r2
20002af0:	6819      	ldr	r1, [r3, #0]
20002af2:	683b      	ldr	r3, [r7, #0]
20002af4:	681b      	ldr	r3, [r3, #0]
20002af6:	055b      	lsls	r3, r3, #21
                                                  TxMessage->RTR);
20002af8:	683a      	ldr	r2, [r7, #0]
20002afa:	7a52      	ldrb	r2, [r2, #9]
      CANx->sTxMailBox[transmit_mailbox].TIR |= ((TxMessage->StdId << 21) | \
20002afc:	431a      	orrs	r2, r3
20002afe:	7bfb      	ldrb	r3, [r7, #15]
20002b00:	430a      	orrs	r2, r1
20002b02:	6879      	ldr	r1, [r7, #4]
20002b04:	3318      	adds	r3, #24
20002b06:	011b      	lsls	r3, r3, #4
20002b08:	440b      	add	r3, r1
20002b0a:	601a      	str	r2, [r3, #0]
20002b0c:	e015      	b.n	20002b3a <CAN_Transmit+0xce>
    }
    else
    {
      assert_param(IS_CAN_EXTID(TxMessage->ExtId));
      CANx->sTxMailBox[transmit_mailbox].TIR |= ((TxMessage->ExtId << 3) | \
20002b0e:	7bfb      	ldrb	r3, [r7, #15]
20002b10:	687a      	ldr	r2, [r7, #4]
20002b12:	3318      	adds	r3, #24
20002b14:	011b      	lsls	r3, r3, #4
20002b16:	4413      	add	r3, r2
20002b18:	6819      	ldr	r1, [r3, #0]
20002b1a:	683b      	ldr	r3, [r7, #0]
20002b1c:	685b      	ldr	r3, [r3, #4]
20002b1e:	00db      	lsls	r3, r3, #3
                                                  TxMessage->IDE | \
20002b20:	683a      	ldr	r2, [r7, #0]
20002b22:	7a12      	ldrb	r2, [r2, #8]
      CANx->sTxMailBox[transmit_mailbox].TIR |= ((TxMessage->ExtId << 3) | \
20002b24:	4313      	orrs	r3, r2
                                                  TxMessage->RTR);
20002b26:	683a      	ldr	r2, [r7, #0]
20002b28:	7a52      	ldrb	r2, [r2, #9]
                                                  TxMessage->IDE | \
20002b2a:	431a      	orrs	r2, r3
      CANx->sTxMailBox[transmit_mailbox].TIR |= ((TxMessage->ExtId << 3) | \
20002b2c:	7bfb      	ldrb	r3, [r7, #15]
20002b2e:	430a      	orrs	r2, r1
20002b30:	6879      	ldr	r1, [r7, #4]
20002b32:	3318      	adds	r3, #24
20002b34:	011b      	lsls	r3, r3, #4
20002b36:	440b      	add	r3, r1
20002b38:	601a      	str	r2, [r3, #0]
    }
    
    /* Set up the DLC */
    TxMessage->DLC &= (uint8_t)0x0000000F;
20002b3a:	683b      	ldr	r3, [r7, #0]
20002b3c:	7a9b      	ldrb	r3, [r3, #10]
20002b3e:	f003 030f 	and.w	r3, r3, #15
20002b42:	b2da      	uxtb	r2, r3
20002b44:	683b      	ldr	r3, [r7, #0]
20002b46:	729a      	strb	r2, [r3, #10]
    CANx->sTxMailBox[transmit_mailbox].TDTR &= (uint32_t)0xFFFFFFF0;
20002b48:	7bfb      	ldrb	r3, [r7, #15]
20002b4a:	687a      	ldr	r2, [r7, #4]
20002b4c:	3318      	adds	r3, #24
20002b4e:	011b      	lsls	r3, r3, #4
20002b50:	4413      	add	r3, r2
20002b52:	3304      	adds	r3, #4
20002b54:	681a      	ldr	r2, [r3, #0]
20002b56:	7bfb      	ldrb	r3, [r7, #15]
20002b58:	f022 020f 	bic.w	r2, r2, #15
20002b5c:	6879      	ldr	r1, [r7, #4]
20002b5e:	3318      	adds	r3, #24
20002b60:	011b      	lsls	r3, r3, #4
20002b62:	440b      	add	r3, r1
20002b64:	3304      	adds	r3, #4
20002b66:	601a      	str	r2, [r3, #0]
    CANx->sTxMailBox[transmit_mailbox].TDTR |= TxMessage->DLC;
20002b68:	7bfb      	ldrb	r3, [r7, #15]
20002b6a:	687a      	ldr	r2, [r7, #4]
20002b6c:	3318      	adds	r3, #24
20002b6e:	011b      	lsls	r3, r3, #4
20002b70:	4413      	add	r3, r2
20002b72:	3304      	adds	r3, #4
20002b74:	681a      	ldr	r2, [r3, #0]
20002b76:	683b      	ldr	r3, [r7, #0]
20002b78:	7a9b      	ldrb	r3, [r3, #10]
20002b7a:	4619      	mov	r1, r3
20002b7c:	7bfb      	ldrb	r3, [r7, #15]
20002b7e:	430a      	orrs	r2, r1
20002b80:	6879      	ldr	r1, [r7, #4]
20002b82:	3318      	adds	r3, #24
20002b84:	011b      	lsls	r3, r3, #4
20002b86:	440b      	add	r3, r1
20002b88:	3304      	adds	r3, #4
20002b8a:	601a      	str	r2, [r3, #0]

    /* Set up the data field */
    CANx->sTxMailBox[transmit_mailbox].TDLR = (((uint32_t)TxMessage->Data[3] << 24) | 
20002b8c:	683b      	ldr	r3, [r7, #0]
20002b8e:	7b9b      	ldrb	r3, [r3, #14]
20002b90:	061a      	lsls	r2, r3, #24
                                             ((uint32_t)TxMessage->Data[2] << 16) |
20002b92:	683b      	ldr	r3, [r7, #0]
20002b94:	7b5b      	ldrb	r3, [r3, #13]
20002b96:	041b      	lsls	r3, r3, #16
    CANx->sTxMailBox[transmit_mailbox].TDLR = (((uint32_t)TxMessage->Data[3] << 24) | 
20002b98:	431a      	orrs	r2, r3
                                             ((uint32_t)TxMessage->Data[1] << 8) | 
20002b9a:	683b      	ldr	r3, [r7, #0]
20002b9c:	7b1b      	ldrb	r3, [r3, #12]
20002b9e:	021b      	lsls	r3, r3, #8
                                             ((uint32_t)TxMessage->Data[2] << 16) |
20002ba0:	431a      	orrs	r2, r3
                                             ((uint32_t)TxMessage->Data[0]));
20002ba2:	683b      	ldr	r3, [r7, #0]
20002ba4:	7adb      	ldrb	r3, [r3, #11]
20002ba6:	4619      	mov	r1, r3
    CANx->sTxMailBox[transmit_mailbox].TDLR = (((uint32_t)TxMessage->Data[3] << 24) | 
20002ba8:	7bfb      	ldrb	r3, [r7, #15]
                                             ((uint32_t)TxMessage->Data[1] << 8) | 
20002baa:	430a      	orrs	r2, r1
    CANx->sTxMailBox[transmit_mailbox].TDLR = (((uint32_t)TxMessage->Data[3] << 24) | 
20002bac:	6879      	ldr	r1, [r7, #4]
20002bae:	011b      	lsls	r3, r3, #4
20002bb0:	440b      	add	r3, r1
20002bb2:	f503 73c4 	add.w	r3, r3, #392	@ 0x188
20002bb6:	601a      	str	r2, [r3, #0]
    CANx->sTxMailBox[transmit_mailbox].TDHR = (((uint32_t)TxMessage->Data[7] << 24) | 
20002bb8:	683b      	ldr	r3, [r7, #0]
20002bba:	7c9b      	ldrb	r3, [r3, #18]
20002bbc:	061a      	lsls	r2, r3, #24
                                             ((uint32_t)TxMessage->Data[6] << 16) |
20002bbe:	683b      	ldr	r3, [r7, #0]
20002bc0:	7c5b      	ldrb	r3, [r3, #17]
20002bc2:	041b      	lsls	r3, r3, #16
    CANx->sTxMailBox[transmit_mailbox].TDHR = (((uint32_t)TxMessage->Data[7] << 24) | 
20002bc4:	431a      	orrs	r2, r3
                                             ((uint32_t)TxMessage->Data[5] << 8) |
20002bc6:	683b      	ldr	r3, [r7, #0]
20002bc8:	7c1b      	ldrb	r3, [r3, #16]
20002bca:	021b      	lsls	r3, r3, #8
                                             ((uint32_t)TxMessage->Data[6] << 16) |
20002bcc:	431a      	orrs	r2, r3
                                             ((uint32_t)TxMessage->Data[4]));
20002bce:	683b      	ldr	r3, [r7, #0]
20002bd0:	7bdb      	ldrb	r3, [r3, #15]
20002bd2:	4619      	mov	r1, r3
    CANx->sTxMailBox[transmit_mailbox].TDHR = (((uint32_t)TxMessage->Data[7] << 24) | 
20002bd4:	7bfb      	ldrb	r3, [r7, #15]
                                             ((uint32_t)TxMessage->Data[5] << 8) |
20002bd6:	430a      	orrs	r2, r1
    CANx->sTxMailBox[transmit_mailbox].TDHR = (((uint32_t)TxMessage->Data[7] << 24) | 
20002bd8:	6879      	ldr	r1, [r7, #4]
20002bda:	011b      	lsls	r3, r3, #4
20002bdc:	440b      	add	r3, r1
20002bde:	f503 73c6 	add.w	r3, r3, #396	@ 0x18c
20002be2:	601a      	str	r2, [r3, #0]
    /* Request transmission */
    CANx->sTxMailBox[transmit_mailbox].TIR |= TMIDxR_TXRQ;
20002be4:	7bfb      	ldrb	r3, [r7, #15]
20002be6:	687a      	ldr	r2, [r7, #4]
20002be8:	3318      	adds	r3, #24
20002bea:	011b      	lsls	r3, r3, #4
20002bec:	4413      	add	r3, r2
20002bee:	681a      	ldr	r2, [r3, #0]
20002bf0:	7bfb      	ldrb	r3, [r7, #15]
20002bf2:	f042 0201 	orr.w	r2, r2, #1
20002bf6:	6879      	ldr	r1, [r7, #4]
20002bf8:	3318      	adds	r3, #24
20002bfa:	011b      	lsls	r3, r3, #4
20002bfc:	440b      	add	r3, r1
20002bfe:	601a      	str	r2, [r3, #0]
  }
  return transmit_mailbox;
20002c00:	7bfb      	ldrb	r3, [r7, #15]
}
20002c02:	4618      	mov	r0, r3
20002c04:	3714      	adds	r7, #20
20002c06:	46bd      	mov	sp, r7
20002c08:	f85d 7b04 	ldr.w	r7, [sp], #4
20002c0c:	4770      	bx	lr

20002c0e <CAN_TransmitStatus>:
  * @param  TransmitMailbox: the number of the mailbox that is used for transmission.
  * @retval CAN_TxStatus_Ok if the CAN driver transmits the message, 
  *         CAN_TxStatus_Failed in an other case.
  */
uint8_t CAN_TransmitStatus(CAN_TypeDef* CANx, uint8_t TransmitMailbox)
{
20002c0e:	b480      	push	{r7}
20002c10:	b085      	sub	sp, #20
20002c12:	af00      	add	r7, sp, #0
20002c14:	6078      	str	r0, [r7, #4]
20002c16:	460b      	mov	r3, r1
20002c18:	70fb      	strb	r3, [r7, #3]
  uint32_t state = 0;
20002c1a:	2300      	movs	r3, #0
20002c1c:	60fb      	str	r3, [r7, #12]

  /* Check the parameters */
  assert_param(IS_CAN_ALL_PERIPH(CANx));
  assert_param(IS_CAN_TRANSMITMAILBOX(TransmitMailbox));
 
  switch (TransmitMailbox)
20002c1e:	78fb      	ldrb	r3, [r7, #3]
20002c20:	2b02      	cmp	r3, #2
20002c22:	d012      	beq.n	20002c4a <CAN_TransmitStatus+0x3c>
20002c24:	2b02      	cmp	r3, #2
20002c26:	dc16      	bgt.n	20002c56 <CAN_TransmitStatus+0x48>
20002c28:	2b00      	cmp	r3, #0
20002c2a:	d002      	beq.n	20002c32 <CAN_TransmitStatus+0x24>
20002c2c:	2b01      	cmp	r3, #1
20002c2e:	d006      	beq.n	20002c3e <CAN_TransmitStatus+0x30>
20002c30:	e011      	b.n	20002c56 <CAN_TransmitStatus+0x48>
  {
    case (CAN_TXMAILBOX_0): 
      state =   CANx->TSR &  (CAN_TSR_RQCP0 | CAN_TSR_TXOK0 | CAN_TSR_TME0);
20002c32:	687b      	ldr	r3, [r7, #4]
20002c34:	689a      	ldr	r2, [r3, #8]
20002c36:	4b31      	ldr	r3, [pc, #196]	@ (20002cfc <CAN_TransmitStatus+0xee>)
20002c38:	4013      	ands	r3, r2
20002c3a:	60fb      	str	r3, [r7, #12]
      break;
20002c3c:	e00e      	b.n	20002c5c <CAN_TransmitStatus+0x4e>
    case (CAN_TXMAILBOX_1): 
      state =   CANx->TSR &  (CAN_TSR_RQCP1 | CAN_TSR_TXOK1 | CAN_TSR_TME1);
20002c3e:	687b      	ldr	r3, [r7, #4]
20002c40:	689a      	ldr	r2, [r3, #8]
20002c42:	4b2f      	ldr	r3, [pc, #188]	@ (20002d00 <CAN_TransmitStatus+0xf2>)
20002c44:	4013      	ands	r3, r2
20002c46:	60fb      	str	r3, [r7, #12]
      break;
20002c48:	e008      	b.n	20002c5c <CAN_TransmitStatus+0x4e>
    case (CAN_TXMAILBOX_2): 
      state =   CANx->TSR &  (CAN_TSR_RQCP2 | CAN_TSR_TXOK2 | CAN_TSR_TME2);
20002c4a:	687b      	ldr	r3, [r7, #4]
20002c4c:	689a      	ldr	r2, [r3, #8]
20002c4e:	4b2d      	ldr	r3, [pc, #180]	@ (20002d04 <CAN_TransmitStatus+0xf6>)
20002c50:	4013      	ands	r3, r2
20002c52:	60fb      	str	r3, [r7, #12]
      break;
20002c54:	e002      	b.n	20002c5c <CAN_TransmitStatus+0x4e>
    default:
      state = CAN_TxStatus_Failed;
20002c56:	2300      	movs	r3, #0
20002c58:	60fb      	str	r3, [r7, #12]
      break;
20002c5a:	bf00      	nop
  }
  switch (state)
20002c5c:	68fb      	ldr	r3, [r7, #12]
20002c5e:	4a29      	ldr	r2, [pc, #164]	@ (20002d04 <CAN_TransmitStatus+0xf6>)
20002c60:	4293      	cmp	r3, r2
20002c62:	d03d      	beq.n	20002ce0 <CAN_TransmitStatus+0xd2>
20002c64:	68fb      	ldr	r3, [r7, #12]
20002c66:	4a27      	ldr	r2, [pc, #156]	@ (20002d04 <CAN_TransmitStatus+0xf6>)
20002c68:	4293      	cmp	r3, r2
20002c6a:	d83c      	bhi.n	20002ce6 <CAN_TransmitStatus+0xd8>
20002c6c:	68fb      	ldr	r3, [r7, #12]
20002c6e:	4a26      	ldr	r2, [pc, #152]	@ (20002d08 <CAN_TransmitStatus+0xfa>)
20002c70:	4293      	cmp	r3, r2
20002c72:	d02c      	beq.n	20002cce <CAN_TransmitStatus+0xc0>
20002c74:	68fb      	ldr	r3, [r7, #12]
20002c76:	4a24      	ldr	r2, [pc, #144]	@ (20002d08 <CAN_TransmitStatus+0xfa>)
20002c78:	4293      	cmp	r3, r2
20002c7a:	d834      	bhi.n	20002ce6 <CAN_TransmitStatus+0xd8>
20002c7c:	68fb      	ldr	r3, [r7, #12]
20002c7e:	4a20      	ldr	r2, [pc, #128]	@ (20002d00 <CAN_TransmitStatus+0xf2>)
20002c80:	4293      	cmp	r3, r2
20002c82:	d02a      	beq.n	20002cda <CAN_TransmitStatus+0xcc>
20002c84:	68fb      	ldr	r3, [r7, #12]
20002c86:	4a1e      	ldr	r2, [pc, #120]	@ (20002d00 <CAN_TransmitStatus+0xf2>)
20002c88:	4293      	cmp	r3, r2
20002c8a:	d82c      	bhi.n	20002ce6 <CAN_TransmitStatus+0xd8>
20002c8c:	68fb      	ldr	r3, [r7, #12]
20002c8e:	4a1f      	ldr	r2, [pc, #124]	@ (20002d0c <CAN_TransmitStatus+0xfe>)
20002c90:	4293      	cmp	r3, r2
20002c92:	d019      	beq.n	20002cc8 <CAN_TransmitStatus+0xba>
20002c94:	68fb      	ldr	r3, [r7, #12]
20002c96:	4a1d      	ldr	r2, [pc, #116]	@ (20002d0c <CAN_TransmitStatus+0xfe>)
20002c98:	4293      	cmp	r3, r2
20002c9a:	d824      	bhi.n	20002ce6 <CAN_TransmitStatus+0xd8>
20002c9c:	68fb      	ldr	r3, [r7, #12]
20002c9e:	4a17      	ldr	r2, [pc, #92]	@ (20002cfc <CAN_TransmitStatus+0xee>)
20002ca0:	4293      	cmp	r3, r2
20002ca2:	d017      	beq.n	20002cd4 <CAN_TransmitStatus+0xc6>
20002ca4:	68fb      	ldr	r3, [r7, #12]
20002ca6:	4a15      	ldr	r2, [pc, #84]	@ (20002cfc <CAN_TransmitStatus+0xee>)
20002ca8:	4293      	cmp	r3, r2
20002caa:	d81c      	bhi.n	20002ce6 <CAN_TransmitStatus+0xd8>
20002cac:	68fb      	ldr	r3, [r7, #12]
20002cae:	2b00      	cmp	r3, #0
20002cb0:	d004      	beq.n	20002cbc <CAN_TransmitStatus+0xae>
20002cb2:	68fb      	ldr	r3, [r7, #12]
20002cb4:	4a16      	ldr	r2, [pc, #88]	@ (20002d10 <CAN_TransmitStatus+0x102>)
20002cb6:	4293      	cmp	r3, r2
20002cb8:	d003      	beq.n	20002cc2 <CAN_TransmitStatus+0xb4>
20002cba:	e014      	b.n	20002ce6 <CAN_TransmitStatus+0xd8>
  {
      /* transmit pending  */
    case (0x0): state = CAN_TxStatus_Pending;
20002cbc:	2302      	movs	r3, #2
20002cbe:	60fb      	str	r3, [r7, #12]
      break;
20002cc0:	e014      	b.n	20002cec <CAN_TransmitStatus+0xde>
      /* transmit failed  */
     case (CAN_TSR_RQCP0 | CAN_TSR_TME0): state = CAN_TxStatus_Failed;
20002cc2:	2300      	movs	r3, #0
20002cc4:	60fb      	str	r3, [r7, #12]
      break;
20002cc6:	e011      	b.n	20002cec <CAN_TransmitStatus+0xde>
     case (CAN_TSR_RQCP1 | CAN_TSR_TME1): state = CAN_TxStatus_Failed;
20002cc8:	2300      	movs	r3, #0
20002cca:	60fb      	str	r3, [r7, #12]
      break;
20002ccc:	e00e      	b.n	20002cec <CAN_TransmitStatus+0xde>
     case (CAN_TSR_RQCP2 | CAN_TSR_TME2): state = CAN_TxStatus_Failed;
20002cce:	2300      	movs	r3, #0
20002cd0:	60fb      	str	r3, [r7, #12]
      break;
20002cd2:	e00b      	b.n	20002cec <CAN_TransmitStatus+0xde>
      /* transmit succeeded  */
    case (CAN_TSR_RQCP0 | CAN_TSR_TXOK0 | CAN_TSR_TME0):state = CAN_TxStatus_Ok;
20002cd4:	2301      	movs	r3, #1
20002cd6:	60fb      	str	r3, [r7, #12]
      break;
20002cd8:	e008      	b.n	20002cec <CAN_TransmitStatus+0xde>
    case (CAN_TSR_RQCP1 | CAN_TSR_TXOK1 | CAN_TSR_TME1):state = CAN_TxStatus_Ok;
20002cda:	2301      	movs	r3, #1
20002cdc:	60fb      	str	r3, [r7, #12]
      break;
20002cde:	e005      	b.n	20002cec <CAN_TransmitStatus+0xde>
    case (CAN_TSR_RQCP2 | CAN_TSR_TXOK2 | CAN_TSR_TME2):state = CAN_TxStatus_Ok;
20002ce0:	2301      	movs	r3, #1
20002ce2:	60fb      	str	r3, [r7, #12]
      break;
20002ce4:	e002      	b.n	20002cec <CAN_TransmitStatus+0xde>
    default: state = CAN_TxStatus_Failed;
20002ce6:	2300      	movs	r3, #0
20002ce8:	60fb      	str	r3, [r7, #12]
      break;
20002cea:	bf00      	nop
  }
  return (uint8_t) state;
20002cec:	68fb      	ldr	r3, [r7, #12]
20002cee:	b2db      	uxtb	r3, r3
}
20002cf0:	4618      	mov	r0, r3
20002cf2:	3714      	adds	r7, #20
20002cf4:	46bd      	mov	sp, r7
20002cf6:	f85d 7b04 	ldr.w	r7, [sp], #4
20002cfa:	4770      	bx	lr
20002cfc:	04000003 	.word	0x04000003
20002d00:	08000300 	.word	0x08000300
20002d04:	10030000 	.word	0x10030000
20002d08:	10010000 	.word	0x10010000
20002d0c:	08000100 	.word	0x08000100
20002d10:	04000001 	.word	0x04000001

20002d14 <CAN_CancelTransmit>:
  * @param  CANx: where x can be 1 or 2 to select the CAN peripheral.
  * @param  Mailbox: Mailbox number.
  * @retval None
  */
void CAN_CancelTransmit(CAN_TypeDef* CANx, uint8_t Mailbox)
{
20002d14:	b480      	push	{r7}
20002d16:	b083      	sub	sp, #12
20002d18:	af00      	add	r7, sp, #0
20002d1a:	6078      	str	r0, [r7, #4]
20002d1c:	460b      	mov	r3, r1
20002d1e:	70fb      	strb	r3, [r7, #3]
  /* Check the parameters */
  assert_param(IS_CAN_ALL_PERIPH(CANx));
  assert_param(IS_CAN_TRANSMITMAILBOX(Mailbox));
  /* abort transmission */
  switch (Mailbox)
20002d20:	78fb      	ldrb	r3, [r7, #3]
20002d22:	2b02      	cmp	r3, #2
20002d24:	d014      	beq.n	20002d50 <CAN_CancelTransmit+0x3c>
20002d26:	2b02      	cmp	r3, #2
20002d28:	dc19      	bgt.n	20002d5e <CAN_CancelTransmit+0x4a>
20002d2a:	2b00      	cmp	r3, #0
20002d2c:	d002      	beq.n	20002d34 <CAN_CancelTransmit+0x20>
20002d2e:	2b01      	cmp	r3, #1
20002d30:	d007      	beq.n	20002d42 <CAN_CancelTransmit+0x2e>
    case (CAN_TXMAILBOX_1): CANx->TSR |= CAN_TSR_ABRQ1;
      break;
    case (CAN_TXMAILBOX_2): CANx->TSR |= CAN_TSR_ABRQ2;
      break;
    default:
      break;
20002d32:	e014      	b.n	20002d5e <CAN_CancelTransmit+0x4a>
    case (CAN_TXMAILBOX_0): CANx->TSR |= CAN_TSR_ABRQ0;
20002d34:	687b      	ldr	r3, [r7, #4]
20002d36:	689b      	ldr	r3, [r3, #8]
20002d38:	f043 0280 	orr.w	r2, r3, #128	@ 0x80
20002d3c:	687b      	ldr	r3, [r7, #4]
20002d3e:	609a      	str	r2, [r3, #8]
      break;
20002d40:	e00e      	b.n	20002d60 <CAN_CancelTransmit+0x4c>
    case (CAN_TXMAILBOX_1): CANx->TSR |= CAN_TSR_ABRQ1;
20002d42:	687b      	ldr	r3, [r7, #4]
20002d44:	689b      	ldr	r3, [r3, #8]
20002d46:	f443 4200 	orr.w	r2, r3, #32768	@ 0x8000
20002d4a:	687b      	ldr	r3, [r7, #4]
20002d4c:	609a      	str	r2, [r3, #8]
      break;
20002d4e:	e007      	b.n	20002d60 <CAN_CancelTransmit+0x4c>
    case (CAN_TXMAILBOX_2): CANx->TSR |= CAN_TSR_ABRQ2;
20002d50:	687b      	ldr	r3, [r7, #4]
20002d52:	689b      	ldr	r3, [r3, #8]
20002d54:	f443 0200 	orr.w	r2, r3, #8388608	@ 0x800000
20002d58:	687b      	ldr	r3, [r7, #4]
20002d5a:	609a      	str	r2, [r3, #8]
      break;
20002d5c:	e000      	b.n	20002d60 <CAN_CancelTransmit+0x4c>
      break;
20002d5e:	bf00      	nop
  }
}
20002d60:	bf00      	nop
20002d62:	370c      	adds	r7, #12
20002d64:	46bd      	mov	sp, r7
20002d66:	f85d 7b04 	ldr.w	r7, [sp], #4
20002d6a:	4770      	bx	lr

20002d6c <CAN_Receive>:
  * @param  RxMessage: pointer to a structure receive frame which contains CAN Id,
  *         CAN DLC, CAN data and FMI number.
  * @retval None
  */
void CAN_Receive(CAN_TypeDef* CANx, uint8_t FIFONumber, CanRxMsg* RxMessage)
{
20002d6c:	b480      	push	{r7}
20002d6e:	b085      	sub	sp, #20
20002d70:	af00      	add	r7, sp, #0
20002d72:	60f8      	str	r0, [r7, #12]
20002d74:	460b      	mov	r3, r1
20002d76:	607a      	str	r2, [r7, #4]
20002d78:	72fb      	strb	r3, [r7, #11]
  /* Check the parameters */
  assert_param(IS_CAN_ALL_PERIPH(CANx));
  assert_param(IS_CAN_FIFO(FIFONumber));
  /* Get the Id */
  RxMessage->IDE = (uint8_t)0x04 & CANx->sFIFOMailBox[FIFONumber].RIR;
20002d7a:	7afb      	ldrb	r3, [r7, #11]
20002d7c:	68fa      	ldr	r2, [r7, #12]
20002d7e:	331b      	adds	r3, #27
20002d80:	011b      	lsls	r3, r3, #4
20002d82:	4413      	add	r3, r2
20002d84:	681b      	ldr	r3, [r3, #0]
20002d86:	b2db      	uxtb	r3, r3
20002d88:	f003 0304 	and.w	r3, r3, #4
20002d8c:	b2da      	uxtb	r2, r3
20002d8e:	687b      	ldr	r3, [r7, #4]
20002d90:	721a      	strb	r2, [r3, #8]
  if (RxMessage->IDE == CAN_Id_Standard)
20002d92:	687b      	ldr	r3, [r7, #4]
20002d94:	7a1b      	ldrb	r3, [r3, #8]
20002d96:	2b00      	cmp	r3, #0
20002d98:	d10b      	bne.n	20002db2 <CAN_Receive+0x46>
  {
    RxMessage->StdId = (uint32_t)0x000007FF & (CANx->sFIFOMailBox[FIFONumber].RIR >> 21);
20002d9a:	7afb      	ldrb	r3, [r7, #11]
20002d9c:	68fa      	ldr	r2, [r7, #12]
20002d9e:	331b      	adds	r3, #27
20002da0:	011b      	lsls	r3, r3, #4
20002da2:	4413      	add	r3, r2
20002da4:	681b      	ldr	r3, [r3, #0]
20002da6:	0d5b      	lsrs	r3, r3, #21
20002da8:	f3c3 020a 	ubfx	r2, r3, #0, #11
20002dac:	687b      	ldr	r3, [r7, #4]
20002dae:	601a      	str	r2, [r3, #0]
20002db0:	e00a      	b.n	20002dc8 <CAN_Receive+0x5c>
  }
  else
  {
    RxMessage->ExtId = (uint32_t)0x1FFFFFFF & (CANx->sFIFOMailBox[FIFONumber].RIR >> 3);
20002db2:	7afb      	ldrb	r3, [r7, #11]
20002db4:	68fa      	ldr	r2, [r7, #12]
20002db6:	331b      	adds	r3, #27
20002db8:	011b      	lsls	r3, r3, #4
20002dba:	4413      	add	r3, r2
20002dbc:	681b      	ldr	r3, [r3, #0]
20002dbe:	08db      	lsrs	r3, r3, #3
20002dc0:	f023 4260 	bic.w	r2, r3, #3758096384	@ 0xe0000000
20002dc4:	687b      	ldr	r3, [r7, #4]
20002dc6:	605a      	str	r2, [r3, #4]
  }
  
  RxMessage->RTR = (uint8_t)0x02 & CANx->sFIFOMailBox[FIFONumber].RIR;
20002dc8:	7afb      	ldrb	r3, [r7, #11]
20002dca:	68fa      	ldr	r2, [r7, #12]
20002dcc:	331b      	adds	r3, #27
20002dce:	011b      	lsls	r3, r3, #4
20002dd0:	4413      	add	r3, r2
20002dd2:	681b      	ldr	r3, [r3, #0]
20002dd4:	b2db      	uxtb	r3, r3
20002dd6:	f003 0302 	and.w	r3, r3, #2
20002dda:	b2da      	uxtb	r2, r3
20002ddc:	687b      	ldr	r3, [r7, #4]
20002dde:	725a      	strb	r2, [r3, #9]
  /* Get the DLC */
  RxMessage->DLC = (uint8_t)0x0F & CANx->sFIFOMailBox[FIFONumber].RDTR;
20002de0:	7afb      	ldrb	r3, [r7, #11]
20002de2:	68fa      	ldr	r2, [r7, #12]
20002de4:	331b      	adds	r3, #27
20002de6:	011b      	lsls	r3, r3, #4
20002de8:	4413      	add	r3, r2
20002dea:	3304      	adds	r3, #4
20002dec:	681b      	ldr	r3, [r3, #0]
20002dee:	b2db      	uxtb	r3, r3
20002df0:	f003 030f 	and.w	r3, r3, #15
20002df4:	b2da      	uxtb	r2, r3
20002df6:	687b      	ldr	r3, [r7, #4]
20002df8:	729a      	strb	r2, [r3, #10]
  /* Get the FMI */
  RxMessage->FMI = (uint8_t)0xFF & (CANx->sFIFOMailBox[FIFONumber].RDTR >> 8);
20002dfa:	7afb      	ldrb	r3, [r7, #11]
20002dfc:	68fa      	ldr	r2, [r7, #12]
20002dfe:	331b      	adds	r3, #27
20002e00:	011b      	lsls	r3, r3, #4
20002e02:	4413      	add	r3, r2
20002e04:	3304      	adds	r3, #4
20002e06:	681b      	ldr	r3, [r3, #0]
20002e08:	0a1b      	lsrs	r3, r3, #8
20002e0a:	b2da      	uxtb	r2, r3
20002e0c:	687b      	ldr	r3, [r7, #4]
20002e0e:	74da      	strb	r2, [r3, #19]
  /* Get the data field */
  RxMessage->Data[0] = (uint8_t)0xFF & CANx->sFIFOMailBox[FIFONumber].RDLR;
20002e10:	7afb      	ldrb	r3, [r7, #11]
20002e12:	68fa      	ldr	r2, [r7, #12]
20002e14:	011b      	lsls	r3, r3, #4
20002e16:	4413      	add	r3, r2
20002e18:	f503 73dc 	add.w	r3, r3, #440	@ 0x1b8
20002e1c:	681b      	ldr	r3, [r3, #0]
20002e1e:	b2da      	uxtb	r2, r3
20002e20:	687b      	ldr	r3, [r7, #4]
20002e22:	72da      	strb	r2, [r3, #11]
  RxMessage->Data[1] = (uint8_t)0xFF & (CANx->sFIFOMailBox[FIFONumber].RDLR >> 8);
20002e24:	7afb      	ldrb	r3, [r7, #11]
20002e26:	68fa      	ldr	r2, [r7, #12]
20002e28:	011b      	lsls	r3, r3, #4
20002e2a:	4413      	add	r3, r2
20002e2c:	f503 73dc 	add.w	r3, r3, #440	@ 0x1b8
20002e30:	681b      	ldr	r3, [r3, #0]
20002e32:	0a1b      	lsrs	r3, r3, #8
20002e34:	b2da      	uxtb	r2, r3
20002e36:	687b      	ldr	r3, [r7, #4]
20002e38:	731a      	strb	r2, [r3, #12]
  RxMessage->Data[2] = (uint8_t)0xFF & (CANx->sFIFOMailBox[FIFONumber].RDLR >> 16);
20002e3a:	7afb      	ldrb	r3, [r7, #11]
20002e3c:	68fa      	ldr	r2, [r7, #12]
20002e3e:	011b      	lsls	r3, r3, #4
20002e40:	4413      	add	r3, r2
20002e42:	f503 73dc 	add.w	r3, r3, #440	@ 0x1b8
20002e46:	681b      	ldr	r3, [r3, #0]
20002e48:	0c1b      	lsrs	r3, r3, #16
20002e4a:	b2da      	uxtb	r2, r3
20002e4c:	687b      	ldr	r3, [r7, #4]
20002e4e:	735a      	strb	r2, [r3, #13]
  RxMessage->Data[3] = (uint8_t)0xFF & (CANx->sFIFOMailBox[FIFONumber].RDLR >> 24);
20002e50:	7afb      	ldrb	r3, [r7, #11]
20002e52:	68fa      	ldr	r2, [r7, #12]
20002e54:	011b      	lsls	r3, r3, #4
20002e56:	4413      	add	r3, r2
20002e58:	f503 73dc 	add.w	r3, r3, #440	@ 0x1b8
20002e5c:	681b      	ldr	r3, [r3, #0]
20002e5e:	0e1b      	lsrs	r3, r3, #24
20002e60:	b2da      	uxtb	r2, r3
20002e62:	687b      	ldr	r3, [r7, #4]
20002e64:	739a      	strb	r2, [r3, #14]
  RxMessage->Data[4] = (uint8_t)0xFF & CANx->sFIFOMailBox[FIFONumber].RDHR;
20002e66:	7afb      	ldrb	r3, [r7, #11]
20002e68:	68fa      	ldr	r2, [r7, #12]
20002e6a:	011b      	lsls	r3, r3, #4
20002e6c:	4413      	add	r3, r2
20002e6e:	f503 73de 	add.w	r3, r3, #444	@ 0x1bc
20002e72:	681b      	ldr	r3, [r3, #0]
20002e74:	b2da      	uxtb	r2, r3
20002e76:	687b      	ldr	r3, [r7, #4]
20002e78:	73da      	strb	r2, [r3, #15]
  RxMessage->Data[5] = (uint8_t)0xFF & (CANx->sFIFOMailBox[FIFONumber].RDHR >> 8);
20002e7a:	7afb      	ldrb	r3, [r7, #11]
20002e7c:	68fa      	ldr	r2, [r7, #12]
20002e7e:	011b      	lsls	r3, r3, #4
20002e80:	4413      	add	r3, r2
20002e82:	f503 73de 	add.w	r3, r3, #444	@ 0x1bc
20002e86:	681b      	ldr	r3, [r3, #0]
20002e88:	0a1b      	lsrs	r3, r3, #8
20002e8a:	b2da      	uxtb	r2, r3
20002e8c:	687b      	ldr	r3, [r7, #4]
20002e8e:	741a      	strb	r2, [r3, #16]
  RxMessage->Data[6] = (uint8_t)0xFF & (CANx->sFIFOMailBox[FIFONumber].RDHR >> 16);
20002e90:	7afb      	ldrb	r3, [r7, #11]
20002e92:	68fa      	ldr	r2, [r7, #12]
20002e94:	011b      	lsls	r3, r3, #4
20002e96:	4413      	add	r3, r2
20002e98:	f503 73de 	add.w	r3, r3, #444	@ 0x1bc
20002e9c:	681b      	ldr	r3, [r3, #0]
20002e9e:	0c1b      	lsrs	r3, r3, #16
20002ea0:	b2da      	uxtb	r2, r3
20002ea2:	687b      	ldr	r3, [r7, #4]
20002ea4:	745a      	strb	r2, [r3, #17]
  RxMessage->Data[7] = (uint8_t)0xFF & (CANx->sFIFOMailBox[FIFONumber].RDHR >> 24);
20002ea6:	7afb      	ldrb	r3, [r7, #11]
20002ea8:	68fa      	ldr	r2, [r7, #12]
20002eaa:	011b      	lsls	r3, r3, #4
20002eac:	4413      	add	r3, r2
20002eae:	f503 73de 	add.w	r3, r3, #444	@ 0x1bc
20002eb2:	681b      	ldr	r3, [r3, #0]
20002eb4:	0e1b      	lsrs	r3, r3, #24
20002eb6:	b2da      	uxtb	r2, r3
20002eb8:	687b      	ldr	r3, [r7, #4]
20002eba:	749a      	strb	r2, [r3, #18]
  /* Release the FIFO */
  /* Release FIFO0 */
  if (FIFONumber == CAN_FIFO0)
20002ebc:	7afb      	ldrb	r3, [r7, #11]
20002ebe:	2b00      	cmp	r3, #0
20002ec0:	d106      	bne.n	20002ed0 <CAN_Receive+0x164>
  {
    CANx->RF0R |= CAN_RF0R_RFOM0;
20002ec2:	68fb      	ldr	r3, [r7, #12]
20002ec4:	68db      	ldr	r3, [r3, #12]
20002ec6:	f043 0220 	orr.w	r2, r3, #32
20002eca:	68fb      	ldr	r3, [r7, #12]
20002ecc:	60da      	str	r2, [r3, #12]
  /* Release FIFO1 */
  else /* FIFONumber == CAN_FIFO1 */
  {
    CANx->RF1R |= CAN_RF1R_RFOM1;
  }
}
20002ece:	e005      	b.n	20002edc <CAN_Receive+0x170>
    CANx->RF1R |= CAN_RF1R_RFOM1;
20002ed0:	68fb      	ldr	r3, [r7, #12]
20002ed2:	691b      	ldr	r3, [r3, #16]
20002ed4:	f043 0220 	orr.w	r2, r3, #32
20002ed8:	68fb      	ldr	r3, [r7, #12]
20002eda:	611a      	str	r2, [r3, #16]
}
20002edc:	bf00      	nop
20002ede:	3714      	adds	r7, #20
20002ee0:	46bd      	mov	sp, r7
20002ee2:	f85d 7b04 	ldr.w	r7, [sp], #4
20002ee6:	4770      	bx	lr

20002ee8 <CAN_FIFORelease>:
  * @param  CANx: where x can be 1 or 2 to select the CAN peripheral.
  * @param  FIFONumber: FIFO to release, CAN_FIFO0 or CAN_FIFO1.
  * @retval None
  */
void CAN_FIFORelease(CAN_TypeDef* CANx, uint8_t FIFONumber)
{
20002ee8:	b480      	push	{r7}
20002eea:	b083      	sub	sp, #12
20002eec:	af00      	add	r7, sp, #0
20002eee:	6078      	str	r0, [r7, #4]
20002ef0:	460b      	mov	r3, r1
20002ef2:	70fb      	strb	r3, [r7, #3]
  /* Check the parameters */
  assert_param(IS_CAN_ALL_PERIPH(CANx));
  assert_param(IS_CAN_FIFO(FIFONumber));
  /* Release FIFO0 */
  if (FIFONumber == CAN_FIFO0)
20002ef4:	78fb      	ldrb	r3, [r7, #3]
20002ef6:	2b00      	cmp	r3, #0
20002ef8:	d106      	bne.n	20002f08 <CAN_FIFORelease+0x20>
  {
    CANx->RF0R |= CAN_RF0R_RFOM0;
20002efa:	687b      	ldr	r3, [r7, #4]
20002efc:	68db      	ldr	r3, [r3, #12]
20002efe:	f043 0220 	orr.w	r2, r3, #32
20002f02:	687b      	ldr	r3, [r7, #4]
20002f04:	60da      	str	r2, [r3, #12]
  /* Release FIFO1 */
  else /* FIFONumber == CAN_FIFO1 */
  {
    CANx->RF1R |= CAN_RF1R_RFOM1;
  }
}
20002f06:	e005      	b.n	20002f14 <CAN_FIFORelease+0x2c>
    CANx->RF1R |= CAN_RF1R_RFOM1;
20002f08:	687b      	ldr	r3, [r7, #4]
20002f0a:	691b      	ldr	r3, [r3, #16]
20002f0c:	f043 0220 	orr.w	r2, r3, #32
20002f10:	687b      	ldr	r3, [r7, #4]
20002f12:	611a      	str	r2, [r3, #16]
}
20002f14:	bf00      	nop
20002f16:	370c      	adds	r7, #12
20002f18:	46bd      	mov	sp, r7
20002f1a:	f85d 7b04 	ldr.w	r7, [sp], #4
20002f1e:	4770      	bx	lr

20002f20 <CAN_MessagePending>:
  * @param  CANx: where x can be 1 or 2 to select the CAN peripheral.
  * @param  FIFONumber: Receive FIFO number, CAN_FIFO0 or CAN_FIFO1.
  * @retval NbMessage : which is the number of pending message.
  */
uint8_t CAN_MessagePending(CAN_TypeDef* CANx, uint8_t FIFONumber)
{
20002f20:	b480      	push	{r7}
20002f22:	b085      	sub	sp, #20
20002f24:	af00      	add	r7, sp, #0
20002f26:	6078      	str	r0, [r7, #4]
20002f28:	460b      	mov	r3, r1
20002f2a:	70fb      	strb	r3, [r7, #3]
  uint8_t message_pending=0;
20002f2c:	2300      	movs	r3, #0
20002f2e:	73fb      	strb	r3, [r7, #15]
  /* Check the parameters */
  assert_param(IS_CAN_ALL_PERIPH(CANx));
  assert_param(IS_CAN_FIFO(FIFONumber));
  if (FIFONumber == CAN_FIFO0)
20002f30:	78fb      	ldrb	r3, [r7, #3]
20002f32:	2b00      	cmp	r3, #0
20002f34:	d106      	bne.n	20002f44 <CAN_MessagePending+0x24>
  {
    message_pending = (uint8_t)(CANx->RF0R&(uint32_t)0x03);
20002f36:	687b      	ldr	r3, [r7, #4]
20002f38:	68db      	ldr	r3, [r3, #12]
20002f3a:	b2db      	uxtb	r3, r3
20002f3c:	f003 0303 	and.w	r3, r3, #3
20002f40:	73fb      	strb	r3, [r7, #15]
20002f42:	e00b      	b.n	20002f5c <CAN_MessagePending+0x3c>
  }
  else if (FIFONumber == CAN_FIFO1)
20002f44:	78fb      	ldrb	r3, [r7, #3]
20002f46:	2b01      	cmp	r3, #1
20002f48:	d106      	bne.n	20002f58 <CAN_MessagePending+0x38>
  {
    message_pending = (uint8_t)(CANx->RF1R&(uint32_t)0x03);
20002f4a:	687b      	ldr	r3, [r7, #4]
20002f4c:	691b      	ldr	r3, [r3, #16]
20002f4e:	b2db      	uxtb	r3, r3
20002f50:	f003 0303 	and.w	r3, r3, #3
20002f54:	73fb      	strb	r3, [r7, #15]
20002f56:	e001      	b.n	20002f5c <CAN_MessagePending+0x3c>
  }
  else
  {
    message_pending = 0;
20002f58:	2300      	movs	r3, #0
20002f5a:	73fb      	strb	r3, [r7, #15]
  }
  return message_pending;
20002f5c:	7bfb      	ldrb	r3, [r7, #15]
}
20002f5e:	4618      	mov	r0, r3
20002f60:	3714      	adds	r7, #20
20002f62:	46bd      	mov	sp, r7
20002f64:	f85d 7b04 	ldr.w	r7, [sp], #4
20002f68:	4770      	bx	lr

20002f6a <CAN_OperatingModeRequest>:
  * @retval status of the requested mode which can be 
  *         - CAN_ModeStatus_Failed:  CAN failed entering the specific mode 
  *         - CAN_ModeStatus_Success: CAN Succeed entering the specific mode 
  */
uint8_t CAN_OperatingModeRequest(CAN_TypeDef* CANx, uint8_t CAN_OperatingMode)
{
20002f6a:	b480      	push	{r7}
20002f6c:	b085      	sub	sp, #20
20002f6e:	af00      	add	r7, sp, #0
20002f70:	6078      	str	r0, [r7, #4]
20002f72:	460b      	mov	r3, r1
20002f74:	70fb      	strb	r3, [r7, #3]
  uint8_t status = CAN_ModeStatus_Failed;
20002f76:	2300      	movs	r3, #0
20002f78:	73fb      	strb	r3, [r7, #15]
  
  /* Timeout for INAK or also for SLAK bits*/
  uint32_t timeout = INAK_TIMEOUT; 
20002f7a:	f64f 73ff 	movw	r3, #65535	@ 0xffff
20002f7e:	60bb      	str	r3, [r7, #8]

  /* Check the parameters */
  assert_param(IS_CAN_ALL_PERIPH(CANx));
  assert_param(IS_CAN_OPERATING_MODE(CAN_OperatingMode));

  if (CAN_OperatingMode == CAN_OperatingMode_Initialization)
20002f80:	78fb      	ldrb	r3, [r7, #3]
20002f82:	2b00      	cmp	r3, #0
20002f84:	d120      	bne.n	20002fc8 <CAN_OperatingModeRequest+0x5e>
  {
    /* Request initialisation */
    CANx->MCR = (uint32_t)((CANx->MCR & (uint32_t)(~(uint32_t)CAN_MCR_SLEEP)) | CAN_MCR_INRQ);
20002f86:	687b      	ldr	r3, [r7, #4]
20002f88:	681b      	ldr	r3, [r3, #0]
20002f8a:	f023 0303 	bic.w	r3, r3, #3
20002f8e:	f043 0201 	orr.w	r2, r3, #1
20002f92:	687b      	ldr	r3, [r7, #4]
20002f94:	601a      	str	r2, [r3, #0]

    /* Wait the acknowledge */
    while (((CANx->MSR & CAN_MODE_MASK) != CAN_MSR_INAK) && (timeout != 0))
20002f96:	e002      	b.n	20002f9e <CAN_OperatingModeRequest+0x34>
    {
      timeout--;
20002f98:	68bb      	ldr	r3, [r7, #8]
20002f9a:	3b01      	subs	r3, #1
20002f9c:	60bb      	str	r3, [r7, #8]
    while (((CANx->MSR & CAN_MODE_MASK) != CAN_MSR_INAK) && (timeout != 0))
20002f9e:	687b      	ldr	r3, [r7, #4]
20002fa0:	685b      	ldr	r3, [r3, #4]
20002fa2:	f003 0303 	and.w	r3, r3, #3
20002fa6:	2b01      	cmp	r3, #1
20002fa8:	d002      	beq.n	20002fb0 <CAN_OperatingModeRequest+0x46>
20002faa:	68bb      	ldr	r3, [r7, #8]
20002fac:	2b00      	cmp	r3, #0
20002fae:	d1f3      	bne.n	20002f98 <CAN_OperatingModeRequest+0x2e>
    }
    if ((CANx->MSR & CAN_MODE_MASK) != CAN_MSR_INAK)
20002fb0:	687b      	ldr	r3, [r7, #4]
20002fb2:	685b      	ldr	r3, [r3, #4]
20002fb4:	f003 0303 	and.w	r3, r3, #3
20002fb8:	2b01      	cmp	r3, #1
20002fba:	d002      	beq.n	20002fc2 <CAN_OperatingModeRequest+0x58>
    {
      status = CAN_ModeStatus_Failed;
20002fbc:	2300      	movs	r3, #0
20002fbe:	73fb      	strb	r3, [r7, #15]
20002fc0:	e04a      	b.n	20003058 <CAN_OperatingModeRequest+0xee>
    }
    else
    {
      status = CAN_ModeStatus_Success;
20002fc2:	2301      	movs	r3, #1
20002fc4:	73fb      	strb	r3, [r7, #15]
20002fc6:	e047      	b.n	20003058 <CAN_OperatingModeRequest+0xee>
    }
  }
  else  if (CAN_OperatingMode == CAN_OperatingMode_Normal)
20002fc8:	78fb      	ldrb	r3, [r7, #3]
20002fca:	2b01      	cmp	r3, #1
20002fcc:	d11e      	bne.n	2000300c <CAN_OperatingModeRequest+0xa2>
  {
    /* Request leave initialisation and sleep mode  and enter Normal mode */
    CANx->MCR &= (uint32_t)(~(CAN_MCR_SLEEP|CAN_MCR_INRQ));
20002fce:	687b      	ldr	r3, [r7, #4]
20002fd0:	681b      	ldr	r3, [r3, #0]
20002fd2:	f023 0203 	bic.w	r2, r3, #3
20002fd6:	687b      	ldr	r3, [r7, #4]
20002fd8:	601a      	str	r2, [r3, #0]

    /* Wait the acknowledge */
    while (((CANx->MSR & CAN_MODE_MASK) != 0) && (timeout!=0))
20002fda:	e002      	b.n	20002fe2 <CAN_OperatingModeRequest+0x78>
    {
      timeout--;
20002fdc:	68bb      	ldr	r3, [r7, #8]
20002fde:	3b01      	subs	r3, #1
20002fe0:	60bb      	str	r3, [r7, #8]
    while (((CANx->MSR & CAN_MODE_MASK) != 0) && (timeout!=0))
20002fe2:	687b      	ldr	r3, [r7, #4]
20002fe4:	685b      	ldr	r3, [r3, #4]
20002fe6:	f003 0303 	and.w	r3, r3, #3
20002fea:	2b00      	cmp	r3, #0
20002fec:	d002      	beq.n	20002ff4 <CAN_OperatingModeRequest+0x8a>
20002fee:	68bb      	ldr	r3, [r7, #8]
20002ff0:	2b00      	cmp	r3, #0
20002ff2:	d1f3      	bne.n	20002fdc <CAN_OperatingModeRequest+0x72>
    }
    if ((CANx->MSR & CAN_MODE_MASK) != 0)
20002ff4:	687b      	ldr	r3, [r7, #4]
20002ff6:	685b      	ldr	r3, [r3, #4]
20002ff8:	f003 0303 	and.w	r3, r3, #3
20002ffc:	2b00      	cmp	r3, #0
20002ffe:	d002      	beq.n	20003006 <CAN_OperatingModeRequest+0x9c>
    {
      status = CAN_ModeStatus_Failed;
20003000:	2300      	movs	r3, #0
20003002:	73fb      	strb	r3, [r7, #15]
20003004:	e028      	b.n	20003058 <CAN_OperatingModeRequest+0xee>
    }
    else
    {
      status = CAN_ModeStatus_Success;
20003006:	2301      	movs	r3, #1
20003008:	73fb      	strb	r3, [r7, #15]
2000300a:	e025      	b.n	20003058 <CAN_OperatingModeRequest+0xee>
    }
  }
  else  if (CAN_OperatingMode == CAN_OperatingMode_Sleep)
2000300c:	78fb      	ldrb	r3, [r7, #3]
2000300e:	2b02      	cmp	r3, #2
20003010:	d120      	bne.n	20003054 <CAN_OperatingModeRequest+0xea>
  {
    /* Request Sleep mode */
    CANx->MCR = (uint32_t)((CANx->MCR & (uint32_t)(~(uint32_t)CAN_MCR_INRQ)) | CAN_MCR_SLEEP);
20003012:	687b      	ldr	r3, [r7, #4]
20003014:	681b      	ldr	r3, [r3, #0]
20003016:	f023 0303 	bic.w	r3, r3, #3
2000301a:	f043 0202 	orr.w	r2, r3, #2
2000301e:	687b      	ldr	r3, [r7, #4]
20003020:	601a      	str	r2, [r3, #0]

    /* Wait the acknowledge */
    while (((CANx->MSR & CAN_MODE_MASK) != CAN_MSR_SLAK) && (timeout!=0))
20003022:	e002      	b.n	2000302a <CAN_OperatingModeRequest+0xc0>
    {
      timeout--;
20003024:	68bb      	ldr	r3, [r7, #8]
20003026:	3b01      	subs	r3, #1
20003028:	60bb      	str	r3, [r7, #8]
    while (((CANx->MSR & CAN_MODE_MASK) != CAN_MSR_SLAK) && (timeout!=0))
2000302a:	687b      	ldr	r3, [r7, #4]
2000302c:	685b      	ldr	r3, [r3, #4]
2000302e:	f003 0303 	and.w	r3, r3, #3
20003032:	2b02      	cmp	r3, #2
20003034:	d002      	beq.n	2000303c <CAN_OperatingModeRequest+0xd2>
20003036:	68bb      	ldr	r3, [r7, #8]
20003038:	2b00      	cmp	r3, #0
2000303a:	d1f3      	bne.n	20003024 <CAN_OperatingModeRequest+0xba>
    }
    if ((CANx->MSR & CAN_MODE_MASK) != CAN_MSR_SLAK)
2000303c:	687b      	ldr	r3, [r7, #4]
2000303e:	685b      	ldr	r3, [r3, #4]
20003040:	f003 0303 	and.w	r3, r3, #3
20003044:	2b02      	cmp	r3, #2
20003046:	d002      	beq.n	2000304e <CAN_OperatingModeRequest+0xe4>
    {
      status = CAN_ModeStatus_Failed;
20003048:	2300      	movs	r3, #0
2000304a:	73fb      	strb	r3, [r7, #15]
2000304c:	e004      	b.n	20003058 <CAN_OperatingModeRequest+0xee>
    }
    else
    {
      status = CAN_ModeStatus_Success;
2000304e:	2301      	movs	r3, #1
20003050:	73fb      	strb	r3, [r7, #15]
20003052:	e001      	b.n	20003058 <CAN_OperatingModeRequest+0xee>
    }
  }
  else
  {
    status = CAN_ModeStatus_Failed;
20003054:	2300      	movs	r3, #0
20003056:	73fb      	strb	r3, [r7, #15]
  }

  return  (uint8_t) status;
20003058:	7bfb      	ldrb	r3, [r7, #15]
}
2000305a:	4618      	mov	r0, r3
2000305c:	3714      	adds	r7, #20
2000305e:	46bd      	mov	sp, r7
20003060:	f85d 7b04 	ldr.w	r7, [sp], #4
20003064:	4770      	bx	lr

20003066 <CAN_Sleep>:
  * @brief  Enters the Sleep (low power) mode.
  * @param  CANx: where x can be 1 or 2 to select the CAN peripheral.
  * @retval CAN_Sleep_Ok if sleep entered, CAN_Sleep_Failed otherwise.
  */
uint8_t CAN_Sleep(CAN_TypeDef* CANx)
{
20003066:	b480      	push	{r7}
20003068:	b085      	sub	sp, #20
2000306a:	af00      	add	r7, sp, #0
2000306c:	6078      	str	r0, [r7, #4]
  uint8_t sleepstatus = CAN_Sleep_Failed;
2000306e:	2300      	movs	r3, #0
20003070:	73fb      	strb	r3, [r7, #15]
  
  /* Check the parameters */
  assert_param(IS_CAN_ALL_PERIPH(CANx));
    
  /* Request Sleep mode */
   CANx->MCR = (((CANx->MCR) & (uint32_t)(~(uint32_t)CAN_MCR_INRQ)) | CAN_MCR_SLEEP);
20003072:	687b      	ldr	r3, [r7, #4]
20003074:	681b      	ldr	r3, [r3, #0]
20003076:	f023 0303 	bic.w	r3, r3, #3
2000307a:	f043 0202 	orr.w	r2, r3, #2
2000307e:	687b      	ldr	r3, [r7, #4]
20003080:	601a      	str	r2, [r3, #0]
   
  /* Sleep mode status */
  if ((CANx->MSR & (CAN_MSR_SLAK|CAN_MSR_INAK)) == CAN_MSR_SLAK)
20003082:	687b      	ldr	r3, [r7, #4]
20003084:	685b      	ldr	r3, [r3, #4]
20003086:	f003 0303 	and.w	r3, r3, #3
2000308a:	2b02      	cmp	r3, #2
2000308c:	d101      	bne.n	20003092 <CAN_Sleep+0x2c>
  {
    /* Sleep mode not entered */
    sleepstatus =  CAN_Sleep_Ok;
2000308e:	2301      	movs	r3, #1
20003090:	73fb      	strb	r3, [r7, #15]
  }
  /* return sleep mode status */
   return (uint8_t)sleepstatus;
20003092:	7bfb      	ldrb	r3, [r7, #15]
}
20003094:	4618      	mov	r0, r3
20003096:	3714      	adds	r7, #20
20003098:	46bd      	mov	sp, r7
2000309a:	f85d 7b04 	ldr.w	r7, [sp], #4
2000309e:	4770      	bx	lr

200030a0 <CAN_WakeUp>:
  * @brief  Wakes up the CAN peripheral from sleep mode .
  * @param  CANx: where x can be 1 or 2 to select the CAN peripheral.
  * @retval CAN_WakeUp_Ok if sleep mode left, CAN_WakeUp_Failed otherwise.
  */
uint8_t CAN_WakeUp(CAN_TypeDef* CANx)
{
200030a0:	b480      	push	{r7}
200030a2:	b085      	sub	sp, #20
200030a4:	af00      	add	r7, sp, #0
200030a6:	6078      	str	r0, [r7, #4]
  uint32_t wait_slak = SLAK_TIMEOUT;
200030a8:	f64f 73ff 	movw	r3, #65535	@ 0xffff
200030ac:	60fb      	str	r3, [r7, #12]
  uint8_t wakeupstatus = CAN_WakeUp_Failed;
200030ae:	2300      	movs	r3, #0
200030b0:	72fb      	strb	r3, [r7, #11]
  
  /* Check the parameters */
  assert_param(IS_CAN_ALL_PERIPH(CANx));
    
  /* Wake up request */
  CANx->MCR &= ~(uint32_t)CAN_MCR_SLEEP;
200030b2:	687b      	ldr	r3, [r7, #4]
200030b4:	681b      	ldr	r3, [r3, #0]
200030b6:	f023 0202 	bic.w	r2, r3, #2
200030ba:	687b      	ldr	r3, [r7, #4]
200030bc:	601a      	str	r2, [r3, #0]
    
  /* Sleep mode status */
  while(((CANx->MSR & CAN_MSR_SLAK) == CAN_MSR_SLAK)&&(wait_slak!=0x00))
200030be:	e002      	b.n	200030c6 <CAN_WakeUp+0x26>
  {
   wait_slak--;
200030c0:	68fb      	ldr	r3, [r7, #12]
200030c2:	3b01      	subs	r3, #1
200030c4:	60fb      	str	r3, [r7, #12]
  while(((CANx->MSR & CAN_MSR_SLAK) == CAN_MSR_SLAK)&&(wait_slak!=0x00))
200030c6:	687b      	ldr	r3, [r7, #4]
200030c8:	685b      	ldr	r3, [r3, #4]
200030ca:	f003 0302 	and.w	r3, r3, #2
200030ce:	2b02      	cmp	r3, #2
200030d0:	d102      	bne.n	200030d8 <CAN_WakeUp+0x38>
200030d2:	68fb      	ldr	r3, [r7, #12]
200030d4:	2b00      	cmp	r3, #0
200030d6:	d1f3      	bne.n	200030c0 <CAN_WakeUp+0x20>
  }
  if((CANx->MSR & CAN_MSR_SLAK) != CAN_MSR_SLAK)
200030d8:	687b      	ldr	r3, [r7, #4]
200030da:	685b      	ldr	r3, [r3, #4]
200030dc:	f003 0302 	and.w	r3, r3, #2
200030e0:	2b02      	cmp	r3, #2
200030e2:	d001      	beq.n	200030e8 <CAN_WakeUp+0x48>
  {
   /* wake up done : Sleep mode exited */
    wakeupstatus = CAN_WakeUp_Ok;
200030e4:	2301      	movs	r3, #1
200030e6:	72fb      	strb	r3, [r7, #11]
  }
  /* return wakeup status */
  return (uint8_t)wakeupstatus;
200030e8:	7afb      	ldrb	r3, [r7, #11]
}
200030ea:	4618      	mov	r0, r3
200030ec:	3714      	adds	r7, #20
200030ee:	46bd      	mov	sp, r7
200030f0:	f85d 7b04 	ldr.w	r7, [sp], #4
200030f4:	4770      	bx	lr

200030f6 <CAN_GetLastErrorCode>:
  *          - CAN_ERRORCODE_BitDominantErr: Bit Dominant Error
  *          - CAN_ERRORCODE_CRCErr: CRC Error
  *          - CAN_ERRORCODE_SoftwareSetErr: Software Set Error  
  */
uint8_t CAN_GetLastErrorCode(CAN_TypeDef* CANx)
{
200030f6:	b480      	push	{r7}
200030f8:	b085      	sub	sp, #20
200030fa:	af00      	add	r7, sp, #0
200030fc:	6078      	str	r0, [r7, #4]
  uint8_t errorcode=0;
200030fe:	2300      	movs	r3, #0
20003100:	73fb      	strb	r3, [r7, #15]
  
  /* Check the parameters */
  assert_param(IS_CAN_ALL_PERIPH(CANx));
  
  /* Get the error code*/
  errorcode = (((uint8_t)CANx->ESR) & (uint8_t)CAN_ESR_LEC);
20003102:	687b      	ldr	r3, [r7, #4]
20003104:	699b      	ldr	r3, [r3, #24]
20003106:	b2db      	uxtb	r3, r3
20003108:	f003 0370 	and.w	r3, r3, #112	@ 0x70
2000310c:	73fb      	strb	r3, [r7, #15]
  
  /* Return the error code*/
  return errorcode;
2000310e:	7bfb      	ldrb	r3, [r7, #15]
}
20003110:	4618      	mov	r0, r3
20003112:	3714      	adds	r7, #20
20003114:	46bd      	mov	sp, r7
20003116:	f85d 7b04 	ldr.w	r7, [sp], #4
2000311a:	4770      	bx	lr

2000311c <CAN_GetReceiveErrorCounter>:
  *         error passive state.  
  * @param  CANx: where x can be 1 or 2 to to select the CAN peripheral.  
  * @retval CAN Receive Error Counter. 
  */
uint8_t CAN_GetReceiveErrorCounter(CAN_TypeDef* CANx)
{
2000311c:	b480      	push	{r7}
2000311e:	b085      	sub	sp, #20
20003120:	af00      	add	r7, sp, #0
20003122:	6078      	str	r0, [r7, #4]
  uint8_t counter=0;
20003124:	2300      	movs	r3, #0
20003126:	73fb      	strb	r3, [r7, #15]
  
  /* Check the parameters */
  assert_param(IS_CAN_ALL_PERIPH(CANx));
  
  /* Get the Receive Error Counter*/
  counter = (uint8_t)((CANx->ESR & CAN_ESR_REC)>> 24);
20003128:	687b      	ldr	r3, [r7, #4]
2000312a:	699b      	ldr	r3, [r3, #24]
2000312c:	0e1b      	lsrs	r3, r3, #24
2000312e:	73fb      	strb	r3, [r7, #15]
  
  /* Return the Receive Error Counter*/
  return counter;
20003130:	7bfb      	ldrb	r3, [r7, #15]
}
20003132:	4618      	mov	r0, r3
20003134:	3714      	adds	r7, #20
20003136:	46bd      	mov	sp, r7
20003138:	f85d 7b04 	ldr.w	r7, [sp], #4
2000313c:	4770      	bx	lr

2000313e <CAN_GetLSBTransmitErrorCounter>:
  * @brief  Returns the LSB of the 9-bit CANx Transmit Error Counter(TEC).
  * @param  CANx: where x can be 1 or 2 to to select the CAN peripheral.
  * @retval LSB of the 9-bit CAN Transmit Error Counter. 
  */
uint8_t CAN_GetLSBTransmitErrorCounter(CAN_TypeDef* CANx)
{
2000313e:	b480      	push	{r7}
20003140:	b085      	sub	sp, #20
20003142:	af00      	add	r7, sp, #0
20003144:	6078      	str	r0, [r7, #4]
  uint8_t counter=0;
20003146:	2300      	movs	r3, #0
20003148:	73fb      	strb	r3, [r7, #15]
  
  /* Check the parameters */
  assert_param(IS_CAN_ALL_PERIPH(CANx));
  
  /* Get the LSB of the 9-bit CANx Transmit Error Counter(TEC) */
  counter = (uint8_t)((CANx->ESR & CAN_ESR_TEC)>> 16);
2000314a:	687b      	ldr	r3, [r7, #4]
2000314c:	699b      	ldr	r3, [r3, #24]
2000314e:	0c1b      	lsrs	r3, r3, #16
20003150:	73fb      	strb	r3, [r7, #15]
  
  /* Return the LSB of the 9-bit CANx Transmit Error Counter(TEC) */
  return counter;
20003152:	7bfb      	ldrb	r3, [r7, #15]
}
20003154:	4618      	mov	r0, r3
20003156:	3714      	adds	r7, #20
20003158:	46bd      	mov	sp, r7
2000315a:	f85d 7b04 	ldr.w	r7, [sp], #4
2000315e:	4770      	bx	lr

20003160 <CAN_ITConfig>:
  * @param  NewState: new state of the CAN interrupts.
  *          This parameter can be: ENABLE or DISABLE.
  * @retval None
  */
void CAN_ITConfig(CAN_TypeDef* CANx, uint32_t CAN_IT, FunctionalState NewState)
{
20003160:	b480      	push	{r7}
20003162:	b085      	sub	sp, #20
20003164:	af00      	add	r7, sp, #0
20003166:	60f8      	str	r0, [r7, #12]
20003168:	60b9      	str	r1, [r7, #8]
2000316a:	4613      	mov	r3, r2
2000316c:	71fb      	strb	r3, [r7, #7]
  /* Check the parameters */
  assert_param(IS_CAN_ALL_PERIPH(CANx));
  assert_param(IS_CAN_IT(CAN_IT));
  assert_param(IS_FUNCTIONAL_STATE(NewState));

  if (NewState != DISABLE)
2000316e:	79fb      	ldrb	r3, [r7, #7]
20003170:	2b00      	cmp	r3, #0
20003172:	d006      	beq.n	20003182 <CAN_ITConfig+0x22>
  {
    /* Enable the selected CANx interrupt */
    CANx->IER |= CAN_IT;
20003174:	68fb      	ldr	r3, [r7, #12]
20003176:	695a      	ldr	r2, [r3, #20]
20003178:	68bb      	ldr	r3, [r7, #8]
2000317a:	431a      	orrs	r2, r3
2000317c:	68fb      	ldr	r3, [r7, #12]
2000317e:	615a      	str	r2, [r3, #20]
  else
  {
    /* Disable the selected CANx interrupt */
    CANx->IER &= ~CAN_IT;
  }
}
20003180:	e006      	b.n	20003190 <CAN_ITConfig+0x30>
    CANx->IER &= ~CAN_IT;
20003182:	68fb      	ldr	r3, [r7, #12]
20003184:	695a      	ldr	r2, [r3, #20]
20003186:	68bb      	ldr	r3, [r7, #8]
20003188:	43db      	mvns	r3, r3
2000318a:	401a      	ands	r2, r3
2000318c:	68fb      	ldr	r3, [r7, #12]
2000318e:	615a      	str	r2, [r3, #20]
}
20003190:	bf00      	nop
20003192:	3714      	adds	r7, #20
20003194:	46bd      	mov	sp, r7
20003196:	f85d 7b04 	ldr.w	r7, [sp], #4
2000319a:	4770      	bx	lr

2000319c <CAN_GetFlagStatus>:
  *            @arg CAN_FLAG_BOF: Bus-Off Flag    
  *            @arg CAN_FLAG_LEC: Last error code Flag      
  * @retval The new state of CAN_FLAG (SET or RESET).
  */
FlagStatus CAN_GetFlagStatus(CAN_TypeDef* CANx, uint32_t CAN_FLAG)
{
2000319c:	b480      	push	{r7}
2000319e:	b085      	sub	sp, #20
200031a0:	af00      	add	r7, sp, #0
200031a2:	6078      	str	r0, [r7, #4]
200031a4:	6039      	str	r1, [r7, #0]
  FlagStatus bitstatus = RESET;
200031a6:	2300      	movs	r3, #0
200031a8:	73fb      	strb	r3, [r7, #15]
  /* Check the parameters */
  assert_param(IS_CAN_ALL_PERIPH(CANx));
  assert_param(IS_CAN_GET_FLAG(CAN_FLAG));
  

  if((CAN_FLAG & CAN_FLAGS_ESR) != (uint32_t)RESET)
200031aa:	683b      	ldr	r3, [r7, #0]
200031ac:	f403 0370 	and.w	r3, r3, #15728640	@ 0xf00000
200031b0:	2b00      	cmp	r3, #0
200031b2:	d00d      	beq.n	200031d0 <CAN_GetFlagStatus+0x34>
  { 
    /* Check the status of the specified CAN flag */
    if ((CANx->ESR & (CAN_FLAG & 0x000FFFFF)) != (uint32_t)RESET)
200031b4:	687b      	ldr	r3, [r7, #4]
200031b6:	699a      	ldr	r2, [r3, #24]
200031b8:	683b      	ldr	r3, [r7, #0]
200031ba:	4013      	ands	r3, r2
200031bc:	f3c3 0313 	ubfx	r3, r3, #0, #20
200031c0:	2b00      	cmp	r3, #0
200031c2:	d002      	beq.n	200031ca <CAN_GetFlagStatus+0x2e>
    { 
      /* CAN_FLAG is set */
      bitstatus = SET;
200031c4:	2301      	movs	r3, #1
200031c6:	73fb      	strb	r3, [r7, #15]
200031c8:	e048      	b.n	2000325c <CAN_GetFlagStatus+0xc0>
    }
    else
    { 
      /* CAN_FLAG is reset */
      bitstatus = RESET;
200031ca:	2300      	movs	r3, #0
200031cc:	73fb      	strb	r3, [r7, #15]
200031ce:	e045      	b.n	2000325c <CAN_GetFlagStatus+0xc0>
    }
  }
  else if((CAN_FLAG & CAN_FLAGS_MSR) != (uint32_t)RESET)
200031d0:	683b      	ldr	r3, [r7, #0]
200031d2:	f003 7380 	and.w	r3, r3, #16777216	@ 0x1000000
200031d6:	2b00      	cmp	r3, #0
200031d8:	d00d      	beq.n	200031f6 <CAN_GetFlagStatus+0x5a>
  { 
    /* Check the status of the specified CAN flag */
    if ((CANx->MSR & (CAN_FLAG & 0x000FFFFF)) != (uint32_t)RESET)
200031da:	687b      	ldr	r3, [r7, #4]
200031dc:	685a      	ldr	r2, [r3, #4]
200031de:	683b      	ldr	r3, [r7, #0]
200031e0:	4013      	ands	r3, r2
200031e2:	f3c3 0313 	ubfx	r3, r3, #0, #20
200031e6:	2b00      	cmp	r3, #0
200031e8:	d002      	beq.n	200031f0 <CAN_GetFlagStatus+0x54>
    { 
      /* CAN_FLAG is set */
      bitstatus = SET;
200031ea:	2301      	movs	r3, #1
200031ec:	73fb      	strb	r3, [r7, #15]
200031ee:	e035      	b.n	2000325c <CAN_GetFlagStatus+0xc0>
    }
    else
    { 
      /* CAN_FLAG is reset */
      bitstatus = RESET;
200031f0:	2300      	movs	r3, #0
200031f2:	73fb      	strb	r3, [r7, #15]
200031f4:	e032      	b.n	2000325c <CAN_GetFlagStatus+0xc0>
    }
  }
  else if((CAN_FLAG & CAN_FLAGS_TSR) != (uint32_t)RESET)
200031f6:	683b      	ldr	r3, [r7, #0]
200031f8:	f003 6300 	and.w	r3, r3, #134217728	@ 0x8000000
200031fc:	2b00      	cmp	r3, #0
200031fe:	d00d      	beq.n	2000321c <CAN_GetFlagStatus+0x80>
  { 
    /* Check the status of the specified CAN flag */
    if ((CANx->TSR & (CAN_FLAG & 0x000FFFFF)) != (uint32_t)RESET)
20003200:	687b      	ldr	r3, [r7, #4]
20003202:	689a      	ldr	r2, [r3, #8]
20003204:	683b      	ldr	r3, [r7, #0]
20003206:	4013      	ands	r3, r2
20003208:	f3c3 0313 	ubfx	r3, r3, #0, #20
2000320c:	2b00      	cmp	r3, #0
2000320e:	d002      	beq.n	20003216 <CAN_GetFlagStatus+0x7a>
    { 
      /* CAN_FLAG is set */
      bitstatus = SET;
20003210:	2301      	movs	r3, #1
20003212:	73fb      	strb	r3, [r7, #15]
20003214:	e022      	b.n	2000325c <CAN_GetFlagStatus+0xc0>
    }
    else
    { 
      /* CAN_FLAG is reset */
      bitstatus = RESET;
20003216:	2300      	movs	r3, #0
20003218:	73fb      	strb	r3, [r7, #15]
2000321a:	e01f      	b.n	2000325c <CAN_GetFlagStatus+0xc0>
    }
  }
  else if((CAN_FLAG & CAN_FLAGS_RF0R) != (uint32_t)RESET)
2000321c:	683b      	ldr	r3, [r7, #0]
2000321e:	f003 7300 	and.w	r3, r3, #33554432	@ 0x2000000
20003222:	2b00      	cmp	r3, #0
20003224:	d00d      	beq.n	20003242 <CAN_GetFlagStatus+0xa6>
  { 
    /* Check the status of the specified CAN flag */
    if ((CANx->RF0R & (CAN_FLAG & 0x000FFFFF)) != (uint32_t)RESET)
20003226:	687b      	ldr	r3, [r7, #4]
20003228:	68da      	ldr	r2, [r3, #12]
2000322a:	683b      	ldr	r3, [r7, #0]
2000322c:	4013      	ands	r3, r2
2000322e:	f3c3 0313 	ubfx	r3, r3, #0, #20
20003232:	2b00      	cmp	r3, #0
20003234:	d002      	beq.n	2000323c <CAN_GetFlagStatus+0xa0>
    { 
      /* CAN_FLAG is set */
      bitstatus = SET;
20003236:	2301      	movs	r3, #1
20003238:	73fb      	strb	r3, [r7, #15]
2000323a:	e00f      	b.n	2000325c <CAN_GetFlagStatus+0xc0>
    }
    else
    { 
      /* CAN_FLAG is reset */
      bitstatus = RESET;
2000323c:	2300      	movs	r3, #0
2000323e:	73fb      	strb	r3, [r7, #15]
20003240:	e00c      	b.n	2000325c <CAN_GetFlagStatus+0xc0>
    }
  }
  else /* If(CAN_FLAG & CAN_FLAGS_RF1R != (uint32_t)RESET) */
  { 
    /* Check the status of the specified CAN flag */
    if ((uint32_t)(CANx->RF1R & (CAN_FLAG & 0x000FFFFF)) != (uint32_t)RESET)
20003242:	687b      	ldr	r3, [r7, #4]
20003244:	691a      	ldr	r2, [r3, #16]
20003246:	683b      	ldr	r3, [r7, #0]
20003248:	4013      	ands	r3, r2
2000324a:	f3c3 0313 	ubfx	r3, r3, #0, #20
2000324e:	2b00      	cmp	r3, #0
20003250:	d002      	beq.n	20003258 <CAN_GetFlagStatus+0xbc>
    { 
      /* CAN_FLAG is set */
      bitstatus = SET;
20003252:	2301      	movs	r3, #1
20003254:	73fb      	strb	r3, [r7, #15]
20003256:	e001      	b.n	2000325c <CAN_GetFlagStatus+0xc0>
    }
    else
    { 
      /* CAN_FLAG is reset */
      bitstatus = RESET;
20003258:	2300      	movs	r3, #0
2000325a:	73fb      	strb	r3, [r7, #15]
    }
  }
  /* Return the CAN_FLAG status */
  return  bitstatus;
2000325c:	7bfb      	ldrb	r3, [r7, #15]
}
2000325e:	4618      	mov	r0, r3
20003260:	3714      	adds	r7, #20
20003262:	46bd      	mov	sp, r7
20003264:	f85d 7b04 	ldr.w	r7, [sp], #4
20003268:	4770      	bx	lr

2000326a <CAN_ClearFlag>:
  *            @arg CAN_FLAG_SLAK: Sleep acknowledge Flag    
  *            @arg CAN_FLAG_LEC: Last error code Flag        
  * @retval None
  */
void CAN_ClearFlag(CAN_TypeDef* CANx, uint32_t CAN_FLAG)
{
2000326a:	b480      	push	{r7}
2000326c:	b085      	sub	sp, #20
2000326e:	af00      	add	r7, sp, #0
20003270:	6078      	str	r0, [r7, #4]
20003272:	6039      	str	r1, [r7, #0]
  uint32_t flagtmp=0;
20003274:	2300      	movs	r3, #0
20003276:	60fb      	str	r3, [r7, #12]
  /* Check the parameters */
  assert_param(IS_CAN_ALL_PERIPH(CANx));
  assert_param(IS_CAN_CLEAR_FLAG(CAN_FLAG));
  
  if (CAN_FLAG == CAN_FLAG_LEC) /* ESR register */
20003278:	683b      	ldr	r3, [r7, #0]
2000327a:	4a17      	ldr	r2, [pc, #92]	@ (200032d8 <CAN_ClearFlag+0x6e>)
2000327c:	4293      	cmp	r3, r2
2000327e:	d103      	bne.n	20003288 <CAN_ClearFlag+0x1e>
  {
    /* Clear the selected CAN flags */
    CANx->ESR = (uint32_t)RESET;
20003280:	687b      	ldr	r3, [r7, #4]
20003282:	2200      	movs	r2, #0
20003284:	619a      	str	r2, [r3, #24]
    {
      /* Operating mode Flags */
      CANx->MSR = (uint32_t)(flagtmp);
    }
  }
}
20003286:	e021      	b.n	200032cc <CAN_ClearFlag+0x62>
    flagtmp = CAN_FLAG & 0x000FFFFF;
20003288:	683b      	ldr	r3, [r7, #0]
2000328a:	f3c3 0313 	ubfx	r3, r3, #0, #20
2000328e:	60fb      	str	r3, [r7, #12]
    if ((CAN_FLAG & CAN_FLAGS_RF0R)!=(uint32_t)RESET)
20003290:	683b      	ldr	r3, [r7, #0]
20003292:	f003 7300 	and.w	r3, r3, #33554432	@ 0x2000000
20003296:	2b00      	cmp	r3, #0
20003298:	d003      	beq.n	200032a2 <CAN_ClearFlag+0x38>
      CANx->RF0R = (uint32_t)(flagtmp);
2000329a:	687b      	ldr	r3, [r7, #4]
2000329c:	68fa      	ldr	r2, [r7, #12]
2000329e:	60da      	str	r2, [r3, #12]
}
200032a0:	e014      	b.n	200032cc <CAN_ClearFlag+0x62>
    else if ((CAN_FLAG & CAN_FLAGS_RF1R)!=(uint32_t)RESET)
200032a2:	683b      	ldr	r3, [r7, #0]
200032a4:	f003 6380 	and.w	r3, r3, #67108864	@ 0x4000000
200032a8:	2b00      	cmp	r3, #0
200032aa:	d003      	beq.n	200032b4 <CAN_ClearFlag+0x4a>
      CANx->RF1R = (uint32_t)(flagtmp);
200032ac:	687b      	ldr	r3, [r7, #4]
200032ae:	68fa      	ldr	r2, [r7, #12]
200032b0:	611a      	str	r2, [r3, #16]
}
200032b2:	e00b      	b.n	200032cc <CAN_ClearFlag+0x62>
    else if ((CAN_FLAG & CAN_FLAGS_TSR)!=(uint32_t)RESET)
200032b4:	683b      	ldr	r3, [r7, #0]
200032b6:	f003 6300 	and.w	r3, r3, #134217728	@ 0x8000000
200032ba:	2b00      	cmp	r3, #0
200032bc:	d003      	beq.n	200032c6 <CAN_ClearFlag+0x5c>
      CANx->TSR = (uint32_t)(flagtmp);
200032be:	687b      	ldr	r3, [r7, #4]
200032c0:	68fa      	ldr	r2, [r7, #12]
200032c2:	609a      	str	r2, [r3, #8]
}
200032c4:	e002      	b.n	200032cc <CAN_ClearFlag+0x62>
      CANx->MSR = (uint32_t)(flagtmp);
200032c6:	687b      	ldr	r3, [r7, #4]
200032c8:	68fa      	ldr	r2, [r7, #12]
200032ca:	605a      	str	r2, [r3, #4]
}
200032cc:	bf00      	nop
200032ce:	3714      	adds	r7, #20
200032d0:	46bd      	mov	sp, r7
200032d2:	f85d 7b04 	ldr.w	r7, [sp], #4
200032d6:	4770      	bx	lr
200032d8:	30f00070 	.word	0x30f00070

200032dc <CAN_GetITStatus>:
  *            @arg CAN_IT_LEC: Last error code Interrupt
  *            @arg CAN_IT_ERR: Error Interrupt
  * @retval The current state of CAN_IT (SET or RESET).
  */
ITStatus CAN_GetITStatus(CAN_TypeDef* CANx, uint32_t CAN_IT)
{
200032dc:	b580      	push	{r7, lr}
200032de:	b084      	sub	sp, #16
200032e0:	af00      	add	r7, sp, #0
200032e2:	6078      	str	r0, [r7, #4]
200032e4:	6039      	str	r1, [r7, #0]
  ITStatus itstatus = RESET;
200032e6:	2300      	movs	r3, #0
200032e8:	73fb      	strb	r3, [r7, #15]
  /* Check the parameters */
  assert_param(IS_CAN_ALL_PERIPH(CANx));
  assert_param(IS_CAN_IT(CAN_IT));
  
  /* check the interrupt enable bit */
 if((CANx->IER & CAN_IT) != RESET)
200032ea:	687b      	ldr	r3, [r7, #4]
200032ec:	695a      	ldr	r2, [r3, #20]
200032ee:	683b      	ldr	r3, [r7, #0]
200032f0:	4013      	ands	r3, r2
200032f2:	2b00      	cmp	r3, #0
200032f4:	f000 811b 	beq.w	2000352e <CAN_GetITStatus+0x252>
 {
   /* in case the Interrupt is enabled, .... */
    switch (CAN_IT)
200032f8:	683b      	ldr	r3, [r7, #0]
200032fa:	f5b3 3f00 	cmp.w	r3, #131072	@ 0x20000
200032fe:	f000 80dd 	beq.w	200034bc <CAN_GetITStatus+0x1e0>
20003302:	683b      	ldr	r3, [r7, #0]
20003304:	f5b3 3f00 	cmp.w	r3, #131072	@ 0x20000
20003308:	f200 810e 	bhi.w	20003528 <CAN_GetITStatus+0x24c>
2000330c:	683b      	ldr	r3, [r7, #0]
2000330e:	f5b3 3f80 	cmp.w	r3, #65536	@ 0x10000
20003312:	f000 80ca 	beq.w	200034aa <CAN_GetITStatus+0x1ce>
20003316:	683b      	ldr	r3, [r7, #0]
20003318:	f5b3 3f80 	cmp.w	r3, #65536	@ 0x10000
2000331c:	f200 8104 	bhi.w	20003528 <CAN_GetITStatus+0x24c>
20003320:	683b      	ldr	r3, [r7, #0]
20003322:	f5b3 4f00 	cmp.w	r3, #32768	@ 0x8000
20003326:	f000 80f6 	beq.w	20003516 <CAN_GetITStatus+0x23a>
2000332a:	683b      	ldr	r3, [r7, #0]
2000332c:	f5b3 4f00 	cmp.w	r3, #32768	@ 0x8000
20003330:	f200 80fa 	bhi.w	20003528 <CAN_GetITStatus+0x24c>
20003334:	683b      	ldr	r3, [r7, #0]
20003336:	f5b3 6f00 	cmp.w	r3, #2048	@ 0x800
2000333a:	f000 80e3 	beq.w	20003504 <CAN_GetITStatus+0x228>
2000333e:	683b      	ldr	r3, [r7, #0]
20003340:	f5b3 6f00 	cmp.w	r3, #2048	@ 0x800
20003344:	f200 80f0 	bhi.w	20003528 <CAN_GetITStatus+0x24c>
20003348:	683b      	ldr	r3, [r7, #0]
2000334a:	f5b3 6f80 	cmp.w	r3, #1024	@ 0x400
2000334e:	f000 80d0 	beq.w	200034f2 <CAN_GetITStatus+0x216>
20003352:	683b      	ldr	r3, [r7, #0]
20003354:	f5b3 6f80 	cmp.w	r3, #1024	@ 0x400
20003358:	f200 80e6 	bhi.w	20003528 <CAN_GetITStatus+0x24c>
2000335c:	683b      	ldr	r3, [r7, #0]
2000335e:	f5b3 7f00 	cmp.w	r3, #512	@ 0x200
20003362:	f000 80bd 	beq.w	200034e0 <CAN_GetITStatus+0x204>
20003366:	683b      	ldr	r3, [r7, #0]
20003368:	f5b3 7f00 	cmp.w	r3, #512	@ 0x200
2000336c:	f200 80dc 	bhi.w	20003528 <CAN_GetITStatus+0x24c>
20003370:	683b      	ldr	r3, [r7, #0]
20003372:	f5b3 7f80 	cmp.w	r3, #256	@ 0x100
20003376:	f000 80aa 	beq.w	200034ce <CAN_GetITStatus+0x1f2>
2000337a:	683b      	ldr	r3, [r7, #0]
2000337c:	f5b3 7f80 	cmp.w	r3, #256	@ 0x100
20003380:	f200 80d2 	bhi.w	20003528 <CAN_GetITStatus+0x24c>
20003384:	683b      	ldr	r3, [r7, #0]
20003386:	2b20      	cmp	r3, #32
20003388:	d84c      	bhi.n	20003424 <CAN_GetITStatus+0x148>
2000338a:	683b      	ldr	r3, [r7, #0]
2000338c:	2b00      	cmp	r3, #0
2000338e:	f000 80cb 	beq.w	20003528 <CAN_GetITStatus+0x24c>
20003392:	683b      	ldr	r3, [r7, #0]
20003394:	3b01      	subs	r3, #1
20003396:	2b1f      	cmp	r3, #31
20003398:	f200 80c6 	bhi.w	20003528 <CAN_GetITStatus+0x24c>
2000339c:	a201      	add	r2, pc, #4	@ (adr r2, 200033a4 <CAN_GetITStatus+0xc8>)
2000339e:	f852 f023 	ldr.w	pc, [r2, r3, lsl #2]
200033a2:	bf00      	nop
200033a4:	2000342d 	.word	0x2000342d
200033a8:	2000343f 	.word	0x2000343f
200033ac:	20003529 	.word	0x20003529
200033b0:	20003451 	.word	0x20003451
200033b4:	20003529 	.word	0x20003529
200033b8:	20003529 	.word	0x20003529
200033bc:	20003529 	.word	0x20003529
200033c0:	20003463 	.word	0x20003463
200033c4:	20003529 	.word	0x20003529
200033c8:	20003529 	.word	0x20003529
200033cc:	20003529 	.word	0x20003529
200033d0:	20003529 	.word	0x20003529
200033d4:	20003529 	.word	0x20003529
200033d8:	20003529 	.word	0x20003529
200033dc:	20003529 	.word	0x20003529
200033e0:	20003475 	.word	0x20003475
200033e4:	20003529 	.word	0x20003529
200033e8:	20003529 	.word	0x20003529
200033ec:	20003529 	.word	0x20003529
200033f0:	20003529 	.word	0x20003529
200033f4:	20003529 	.word	0x20003529
200033f8:	20003529 	.word	0x20003529
200033fc:	20003529 	.word	0x20003529
20003400:	20003529 	.word	0x20003529
20003404:	20003529 	.word	0x20003529
20003408:	20003529 	.word	0x20003529
2000340c:	20003529 	.word	0x20003529
20003410:	20003529 	.word	0x20003529
20003414:	20003529 	.word	0x20003529
20003418:	20003529 	.word	0x20003529
2000341c:	20003529 	.word	0x20003529
20003420:	20003487 	.word	0x20003487
20003424:	683b      	ldr	r3, [r7, #0]
20003426:	2b40      	cmp	r3, #64	@ 0x40
20003428:	d036      	beq.n	20003498 <CAN_GetITStatus+0x1bc>
2000342a:	e07d      	b.n	20003528 <CAN_GetITStatus+0x24c>
    {
      case CAN_IT_TME:
        /* Check CAN_TSR_RQCPx bits */
        itstatus = CheckITStatus(CANx->TSR, CAN_TSR_RQCP0|CAN_TSR_RQCP1|CAN_TSR_RQCP2);  
2000342c:	687b      	ldr	r3, [r7, #4]
2000342e:	689b      	ldr	r3, [r3, #8]
20003430:	4942      	ldr	r1, [pc, #264]	@ (2000353c <CAN_GetITStatus+0x260>)
20003432:	4618      	mov	r0, r3
20003434:	f000 f960 	bl	200036f8 <CheckITStatus>
20003438:	4603      	mov	r3, r0
2000343a:	73fb      	strb	r3, [r7, #15]
        break;
2000343c:	e079      	b.n	20003532 <CAN_GetITStatus+0x256>
      case CAN_IT_FMP0:
        /* Check CAN_RF0R_FMP0 bit */
        itstatus = CheckITStatus(CANx->RF0R, CAN_RF0R_FMP0);  
2000343e:	687b      	ldr	r3, [r7, #4]
20003440:	68db      	ldr	r3, [r3, #12]
20003442:	2103      	movs	r1, #3
20003444:	4618      	mov	r0, r3
20003446:	f000 f957 	bl	200036f8 <CheckITStatus>
2000344a:	4603      	mov	r3, r0
2000344c:	73fb      	strb	r3, [r7, #15]
        break;
2000344e:	e070      	b.n	20003532 <CAN_GetITStatus+0x256>
      case CAN_IT_FF0:
        /* Check CAN_RF0R_FULL0 bit */
        itstatus = CheckITStatus(CANx->RF0R, CAN_RF0R_FULL0);  
20003450:	687b      	ldr	r3, [r7, #4]
20003452:	68db      	ldr	r3, [r3, #12]
20003454:	2108      	movs	r1, #8
20003456:	4618      	mov	r0, r3
20003458:	f000 f94e 	bl	200036f8 <CheckITStatus>
2000345c:	4603      	mov	r3, r0
2000345e:	73fb      	strb	r3, [r7, #15]
        break;
20003460:	e067      	b.n	20003532 <CAN_GetITStatus+0x256>
      case CAN_IT_FOV0:
        /* Check CAN_RF0R_FOVR0 bit */
        itstatus = CheckITStatus(CANx->RF0R, CAN_RF0R_FOVR0);  
20003462:	687b      	ldr	r3, [r7, #4]
20003464:	68db      	ldr	r3, [r3, #12]
20003466:	2110      	movs	r1, #16
20003468:	4618      	mov	r0, r3
2000346a:	f000 f945 	bl	200036f8 <CheckITStatus>
2000346e:	4603      	mov	r3, r0
20003470:	73fb      	strb	r3, [r7, #15]
        break;
20003472:	e05e      	b.n	20003532 <CAN_GetITStatus+0x256>
      case CAN_IT_FMP1:
        /* Check CAN_RF1R_FMP1 bit */
        itstatus = CheckITStatus(CANx->RF1R, CAN_RF1R_FMP1);  
20003474:	687b      	ldr	r3, [r7, #4]
20003476:	691b      	ldr	r3, [r3, #16]
20003478:	2103      	movs	r1, #3
2000347a:	4618      	mov	r0, r3
2000347c:	f000 f93c 	bl	200036f8 <CheckITStatus>
20003480:	4603      	mov	r3, r0
20003482:	73fb      	strb	r3, [r7, #15]
        break;
20003484:	e055      	b.n	20003532 <CAN_GetITStatus+0x256>
      case CAN_IT_FF1:
        /* Check CAN_RF1R_FULL1 bit */
        itstatus = CheckITStatus(CANx->RF1R, CAN_RF1R_FULL1);  
20003486:	687b      	ldr	r3, [r7, #4]
20003488:	691b      	ldr	r3, [r3, #16]
2000348a:	2108      	movs	r1, #8
2000348c:	4618      	mov	r0, r3
2000348e:	f000 f933 	bl	200036f8 <CheckITStatus>
20003492:	4603      	mov	r3, r0
20003494:	73fb      	strb	r3, [r7, #15]
        break;
20003496:	e04c      	b.n	20003532 <CAN_GetITStatus+0x256>
      case CAN_IT_FOV1:
        /* Check CAN_RF1R_FOVR1 bit */
        itstatus = CheckITStatus(CANx->RF1R, CAN_RF1R_FOVR1);  
20003498:	687b      	ldr	r3, [r7, #4]
2000349a:	691b      	ldr	r3, [r3, #16]
2000349c:	2110      	movs	r1, #16
2000349e:	4618      	mov	r0, r3
200034a0:	f000 f92a 	bl	200036f8 <CheckITStatus>
200034a4:	4603      	mov	r3, r0
200034a6:	73fb      	strb	r3, [r7, #15]
        break;
200034a8:	e043      	b.n	20003532 <CAN_GetITStatus+0x256>
      case CAN_IT_WKU:
        /* Check CAN_MSR_WKUI bit */
        itstatus = CheckITStatus(CANx->MSR, CAN_MSR_WKUI);  
200034aa:	687b      	ldr	r3, [r7, #4]
200034ac:	685b      	ldr	r3, [r3, #4]
200034ae:	2108      	movs	r1, #8
200034b0:	4618      	mov	r0, r3
200034b2:	f000 f921 	bl	200036f8 <CheckITStatus>
200034b6:	4603      	mov	r3, r0
200034b8:	73fb      	strb	r3, [r7, #15]
        break;
200034ba:	e03a      	b.n	20003532 <CAN_GetITStatus+0x256>
      case CAN_IT_SLK:
        /* Check CAN_MSR_SLAKI bit */
        itstatus = CheckITStatus(CANx->MSR, CAN_MSR_SLAKI);  
200034bc:	687b      	ldr	r3, [r7, #4]
200034be:	685b      	ldr	r3, [r3, #4]
200034c0:	2110      	movs	r1, #16
200034c2:	4618      	mov	r0, r3
200034c4:	f000 f918 	bl	200036f8 <CheckITStatus>
200034c8:	4603      	mov	r3, r0
200034ca:	73fb      	strb	r3, [r7, #15]
        break;
200034cc:	e031      	b.n	20003532 <CAN_GetITStatus+0x256>
      case CAN_IT_EWG:
        /* Check CAN_ESR_EWGF bit */
        itstatus = CheckITStatus(CANx->ESR, CAN_ESR_EWGF);  
200034ce:	687b      	ldr	r3, [r7, #4]
200034d0:	699b      	ldr	r3, [r3, #24]
200034d2:	2101      	movs	r1, #1
200034d4:	4618      	mov	r0, r3
200034d6:	f000 f90f 	bl	200036f8 <CheckITStatus>
200034da:	4603      	mov	r3, r0
200034dc:	73fb      	strb	r3, [r7, #15]
        break;
200034de:	e028      	b.n	20003532 <CAN_GetITStatus+0x256>
      case CAN_IT_EPV:
        /* Check CAN_ESR_EPVF bit */
        itstatus = CheckITStatus(CANx->ESR, CAN_ESR_EPVF);  
200034e0:	687b      	ldr	r3, [r7, #4]
200034e2:	699b      	ldr	r3, [r3, #24]
200034e4:	2102      	movs	r1, #2
200034e6:	4618      	mov	r0, r3
200034e8:	f000 f906 	bl	200036f8 <CheckITStatus>
200034ec:	4603      	mov	r3, r0
200034ee:	73fb      	strb	r3, [r7, #15]
        break;
200034f0:	e01f      	b.n	20003532 <CAN_GetITStatus+0x256>
      case CAN_IT_BOF:
        /* Check CAN_ESR_BOFF bit */
        itstatus = CheckITStatus(CANx->ESR, CAN_ESR_BOFF);  
200034f2:	687b      	ldr	r3, [r7, #4]
200034f4:	699b      	ldr	r3, [r3, #24]
200034f6:	2104      	movs	r1, #4
200034f8:	4618      	mov	r0, r3
200034fa:	f000 f8fd 	bl	200036f8 <CheckITStatus>
200034fe:	4603      	mov	r3, r0
20003500:	73fb      	strb	r3, [r7, #15]
        break;
20003502:	e016      	b.n	20003532 <CAN_GetITStatus+0x256>
      case CAN_IT_LEC:
        /* Check CAN_ESR_LEC bit */
        itstatus = CheckITStatus(CANx->ESR, CAN_ESR_LEC);  
20003504:	687b      	ldr	r3, [r7, #4]
20003506:	699b      	ldr	r3, [r3, #24]
20003508:	2170      	movs	r1, #112	@ 0x70
2000350a:	4618      	mov	r0, r3
2000350c:	f000 f8f4 	bl	200036f8 <CheckITStatus>
20003510:	4603      	mov	r3, r0
20003512:	73fb      	strb	r3, [r7, #15]
        break;
20003514:	e00d      	b.n	20003532 <CAN_GetITStatus+0x256>
      case CAN_IT_ERR:
        /* Check CAN_MSR_ERRI bit */ 
        itstatus = CheckITStatus(CANx->MSR, CAN_MSR_ERRI); 
20003516:	687b      	ldr	r3, [r7, #4]
20003518:	685b      	ldr	r3, [r3, #4]
2000351a:	2104      	movs	r1, #4
2000351c:	4618      	mov	r0, r3
2000351e:	f000 f8eb 	bl	200036f8 <CheckITStatus>
20003522:	4603      	mov	r3, r0
20003524:	73fb      	strb	r3, [r7, #15]
        break;
20003526:	e004      	b.n	20003532 <CAN_GetITStatus+0x256>
      default:
        /* in case of error, return RESET */
        itstatus = RESET;
20003528:	2300      	movs	r3, #0
2000352a:	73fb      	strb	r3, [r7, #15]
        break;
2000352c:	e001      	b.n	20003532 <CAN_GetITStatus+0x256>
    }
  }
  else
  {
   /* in case the Interrupt is not enabled, return RESET */
    itstatus  = RESET;
2000352e:	2300      	movs	r3, #0
20003530:	73fb      	strb	r3, [r7, #15]
  }
  
  /* Return the CAN_IT status */
  return  itstatus;
20003532:	7bfb      	ldrb	r3, [r7, #15]
}
20003534:	4618      	mov	r0, r3
20003536:	3710      	adds	r7, #16
20003538:	46bd      	mov	sp, r7
2000353a:	bd80      	pop	{r7, pc}
2000353c:	00010101 	.word	0x00010101

20003540 <CAN_ClearITPendingBit>:
  *            @arg CAN_IT_LEC: Last error code Interrupt
  *            @arg CAN_IT_ERR: Error Interrupt 
  * @retval None
  */
void CAN_ClearITPendingBit(CAN_TypeDef* CANx, uint32_t CAN_IT)
{
20003540:	b480      	push	{r7}
20003542:	b083      	sub	sp, #12
20003544:	af00      	add	r7, sp, #0
20003546:	6078      	str	r0, [r7, #4]
20003548:	6039      	str	r1, [r7, #0]
  /* Check the parameters */
  assert_param(IS_CAN_ALL_PERIPH(CANx));
  assert_param(IS_CAN_CLEAR_IT(CAN_IT));

  switch (CAN_IT)
2000354a:	683b      	ldr	r3, [r7, #0]
2000354c:	f5b3 3f00 	cmp.w	r3, #131072	@ 0x20000
20003550:	f000 80aa 	beq.w	200036a8 <CAN_ClearITPendingBit+0x168>
20003554:	683b      	ldr	r3, [r7, #0]
20003556:	f5b3 3f00 	cmp.w	r3, #131072	@ 0x20000
2000355a:	f200 80c3 	bhi.w	200036e4 <CAN_ClearITPendingBit+0x1a4>
2000355e:	683b      	ldr	r3, [r7, #0]
20003560:	f5b3 3f80 	cmp.w	r3, #65536	@ 0x10000
20003564:	f000 809c 	beq.w	200036a0 <CAN_ClearITPendingBit+0x160>
20003568:	683b      	ldr	r3, [r7, #0]
2000356a:	f5b3 3f80 	cmp.w	r3, #65536	@ 0x10000
2000356e:	f200 80b9 	bhi.w	200036e4 <CAN_ClearITPendingBit+0x1a4>
20003572:	683b      	ldr	r3, [r7, #0]
20003574:	f5b3 4f00 	cmp.w	r3, #32768	@ 0x8000
20003578:	f000 80ad 	beq.w	200036d6 <CAN_ClearITPendingBit+0x196>
2000357c:	683b      	ldr	r3, [r7, #0]
2000357e:	f5b3 4f00 	cmp.w	r3, #32768	@ 0x8000
20003582:	f200 80af 	bhi.w	200036e4 <CAN_ClearITPendingBit+0x1a4>
20003586:	683b      	ldr	r3, [r7, #0]
20003588:	f5b3 6f00 	cmp.w	r3, #2048	@ 0x800
2000358c:	f000 809c 	beq.w	200036c8 <CAN_ClearITPendingBit+0x188>
20003590:	683b      	ldr	r3, [r7, #0]
20003592:	f5b3 6f00 	cmp.w	r3, #2048	@ 0x800
20003596:	f200 80a5 	bhi.w	200036e4 <CAN_ClearITPendingBit+0x1a4>
2000359a:	683b      	ldr	r3, [r7, #0]
2000359c:	f5b3 6f80 	cmp.w	r3, #1024	@ 0x400
200035a0:	f000 808e 	beq.w	200036c0 <CAN_ClearITPendingBit+0x180>
200035a4:	683b      	ldr	r3, [r7, #0]
200035a6:	f5b3 6f80 	cmp.w	r3, #1024	@ 0x400
200035aa:	f200 809b 	bhi.w	200036e4 <CAN_ClearITPendingBit+0x1a4>
200035ae:	683b      	ldr	r3, [r7, #0]
200035b0:	f5b3 7f00 	cmp.w	r3, #512	@ 0x200
200035b4:	f000 8080 	beq.w	200036b8 <CAN_ClearITPendingBit+0x178>
200035b8:	683b      	ldr	r3, [r7, #0]
200035ba:	f5b3 7f00 	cmp.w	r3, #512	@ 0x200
200035be:	f200 8091 	bhi.w	200036e4 <CAN_ClearITPendingBit+0x1a4>
200035c2:	683b      	ldr	r3, [r7, #0]
200035c4:	f5b3 7f80 	cmp.w	r3, #256	@ 0x100
200035c8:	d072      	beq.n	200036b0 <CAN_ClearITPendingBit+0x170>
200035ca:	683b      	ldr	r3, [r7, #0]
200035cc:	f5b3 7f80 	cmp.w	r3, #256	@ 0x100
200035d0:	f200 8088 	bhi.w	200036e4 <CAN_ClearITPendingBit+0x1a4>
200035d4:	683b      	ldr	r3, [r7, #0]
200035d6:	2b20      	cmp	r3, #32
200035d8:	d84a      	bhi.n	20003670 <CAN_ClearITPendingBit+0x130>
200035da:	683b      	ldr	r3, [r7, #0]
200035dc:	2b00      	cmp	r3, #0
200035de:	f000 8081 	beq.w	200036e4 <CAN_ClearITPendingBit+0x1a4>
200035e2:	683b      	ldr	r3, [r7, #0]
200035e4:	3b01      	subs	r3, #1
200035e6:	2b1f      	cmp	r3, #31
200035e8:	d87c      	bhi.n	200036e4 <CAN_ClearITPendingBit+0x1a4>
200035ea:	a201      	add	r2, pc, #4	@ (adr r2, 200035f0 <CAN_ClearITPendingBit+0xb0>)
200035ec:	f852 f023 	ldr.w	pc, [r2, r3, lsl #2]
200035f0:	20003679 	.word	0x20003679
200035f4:	200036e5 	.word	0x200036e5
200035f8:	200036e5 	.word	0x200036e5
200035fc:	20003681 	.word	0x20003681
20003600:	200036e5 	.word	0x200036e5
20003604:	200036e5 	.word	0x200036e5
20003608:	200036e5 	.word	0x200036e5
2000360c:	20003689 	.word	0x20003689
20003610:	200036e5 	.word	0x200036e5
20003614:	200036e5 	.word	0x200036e5
20003618:	200036e5 	.word	0x200036e5
2000361c:	200036e5 	.word	0x200036e5
20003620:	200036e5 	.word	0x200036e5
20003624:	200036e5 	.word	0x200036e5
20003628:	200036e5 	.word	0x200036e5
2000362c:	200036e5 	.word	0x200036e5
20003630:	200036e5 	.word	0x200036e5
20003634:	200036e5 	.word	0x200036e5
20003638:	200036e5 	.word	0x200036e5
2000363c:	200036e5 	.word	0x200036e5
20003640:	200036e5 	.word	0x200036e5
20003644:	200036e5 	.word	0x200036e5
20003648:	200036e5 	.word	0x200036e5
2000364c:	200036e5 	.word	0x200036e5
20003650:	200036e5 	.word	0x200036e5
20003654:	200036e5 	.word	0x200036e5
20003658:	200036e5 	.word	0x200036e5
2000365c:	200036e5 	.word	0x200036e5
20003660:	200036e5 	.word	0x200036e5
20003664:	200036e5 	.word	0x200036e5
20003668:	200036e5 	.word	0x200036e5
2000366c:	20003691 	.word	0x20003691
20003670:	683b      	ldr	r3, [r7, #0]
20003672:	2b40      	cmp	r3, #64	@ 0x40
20003674:	d010      	beq.n	20003698 <CAN_ClearITPendingBit+0x158>
      /* Clear CAN_MSR_ERRI (rc_w1) */
      CANx->MSR = CAN_MSR_ERRI; 
       /* @note BOFF, EPVF and EWGF Flags are cleared by hardware depending on the CAN Bus status*/
       break;
    default:
       break;
20003676:	e035      	b.n	200036e4 <CAN_ClearITPendingBit+0x1a4>
      CANx->TSR = CAN_TSR_RQCP0|CAN_TSR_RQCP1|CAN_TSR_RQCP2;  
20003678:	687b      	ldr	r3, [r7, #4]
2000367a:	4a1e      	ldr	r2, [pc, #120]	@ (200036f4 <CAN_ClearITPendingBit+0x1b4>)
2000367c:	609a      	str	r2, [r3, #8]
      break;
2000367e:	e032      	b.n	200036e6 <CAN_ClearITPendingBit+0x1a6>
      CANx->RF0R = CAN_RF0R_FULL0; 
20003680:	687b      	ldr	r3, [r7, #4]
20003682:	2208      	movs	r2, #8
20003684:	60da      	str	r2, [r3, #12]
      break;
20003686:	e02e      	b.n	200036e6 <CAN_ClearITPendingBit+0x1a6>
      CANx->RF0R = CAN_RF0R_FOVR0; 
20003688:	687b      	ldr	r3, [r7, #4]
2000368a:	2210      	movs	r2, #16
2000368c:	60da      	str	r2, [r3, #12]
      break;
2000368e:	e02a      	b.n	200036e6 <CAN_ClearITPendingBit+0x1a6>
      CANx->RF1R = CAN_RF1R_FULL1;  
20003690:	687b      	ldr	r3, [r7, #4]
20003692:	2208      	movs	r2, #8
20003694:	611a      	str	r2, [r3, #16]
      break;
20003696:	e026      	b.n	200036e6 <CAN_ClearITPendingBit+0x1a6>
      CANx->RF1R = CAN_RF1R_FOVR1; 
20003698:	687b      	ldr	r3, [r7, #4]
2000369a:	2210      	movs	r2, #16
2000369c:	611a      	str	r2, [r3, #16]
      break;
2000369e:	e022      	b.n	200036e6 <CAN_ClearITPendingBit+0x1a6>
      CANx->MSR = CAN_MSR_WKUI;  
200036a0:	687b      	ldr	r3, [r7, #4]
200036a2:	2208      	movs	r2, #8
200036a4:	605a      	str	r2, [r3, #4]
      break;
200036a6:	e01e      	b.n	200036e6 <CAN_ClearITPendingBit+0x1a6>
      CANx->MSR = CAN_MSR_SLAKI;   
200036a8:	687b      	ldr	r3, [r7, #4]
200036aa:	2210      	movs	r2, #16
200036ac:	605a      	str	r2, [r3, #4]
      break;
200036ae:	e01a      	b.n	200036e6 <CAN_ClearITPendingBit+0x1a6>
      CANx->MSR = CAN_MSR_ERRI;
200036b0:	687b      	ldr	r3, [r7, #4]
200036b2:	2204      	movs	r2, #4
200036b4:	605a      	str	r2, [r3, #4]
      break;
200036b6:	e016      	b.n	200036e6 <CAN_ClearITPendingBit+0x1a6>
      CANx->MSR = CAN_MSR_ERRI; 
200036b8:	687b      	ldr	r3, [r7, #4]
200036ba:	2204      	movs	r2, #4
200036bc:	605a      	str	r2, [r3, #4]
      break;
200036be:	e012      	b.n	200036e6 <CAN_ClearITPendingBit+0x1a6>
      CANx->MSR = CAN_MSR_ERRI; 
200036c0:	687b      	ldr	r3, [r7, #4]
200036c2:	2204      	movs	r2, #4
200036c4:	605a      	str	r2, [r3, #4]
       break;
200036c6:	e00e      	b.n	200036e6 <CAN_ClearITPendingBit+0x1a6>
      CANx->ESR = RESET; 
200036c8:	687b      	ldr	r3, [r7, #4]
200036ca:	2200      	movs	r2, #0
200036cc:	619a      	str	r2, [r3, #24]
      CANx->MSR = CAN_MSR_ERRI; 
200036ce:	687b      	ldr	r3, [r7, #4]
200036d0:	2204      	movs	r2, #4
200036d2:	605a      	str	r2, [r3, #4]
      break;
200036d4:	e007      	b.n	200036e6 <CAN_ClearITPendingBit+0x1a6>
      CANx->ESR = RESET; 
200036d6:	687b      	ldr	r3, [r7, #4]
200036d8:	2200      	movs	r2, #0
200036da:	619a      	str	r2, [r3, #24]
      CANx->MSR = CAN_MSR_ERRI; 
200036dc:	687b      	ldr	r3, [r7, #4]
200036de:	2204      	movs	r2, #4
200036e0:	605a      	str	r2, [r3, #4]
       break;
200036e2:	e000      	b.n	200036e6 <CAN_ClearITPendingBit+0x1a6>
       break;
200036e4:	bf00      	nop
   }
}
200036e6:	bf00      	nop
200036e8:	370c      	adds	r7, #12
200036ea:	46bd      	mov	sp, r7
200036ec:	f85d 7b04 	ldr.w	r7, [sp], #4
200036f0:	4770      	bx	lr
200036f2:	bf00      	nop
200036f4:	00010101 	.word	0x00010101

200036f8 <CheckITStatus>:
  * @param  CAN_Reg: specifies the CAN interrupt register to check.
  * @param  It_Bit: specifies the interrupt source bit to check.
  * @retval The new state of the CAN Interrupt (SET or RESET).
  */
static ITStatus CheckITStatus(uint32_t CAN_Reg, uint32_t It_Bit)
{
200036f8:	b480      	push	{r7}
200036fa:	b085      	sub	sp, #20
200036fc:	af00      	add	r7, sp, #0
200036fe:	6078      	str	r0, [r7, #4]
20003700:	6039      	str	r1, [r7, #0]
  ITStatus pendingbitstatus = RESET;
20003702:	2300      	movs	r3, #0
20003704:	73fb      	strb	r3, [r7, #15]
  
  if ((CAN_Reg & It_Bit) != (uint32_t)RESET)
20003706:	687a      	ldr	r2, [r7, #4]
20003708:	683b      	ldr	r3, [r7, #0]
2000370a:	4013      	ands	r3, r2
2000370c:	2b00      	cmp	r3, #0
2000370e:	d002      	beq.n	20003716 <CheckITStatus+0x1e>
  {
    /* CAN_IT is set */
    pendingbitstatus = SET;
20003710:	2301      	movs	r3, #1
20003712:	73fb      	strb	r3, [r7, #15]
20003714:	e001      	b.n	2000371a <CheckITStatus+0x22>
  }
  else
  {
    /* CAN_IT is reset */
    pendingbitstatus = RESET;
20003716:	2300      	movs	r3, #0
20003718:	73fb      	strb	r3, [r7, #15]
  }
  return pendingbitstatus;
2000371a:	7bfb      	ldrb	r3, [r7, #15]
}
2000371c:	4618      	mov	r0, r3
2000371e:	3714      	adds	r7, #20
20003720:	46bd      	mov	sp, r7
20003722:	f85d 7b04 	ldr.w	r7, [sp], #4
20003726:	4770      	bx	lr

20003728 <DAC_DeInit>:
  * @brief  Deinitializes the DAC peripheral registers to their default reset values.
  * @param  None
  * @retval None
  */
void DAC_DeInit(void)
{
20003728:	b580      	push	{r7, lr}
2000372a:	af00      	add	r7, sp, #0
  /* Enable DAC reset state */
  RCC_APB1PeriphResetCmd(RCC_APB1Periph_DAC, ENABLE);
2000372c:	2101      	movs	r1, #1
2000372e:	f04f 5000 	mov.w	r0, #536870912	@ 0x20000000
20003732:	f001 fa71 	bl	20004c18 <RCC_APB1PeriphResetCmd>
  /* Release DAC from reset state */
  RCC_APB1PeriphResetCmd(RCC_APB1Periph_DAC, DISABLE);
20003736:	2100      	movs	r1, #0
20003738:	f04f 5000 	mov.w	r0, #536870912	@ 0x20000000
2000373c:	f001 fa6c 	bl	20004c18 <RCC_APB1PeriphResetCmd>
}
20003740:	bf00      	nop
20003742:	bd80      	pop	{r7, pc}

20003744 <DAC_Init>:
  * @param  DAC_InitStruct: pointer to a DAC_InitTypeDef structure that contains
  *         the configuration information for the  specified DAC channel.
  * @retval None
  */
void DAC_Init(uint32_t DAC_Channel, DAC_InitTypeDef* DAC_InitStruct)
{
20003744:	b480      	push	{r7}
20003746:	b085      	sub	sp, #20
20003748:	af00      	add	r7, sp, #0
2000374a:	6078      	str	r0, [r7, #4]
2000374c:	6039      	str	r1, [r7, #0]
  uint32_t tmpreg1 = 0, tmpreg2 = 0;
2000374e:	2300      	movs	r3, #0
20003750:	60fb      	str	r3, [r7, #12]
20003752:	2300      	movs	r3, #0
20003754:	60bb      	str	r3, [r7, #8]
  assert_param(IS_DAC_LFSR_UNMASK_TRIANGLE_AMPLITUDE(DAC_InitStruct->DAC_LFSRUnmask_TriangleAmplitude));
  assert_param(IS_DAC_OUTPUT_BUFFER_STATE(DAC_InitStruct->DAC_OutputBuffer));

/*---------------------------- DAC CR Configuration --------------------------*/
  /* Get the DAC CR value */
  tmpreg1 = DAC->CR;
20003756:	4b14      	ldr	r3, [pc, #80]	@ (200037a8 <DAC_Init+0x64>)
20003758:	681b      	ldr	r3, [r3, #0]
2000375a:	60fb      	str	r3, [r7, #12]
  /* Clear BOFFx, TENx, TSELx, WAVEx and MAMPx bits */
  tmpreg1 &= ~(CR_CLEAR_MASK << DAC_Channel);
2000375c:	f640 72fe 	movw	r2, #4094	@ 0xffe
20003760:	687b      	ldr	r3, [r7, #4]
20003762:	fa02 f303 	lsl.w	r3, r2, r3
20003766:	43db      	mvns	r3, r3
20003768:	68fa      	ldr	r2, [r7, #12]
2000376a:	4013      	ands	r3, r2
2000376c:	60fb      	str	r3, [r7, #12]
     wave generation, mask/amplitude for wave generation */
  /* Set TSELx and TENx bits according to DAC_Trigger value */
  /* Set WAVEx bits according to DAC_WaveGeneration value */
  /* Set MAMPx bits according to DAC_LFSRUnmask_TriangleAmplitude value */ 
  /* Set BOFFx bit according to DAC_OutputBuffer value */   
  tmpreg2 = (DAC_InitStruct->DAC_Trigger | DAC_InitStruct->DAC_WaveGeneration |
2000376e:	683b      	ldr	r3, [r7, #0]
20003770:	681a      	ldr	r2, [r3, #0]
20003772:	683b      	ldr	r3, [r7, #0]
20003774:	685b      	ldr	r3, [r3, #4]
20003776:	431a      	orrs	r2, r3
             DAC_InitStruct->DAC_LFSRUnmask_TriangleAmplitude | \
20003778:	683b      	ldr	r3, [r7, #0]
2000377a:	689b      	ldr	r3, [r3, #8]
  tmpreg2 = (DAC_InitStruct->DAC_Trigger | DAC_InitStruct->DAC_WaveGeneration |
2000377c:	431a      	orrs	r2, r3
             DAC_InitStruct->DAC_OutputBuffer);
2000377e:	683b      	ldr	r3, [r7, #0]
20003780:	68db      	ldr	r3, [r3, #12]
  tmpreg2 = (DAC_InitStruct->DAC_Trigger | DAC_InitStruct->DAC_WaveGeneration |
20003782:	4313      	orrs	r3, r2
20003784:	60bb      	str	r3, [r7, #8]
  /* Calculate CR register value depending on DAC_Channel */
  tmpreg1 |= tmpreg2 << DAC_Channel;
20003786:	68ba      	ldr	r2, [r7, #8]
20003788:	687b      	ldr	r3, [r7, #4]
2000378a:	fa02 f303 	lsl.w	r3, r2, r3
2000378e:	68fa      	ldr	r2, [r7, #12]
20003790:	4313      	orrs	r3, r2
20003792:	60fb      	str	r3, [r7, #12]
  /* Write to DAC CR */
  DAC->CR = tmpreg1;
20003794:	4a04      	ldr	r2, [pc, #16]	@ (200037a8 <DAC_Init+0x64>)
20003796:	68fb      	ldr	r3, [r7, #12]
20003798:	6013      	str	r3, [r2, #0]
}
2000379a:	bf00      	nop
2000379c:	3714      	adds	r7, #20
2000379e:	46bd      	mov	sp, r7
200037a0:	f85d 7b04 	ldr.w	r7, [sp], #4
200037a4:	4770      	bx	lr
200037a6:	bf00      	nop
200037a8:	40007400 	.word	0x40007400

200037ac <DAC_StructInit>:
  * @param  DAC_InitStruct: pointer to a DAC_InitTypeDef structure which will 
  *         be initialized.
  * @retval None
  */
void DAC_StructInit(DAC_InitTypeDef* DAC_InitStruct)
{
200037ac:	b480      	push	{r7}
200037ae:	b083      	sub	sp, #12
200037b0:	af00      	add	r7, sp, #0
200037b2:	6078      	str	r0, [r7, #4]
/*--------------- Reset DAC init structure parameters values -----------------*/
  /* Initialize the DAC_Trigger member */
  DAC_InitStruct->DAC_Trigger = DAC_Trigger_None;
200037b4:	687b      	ldr	r3, [r7, #4]
200037b6:	2200      	movs	r2, #0
200037b8:	601a      	str	r2, [r3, #0]
  /* Initialize the DAC_WaveGeneration member */
  DAC_InitStruct->DAC_WaveGeneration = DAC_WaveGeneration_None;
200037ba:	687b      	ldr	r3, [r7, #4]
200037bc:	2200      	movs	r2, #0
200037be:	605a      	str	r2, [r3, #4]
  /* Initialize the DAC_LFSRUnmask_TriangleAmplitude member */
  DAC_InitStruct->DAC_LFSRUnmask_TriangleAmplitude = DAC_LFSRUnmask_Bit0;
200037c0:	687b      	ldr	r3, [r7, #4]
200037c2:	2200      	movs	r2, #0
200037c4:	609a      	str	r2, [r3, #8]
  /* Initialize the DAC_OutputBuffer member */
  DAC_InitStruct->DAC_OutputBuffer = DAC_OutputBuffer_Enable;
200037c6:	687b      	ldr	r3, [r7, #4]
200037c8:	2200      	movs	r2, #0
200037ca:	60da      	str	r2, [r3, #12]
}
200037cc:	bf00      	nop
200037ce:	370c      	adds	r7, #12
200037d0:	46bd      	mov	sp, r7
200037d2:	f85d 7b04 	ldr.w	r7, [sp], #4
200037d6:	4770      	bx	lr

200037d8 <DAC_Cmd>:
  *          This parameter can be: ENABLE or DISABLE.
  * @note   When the DAC channel is enabled the trigger source can no more be modified.
  * @retval None
  */
void DAC_Cmd(uint32_t DAC_Channel, FunctionalState NewState)
{
200037d8:	b480      	push	{r7}
200037da:	b083      	sub	sp, #12
200037dc:	af00      	add	r7, sp, #0
200037de:	6078      	str	r0, [r7, #4]
200037e0:	460b      	mov	r3, r1
200037e2:	70fb      	strb	r3, [r7, #3]
  /* Check the parameters */
  assert_param(IS_DAC_CHANNEL(DAC_Channel));
  assert_param(IS_FUNCTIONAL_STATE(NewState));

  if (NewState != DISABLE)
200037e4:	78fb      	ldrb	r3, [r7, #3]
200037e6:	2b00      	cmp	r3, #0
200037e8:	d009      	beq.n	200037fe <DAC_Cmd+0x26>
  {
    /* Enable the selected DAC channel */
    DAC->CR |= (DAC_CR_EN1 << DAC_Channel);
200037ea:	4b0d      	ldr	r3, [pc, #52]	@ (20003820 <DAC_Cmd+0x48>)
200037ec:	681a      	ldr	r2, [r3, #0]
200037ee:	2101      	movs	r1, #1
200037f0:	687b      	ldr	r3, [r7, #4]
200037f2:	fa01 f303 	lsl.w	r3, r1, r3
200037f6:	490a      	ldr	r1, [pc, #40]	@ (20003820 <DAC_Cmd+0x48>)
200037f8:	4313      	orrs	r3, r2
200037fa:	600b      	str	r3, [r1, #0]
  else
  {
    /* Disable the selected DAC channel */
    DAC->CR &= (~(DAC_CR_EN1 << DAC_Channel));
  }
}
200037fc:	e009      	b.n	20003812 <DAC_Cmd+0x3a>
    DAC->CR &= (~(DAC_CR_EN1 << DAC_Channel));
200037fe:	4b08      	ldr	r3, [pc, #32]	@ (20003820 <DAC_Cmd+0x48>)
20003800:	681a      	ldr	r2, [r3, #0]
20003802:	2101      	movs	r1, #1
20003804:	687b      	ldr	r3, [r7, #4]
20003806:	fa01 f303 	lsl.w	r3, r1, r3
2000380a:	43db      	mvns	r3, r3
2000380c:	4904      	ldr	r1, [pc, #16]	@ (20003820 <DAC_Cmd+0x48>)
2000380e:	4013      	ands	r3, r2
20003810:	600b      	str	r3, [r1, #0]
}
20003812:	bf00      	nop
20003814:	370c      	adds	r7, #12
20003816:	46bd      	mov	sp, r7
20003818:	f85d 7b04 	ldr.w	r7, [sp], #4
2000381c:	4770      	bx	lr
2000381e:	bf00      	nop
20003820:	40007400 	.word	0x40007400

20003824 <DAC_SoftwareTriggerCmd>:
  * @param  NewState: new state of the selected DAC channel software trigger.
  *          This parameter can be: ENABLE or DISABLE.
  * @retval None
  */
void DAC_SoftwareTriggerCmd(uint32_t DAC_Channel, FunctionalState NewState)
{
20003824:	b480      	push	{r7}
20003826:	b083      	sub	sp, #12
20003828:	af00      	add	r7, sp, #0
2000382a:	6078      	str	r0, [r7, #4]
2000382c:	460b      	mov	r3, r1
2000382e:	70fb      	strb	r3, [r7, #3]
  /* Check the parameters */
  assert_param(IS_DAC_CHANNEL(DAC_Channel));
  assert_param(IS_FUNCTIONAL_STATE(NewState));

  if (NewState != DISABLE)
20003830:	78fb      	ldrb	r3, [r7, #3]
20003832:	2b00      	cmp	r3, #0
20003834:	d00a      	beq.n	2000384c <DAC_SoftwareTriggerCmd+0x28>
  {
    /* Enable software trigger for the selected DAC channel */
    DAC->SWTRIGR |= (uint32_t)DAC_SWTRIGR_SWTRIG1 << (DAC_Channel >> 4);
20003836:	4b0e      	ldr	r3, [pc, #56]	@ (20003870 <DAC_SoftwareTriggerCmd+0x4c>)
20003838:	685a      	ldr	r2, [r3, #4]
2000383a:	687b      	ldr	r3, [r7, #4]
2000383c:	091b      	lsrs	r3, r3, #4
2000383e:	2101      	movs	r1, #1
20003840:	fa01 f303 	lsl.w	r3, r1, r3
20003844:	490a      	ldr	r1, [pc, #40]	@ (20003870 <DAC_SoftwareTriggerCmd+0x4c>)
20003846:	4313      	orrs	r3, r2
20003848:	604b      	str	r3, [r1, #4]
  else
  {
    /* Disable software trigger for the selected DAC channel */
    DAC->SWTRIGR &= ~((uint32_t)DAC_SWTRIGR_SWTRIG1 << (DAC_Channel >> 4));
  }
}
2000384a:	e00a      	b.n	20003862 <DAC_SoftwareTriggerCmd+0x3e>
    DAC->SWTRIGR &= ~((uint32_t)DAC_SWTRIGR_SWTRIG1 << (DAC_Channel >> 4));
2000384c:	4b08      	ldr	r3, [pc, #32]	@ (20003870 <DAC_SoftwareTriggerCmd+0x4c>)
2000384e:	685a      	ldr	r2, [r3, #4]
20003850:	687b      	ldr	r3, [r7, #4]
20003852:	091b      	lsrs	r3, r3, #4
20003854:	2101      	movs	r1, #1
20003856:	fa01 f303 	lsl.w	r3, r1, r3
2000385a:	43db      	mvns	r3, r3
2000385c:	4904      	ldr	r1, [pc, #16]	@ (20003870 <DAC_SoftwareTriggerCmd+0x4c>)
2000385e:	4013      	ands	r3, r2
20003860:	604b      	str	r3, [r1, #4]
}
20003862:	bf00      	nop
20003864:	370c      	adds	r7, #12
20003866:	46bd      	mov	sp, r7
20003868:	f85d 7b04 	ldr.w	r7, [sp], #4
2000386c:	4770      	bx	lr
2000386e:	bf00      	nop
20003870:	40007400 	.word	0x40007400

20003874 <DAC_DualSoftwareTriggerCmd>:
  * @param  NewState: new state of the DAC channels software triggers.
  *          This parameter can be: ENABLE or DISABLE.
  * @retval None
  */
void DAC_DualSoftwareTriggerCmd(FunctionalState NewState)
{
20003874:	b480      	push	{r7}
20003876:	b083      	sub	sp, #12
20003878:	af00      	add	r7, sp, #0
2000387a:	4603      	mov	r3, r0
2000387c:	71fb      	strb	r3, [r7, #7]
  /* Check the parameters */
  assert_param(IS_FUNCTIONAL_STATE(NewState));

  if (NewState != DISABLE)
2000387e:	79fb      	ldrb	r3, [r7, #7]
20003880:	2b00      	cmp	r3, #0
20003882:	d006      	beq.n	20003892 <DAC_DualSoftwareTriggerCmd+0x1e>
  {
    /* Enable software trigger for both DAC channels */
    DAC->SWTRIGR |= DUAL_SWTRIG_SET;
20003884:	4b09      	ldr	r3, [pc, #36]	@ (200038ac <DAC_DualSoftwareTriggerCmd+0x38>)
20003886:	685b      	ldr	r3, [r3, #4]
20003888:	4a08      	ldr	r2, [pc, #32]	@ (200038ac <DAC_DualSoftwareTriggerCmd+0x38>)
2000388a:	f043 0303 	orr.w	r3, r3, #3
2000388e:	6053      	str	r3, [r2, #4]
  else
  {
    /* Disable software trigger for both DAC channels */
    DAC->SWTRIGR &= DUAL_SWTRIG_RESET;
  }
}
20003890:	e005      	b.n	2000389e <DAC_DualSoftwareTriggerCmd+0x2a>
    DAC->SWTRIGR &= DUAL_SWTRIG_RESET;
20003892:	4b06      	ldr	r3, [pc, #24]	@ (200038ac <DAC_DualSoftwareTriggerCmd+0x38>)
20003894:	685b      	ldr	r3, [r3, #4]
20003896:	4a05      	ldr	r2, [pc, #20]	@ (200038ac <DAC_DualSoftwareTriggerCmd+0x38>)
20003898:	f023 0303 	bic.w	r3, r3, #3
2000389c:	6053      	str	r3, [r2, #4]
}
2000389e:	bf00      	nop
200038a0:	370c      	adds	r7, #12
200038a2:	46bd      	mov	sp, r7
200038a4:	f85d 7b04 	ldr.w	r7, [sp], #4
200038a8:	4770      	bx	lr
200038aa:	bf00      	nop
200038ac:	40007400 	.word	0x40007400

200038b0 <DAC_WaveGenerationCmd>:
  * @param  NewState: new state of the selected DAC channel wave generation.
  *          This parameter can be: ENABLE or DISABLE.  
  * @retval None
  */
void DAC_WaveGenerationCmd(uint32_t DAC_Channel, uint32_t DAC_Wave, FunctionalState NewState)
{
200038b0:	b480      	push	{r7}
200038b2:	b085      	sub	sp, #20
200038b4:	af00      	add	r7, sp, #0
200038b6:	60f8      	str	r0, [r7, #12]
200038b8:	60b9      	str	r1, [r7, #8]
200038ba:	4613      	mov	r3, r2
200038bc:	71fb      	strb	r3, [r7, #7]
  /* Check the parameters */
  assert_param(IS_DAC_CHANNEL(DAC_Channel));
  assert_param(IS_DAC_WAVE(DAC_Wave)); 
  assert_param(IS_FUNCTIONAL_STATE(NewState));

  if (NewState != DISABLE)
200038be:	79fb      	ldrb	r3, [r7, #7]
200038c0:	2b00      	cmp	r3, #0
200038c2:	d009      	beq.n	200038d8 <DAC_WaveGenerationCmd+0x28>
  {
    /* Enable the selected wave generation for the selected DAC channel */
    DAC->CR |= DAC_Wave << DAC_Channel;
200038c4:	4b0c      	ldr	r3, [pc, #48]	@ (200038f8 <DAC_WaveGenerationCmd+0x48>)
200038c6:	681a      	ldr	r2, [r3, #0]
200038c8:	68b9      	ldr	r1, [r7, #8]
200038ca:	68fb      	ldr	r3, [r7, #12]
200038cc:	fa01 f303 	lsl.w	r3, r1, r3
200038d0:	4909      	ldr	r1, [pc, #36]	@ (200038f8 <DAC_WaveGenerationCmd+0x48>)
200038d2:	4313      	orrs	r3, r2
200038d4:	600b      	str	r3, [r1, #0]
  else
  {
    /* Disable the selected wave generation for the selected DAC channel */
    DAC->CR &= ~(DAC_Wave << DAC_Channel);
  }
}
200038d6:	e009      	b.n	200038ec <DAC_WaveGenerationCmd+0x3c>
    DAC->CR &= ~(DAC_Wave << DAC_Channel);
200038d8:	4b07      	ldr	r3, [pc, #28]	@ (200038f8 <DAC_WaveGenerationCmd+0x48>)
200038da:	681a      	ldr	r2, [r3, #0]
200038dc:	68b9      	ldr	r1, [r7, #8]
200038de:	68fb      	ldr	r3, [r7, #12]
200038e0:	fa01 f303 	lsl.w	r3, r1, r3
200038e4:	43db      	mvns	r3, r3
200038e6:	4904      	ldr	r1, [pc, #16]	@ (200038f8 <DAC_WaveGenerationCmd+0x48>)
200038e8:	4013      	ands	r3, r2
200038ea:	600b      	str	r3, [r1, #0]
}
200038ec:	bf00      	nop
200038ee:	3714      	adds	r7, #20
200038f0:	46bd      	mov	sp, r7
200038f2:	f85d 7b04 	ldr.w	r7, [sp], #4
200038f6:	4770      	bx	lr
200038f8:	40007400 	.word	0x40007400

200038fc <DAC_SetChannel1Data>:
  *            @arg DAC_Align_12b_R: 12bit right data alignment selected
  * @param  Data: Data to be loaded in the selected data holding register.
  * @retval None
  */
void DAC_SetChannel1Data(uint32_t DAC_Align, uint16_t Data)
{  
200038fc:	b480      	push	{r7}
200038fe:	b085      	sub	sp, #20
20003900:	af00      	add	r7, sp, #0
20003902:	6078      	str	r0, [r7, #4]
20003904:	460b      	mov	r3, r1
20003906:	807b      	strh	r3, [r7, #2]
  __IO uint32_t tmp = 0;
20003908:	2300      	movs	r3, #0
2000390a:	60fb      	str	r3, [r7, #12]
  
  /* Check the parameters */
  assert_param(IS_DAC_ALIGN(DAC_Align));
  assert_param(IS_DAC_DATA(Data));
  
  tmp = (uint32_t)DAC_BASE; 
2000390c:	4b08      	ldr	r3, [pc, #32]	@ (20003930 <DAC_SetChannel1Data+0x34>)
2000390e:	60fb      	str	r3, [r7, #12]
  tmp += DHR12R1_OFFSET + DAC_Align;
20003910:	68fa      	ldr	r2, [r7, #12]
20003912:	687b      	ldr	r3, [r7, #4]
20003914:	4413      	add	r3, r2
20003916:	3308      	adds	r3, #8
20003918:	60fb      	str	r3, [r7, #12]

  /* Set the DAC channel1 selected data holding register */
  *(__IO uint32_t *) tmp = Data;
2000391a:	68fb      	ldr	r3, [r7, #12]
2000391c:	461a      	mov	r2, r3
2000391e:	887b      	ldrh	r3, [r7, #2]
20003920:	6013      	str	r3, [r2, #0]
}
20003922:	bf00      	nop
20003924:	3714      	adds	r7, #20
20003926:	46bd      	mov	sp, r7
20003928:	f85d 7b04 	ldr.w	r7, [sp], #4
2000392c:	4770      	bx	lr
2000392e:	bf00      	nop
20003930:	40007400 	.word	0x40007400

20003934 <DAC_SetChannel2Data>:
  *            @arg DAC_Align_12b_R: 12bit right data alignment selected
  * @param  Data: Data to be loaded in the selected data holding register.
  * @retval None
  */
void DAC_SetChannel2Data(uint32_t DAC_Align, uint16_t Data)
{
20003934:	b480      	push	{r7}
20003936:	b085      	sub	sp, #20
20003938:	af00      	add	r7, sp, #0
2000393a:	6078      	str	r0, [r7, #4]
2000393c:	460b      	mov	r3, r1
2000393e:	807b      	strh	r3, [r7, #2]
  __IO uint32_t tmp = 0;
20003940:	2300      	movs	r3, #0
20003942:	60fb      	str	r3, [r7, #12]

  /* Check the parameters */
  assert_param(IS_DAC_ALIGN(DAC_Align));
  assert_param(IS_DAC_DATA(Data));
  
  tmp = (uint32_t)DAC_BASE;
20003944:	4b08      	ldr	r3, [pc, #32]	@ (20003968 <DAC_SetChannel2Data+0x34>)
20003946:	60fb      	str	r3, [r7, #12]
  tmp += DHR12R2_OFFSET + DAC_Align;
20003948:	68fa      	ldr	r2, [r7, #12]
2000394a:	687b      	ldr	r3, [r7, #4]
2000394c:	4413      	add	r3, r2
2000394e:	3314      	adds	r3, #20
20003950:	60fb      	str	r3, [r7, #12]

  /* Set the DAC channel2 selected data holding register */
  *(__IO uint32_t *)tmp = Data;
20003952:	68fb      	ldr	r3, [r7, #12]
20003954:	461a      	mov	r2, r3
20003956:	887b      	ldrh	r3, [r7, #2]
20003958:	6013      	str	r3, [r2, #0]
}
2000395a:	bf00      	nop
2000395c:	3714      	adds	r7, #20
2000395e:	46bd      	mov	sp, r7
20003960:	f85d 7b04 	ldr.w	r7, [sp], #4
20003964:	4770      	bx	lr
20003966:	bf00      	nop
20003968:	40007400 	.word	0x40007400

2000396c <DAC_SetDualChannelData>:
  * @note   In dual mode, a unique register access is required to write in both
  *          DAC channels at the same time.
  * @retval None
  */
void DAC_SetDualChannelData(uint32_t DAC_Align, uint16_t Data2, uint16_t Data1)
{
2000396c:	b480      	push	{r7}
2000396e:	b085      	sub	sp, #20
20003970:	af00      	add	r7, sp, #0
20003972:	6078      	str	r0, [r7, #4]
20003974:	460b      	mov	r3, r1
20003976:	807b      	strh	r3, [r7, #2]
20003978:	4613      	mov	r3, r2
2000397a:	803b      	strh	r3, [r7, #0]
  uint32_t data = 0, tmp = 0;
2000397c:	2300      	movs	r3, #0
2000397e:	60fb      	str	r3, [r7, #12]
20003980:	2300      	movs	r3, #0
20003982:	60bb      	str	r3, [r7, #8]
  assert_param(IS_DAC_ALIGN(DAC_Align));
  assert_param(IS_DAC_DATA(Data1));
  assert_param(IS_DAC_DATA(Data2));
  
  /* Calculate and set dual DAC data holding register value */
  if (DAC_Align == DAC_Align_8b_R)
20003984:	687b      	ldr	r3, [r7, #4]
20003986:	2b08      	cmp	r3, #8
20003988:	d105      	bne.n	20003996 <DAC_SetDualChannelData+0x2a>
  {
    data = ((uint32_t)Data2 << 8) | Data1; 
2000398a:	887b      	ldrh	r3, [r7, #2]
2000398c:	021a      	lsls	r2, r3, #8
2000398e:	883b      	ldrh	r3, [r7, #0]
20003990:	4313      	orrs	r3, r2
20003992:	60fb      	str	r3, [r7, #12]
20003994:	e004      	b.n	200039a0 <DAC_SetDualChannelData+0x34>
  }
  else
  {
    data = ((uint32_t)Data2 << 16) | Data1;
20003996:	887b      	ldrh	r3, [r7, #2]
20003998:	041a      	lsls	r2, r3, #16
2000399a:	883b      	ldrh	r3, [r7, #0]
2000399c:	4313      	orrs	r3, r2
2000399e:	60fb      	str	r3, [r7, #12]
  }
  
  tmp = (uint32_t)DAC_BASE;
200039a0:	4b07      	ldr	r3, [pc, #28]	@ (200039c0 <DAC_SetDualChannelData+0x54>)
200039a2:	60bb      	str	r3, [r7, #8]
  tmp += DHR12RD_OFFSET + DAC_Align;
200039a4:	687a      	ldr	r2, [r7, #4]
200039a6:	68bb      	ldr	r3, [r7, #8]
200039a8:	4413      	add	r3, r2
200039aa:	3320      	adds	r3, #32
200039ac:	60bb      	str	r3, [r7, #8]

  /* Set the dual DAC selected data holding register */
  *(__IO uint32_t *)tmp = data;
200039ae:	68bb      	ldr	r3, [r7, #8]
200039b0:	68fa      	ldr	r2, [r7, #12]
200039b2:	601a      	str	r2, [r3, #0]
}
200039b4:	bf00      	nop
200039b6:	3714      	adds	r7, #20
200039b8:	46bd      	mov	sp, r7
200039ba:	f85d 7b04 	ldr.w	r7, [sp], #4
200039be:	4770      	bx	lr
200039c0:	40007400 	.word	0x40007400

200039c4 <DAC_GetDataOutputValue>:
  *            @arg DAC_Channel_1: DAC Channel1 selected
  *            @arg DAC_Channel_2: DAC Channel2 selected
  * @retval The selected DAC channel data output value.
  */
uint16_t DAC_GetDataOutputValue(uint32_t DAC_Channel)
{
200039c4:	b480      	push	{r7}
200039c6:	b085      	sub	sp, #20
200039c8:	af00      	add	r7, sp, #0
200039ca:	6078      	str	r0, [r7, #4]
  __IO uint32_t tmp = 0;
200039cc:	2300      	movs	r3, #0
200039ce:	60fb      	str	r3, [r7, #12]
  
  /* Check the parameters */
  assert_param(IS_DAC_CHANNEL(DAC_Channel));
  
  tmp = (uint32_t) DAC_BASE ;
200039d0:	4b08      	ldr	r3, [pc, #32]	@ (200039f4 <DAC_GetDataOutputValue+0x30>)
200039d2:	60fb      	str	r3, [r7, #12]
  tmp += DOR_OFFSET + ((uint32_t)DAC_Channel >> 2);
200039d4:	687b      	ldr	r3, [r7, #4]
200039d6:	089a      	lsrs	r2, r3, #2
200039d8:	68fb      	ldr	r3, [r7, #12]
200039da:	4413      	add	r3, r2
200039dc:	332c      	adds	r3, #44	@ 0x2c
200039de:	60fb      	str	r3, [r7, #12]
  
  /* Returns the DAC channel data output register value */
  return (uint16_t) (*(__IO uint32_t*) tmp);
200039e0:	68fb      	ldr	r3, [r7, #12]
200039e2:	681b      	ldr	r3, [r3, #0]
200039e4:	b29b      	uxth	r3, r3
}
200039e6:	4618      	mov	r0, r3
200039e8:	3714      	adds	r7, #20
200039ea:	46bd      	mov	sp, r7
200039ec:	f85d 7b04 	ldr.w	r7, [sp], #4
200039f0:	4770      	bx	lr
200039f2:	bf00      	nop
200039f4:	40007400 	.word	0x40007400

200039f8 <DAC_DMACmd>:
  * @note   The DAC channel2 is mapped on DMA1 Stream 6 channel7 which must be
  *          already configured.    
  * @retval None
  */
void DAC_DMACmd(uint32_t DAC_Channel, FunctionalState NewState)
{
200039f8:	b480      	push	{r7}
200039fa:	b083      	sub	sp, #12
200039fc:	af00      	add	r7, sp, #0
200039fe:	6078      	str	r0, [r7, #4]
20003a00:	460b      	mov	r3, r1
20003a02:	70fb      	strb	r3, [r7, #3]
  /* Check the parameters */
  assert_param(IS_DAC_CHANNEL(DAC_Channel));
  assert_param(IS_FUNCTIONAL_STATE(NewState));

  if (NewState != DISABLE)
20003a04:	78fb      	ldrb	r3, [r7, #3]
20003a06:	2b00      	cmp	r3, #0
20003a08:	d00a      	beq.n	20003a20 <DAC_DMACmd+0x28>
  {
    /* Enable the selected DAC channel DMA request */
    DAC->CR |= (DAC_CR_DMAEN1 << DAC_Channel);
20003a0a:	4b0e      	ldr	r3, [pc, #56]	@ (20003a44 <DAC_DMACmd+0x4c>)
20003a0c:	681a      	ldr	r2, [r3, #0]
20003a0e:	f44f 5180 	mov.w	r1, #4096	@ 0x1000
20003a12:	687b      	ldr	r3, [r7, #4]
20003a14:	fa01 f303 	lsl.w	r3, r1, r3
20003a18:	490a      	ldr	r1, [pc, #40]	@ (20003a44 <DAC_DMACmd+0x4c>)
20003a1a:	4313      	orrs	r3, r2
20003a1c:	600b      	str	r3, [r1, #0]
  else
  {
    /* Disable the selected DAC channel DMA request */
    DAC->CR &= (~(DAC_CR_DMAEN1 << DAC_Channel));
  }
}
20003a1e:	e00a      	b.n	20003a36 <DAC_DMACmd+0x3e>
    DAC->CR &= (~(DAC_CR_DMAEN1 << DAC_Channel));
20003a20:	4b08      	ldr	r3, [pc, #32]	@ (20003a44 <DAC_DMACmd+0x4c>)
20003a22:	681a      	ldr	r2, [r3, #0]
20003a24:	f44f 5180 	mov.w	r1, #4096	@ 0x1000
20003a28:	687b      	ldr	r3, [r7, #4]
20003a2a:	fa01 f303 	lsl.w	r3, r1, r3
20003a2e:	43db      	mvns	r3, r3
20003a30:	4904      	ldr	r1, [pc, #16]	@ (20003a44 <DAC_DMACmd+0x4c>)
20003a32:	4013      	ands	r3, r2
20003a34:	600b      	str	r3, [r1, #0]
}
20003a36:	bf00      	nop
20003a38:	370c      	adds	r7, #12
20003a3a:	46bd      	mov	sp, r7
20003a3c:	f85d 7b04 	ldr.w	r7, [sp], #4
20003a40:	4770      	bx	lr
20003a42:	bf00      	nop
20003a44:	40007400 	.word	0x40007400

20003a48 <DAC_ITConfig>:
  * @param  NewState: new state of the specified DAC interrupts.
  *          This parameter can be: ENABLE or DISABLE.
  * @retval None
  */ 
void DAC_ITConfig(uint32_t DAC_Channel, uint32_t DAC_IT, FunctionalState NewState)  
{
20003a48:	b480      	push	{r7}
20003a4a:	b085      	sub	sp, #20
20003a4c:	af00      	add	r7, sp, #0
20003a4e:	60f8      	str	r0, [r7, #12]
20003a50:	60b9      	str	r1, [r7, #8]
20003a52:	4613      	mov	r3, r2
20003a54:	71fb      	strb	r3, [r7, #7]
  /* Check the parameters */
  assert_param(IS_DAC_CHANNEL(DAC_Channel));
  assert_param(IS_FUNCTIONAL_STATE(NewState));
  assert_param(IS_DAC_IT(DAC_IT)); 

  if (NewState != DISABLE)
20003a56:	79fb      	ldrb	r3, [r7, #7]
20003a58:	2b00      	cmp	r3, #0
20003a5a:	d009      	beq.n	20003a70 <DAC_ITConfig+0x28>
  {
    /* Enable the selected DAC interrupts */
    DAC->CR |=  (DAC_IT << DAC_Channel);
20003a5c:	4b0c      	ldr	r3, [pc, #48]	@ (20003a90 <DAC_ITConfig+0x48>)
20003a5e:	681a      	ldr	r2, [r3, #0]
20003a60:	68b9      	ldr	r1, [r7, #8]
20003a62:	68fb      	ldr	r3, [r7, #12]
20003a64:	fa01 f303 	lsl.w	r3, r1, r3
20003a68:	4909      	ldr	r1, [pc, #36]	@ (20003a90 <DAC_ITConfig+0x48>)
20003a6a:	4313      	orrs	r3, r2
20003a6c:	600b      	str	r3, [r1, #0]
  else
  {
    /* Disable the selected DAC interrupts */
    DAC->CR &= (~(uint32_t)(DAC_IT << DAC_Channel));
  }
}
20003a6e:	e009      	b.n	20003a84 <DAC_ITConfig+0x3c>
    DAC->CR &= (~(uint32_t)(DAC_IT << DAC_Channel));
20003a70:	4b07      	ldr	r3, [pc, #28]	@ (20003a90 <DAC_ITConfig+0x48>)
20003a72:	681a      	ldr	r2, [r3, #0]
20003a74:	68b9      	ldr	r1, [r7, #8]
20003a76:	68fb      	ldr	r3, [r7, #12]
20003a78:	fa01 f303 	lsl.w	r3, r1, r3
20003a7c:	43db      	mvns	r3, r3
20003a7e:	4904      	ldr	r1, [pc, #16]	@ (20003a90 <DAC_ITConfig+0x48>)
20003a80:	4013      	ands	r3, r2
20003a82:	600b      	str	r3, [r1, #0]
}
20003a84:	bf00      	nop
20003a86:	3714      	adds	r7, #20
20003a88:	46bd      	mov	sp, r7
20003a8a:	f85d 7b04 	ldr.w	r7, [sp], #4
20003a8e:	4770      	bx	lr
20003a90:	40007400 	.word	0x40007400

20003a94 <DAC_GetFlagStatus>:
  * @note   The DMA underrun occurs when a second external trigger arrives before the 
  *         acknowledgement for the first external trigger is received (first request).
  * @retval The new state of DAC_FLAG (SET or RESET).
  */
FlagStatus DAC_GetFlagStatus(uint32_t DAC_Channel, uint32_t DAC_FLAG)
{
20003a94:	b480      	push	{r7}
20003a96:	b085      	sub	sp, #20
20003a98:	af00      	add	r7, sp, #0
20003a9a:	6078      	str	r0, [r7, #4]
20003a9c:	6039      	str	r1, [r7, #0]
  FlagStatus bitstatus = RESET;
20003a9e:	2300      	movs	r3, #0
20003aa0:	73fb      	strb	r3, [r7, #15]
  /* Check the parameters */
  assert_param(IS_DAC_CHANNEL(DAC_Channel));
  assert_param(IS_DAC_FLAG(DAC_FLAG));

  /* Check the status of the specified DAC flag */
  if ((DAC->SR & (DAC_FLAG << DAC_Channel)) != (uint8_t)RESET)
20003aa2:	4b0a      	ldr	r3, [pc, #40]	@ (20003acc <DAC_GetFlagStatus+0x38>)
20003aa4:	6b5a      	ldr	r2, [r3, #52]	@ 0x34
20003aa6:	6839      	ldr	r1, [r7, #0]
20003aa8:	687b      	ldr	r3, [r7, #4]
20003aaa:	fa01 f303 	lsl.w	r3, r1, r3
20003aae:	4013      	ands	r3, r2
20003ab0:	2b00      	cmp	r3, #0
20003ab2:	d002      	beq.n	20003aba <DAC_GetFlagStatus+0x26>
  {
    /* DAC_FLAG is set */
    bitstatus = SET;
20003ab4:	2301      	movs	r3, #1
20003ab6:	73fb      	strb	r3, [r7, #15]
20003ab8:	e001      	b.n	20003abe <DAC_GetFlagStatus+0x2a>
  }
  else
  {
    /* DAC_FLAG is reset */
    bitstatus = RESET;
20003aba:	2300      	movs	r3, #0
20003abc:	73fb      	strb	r3, [r7, #15]
  }
  /* Return the DAC_FLAG status */
  return  bitstatus;
20003abe:	7bfb      	ldrb	r3, [r7, #15]
}
20003ac0:	4618      	mov	r0, r3
20003ac2:	3714      	adds	r7, #20
20003ac4:	46bd      	mov	sp, r7
20003ac6:	f85d 7b04 	ldr.w	r7, [sp], #4
20003aca:	4770      	bx	lr
20003acc:	40007400 	.word	0x40007400

20003ad0 <DAC_ClearFlag>:
  * @note   The DMA underrun occurs when a second external trigger arrives before the 
  *         acknowledgement for the first external trigger is received (first request).                           
  * @retval None
  */
void DAC_ClearFlag(uint32_t DAC_Channel, uint32_t DAC_FLAG)
{
20003ad0:	b480      	push	{r7}
20003ad2:	b083      	sub	sp, #12
20003ad4:	af00      	add	r7, sp, #0
20003ad6:	6078      	str	r0, [r7, #4]
20003ad8:	6039      	str	r1, [r7, #0]
  /* Check the parameters */
  assert_param(IS_DAC_CHANNEL(DAC_Channel));
  assert_param(IS_DAC_FLAG(DAC_FLAG));

  /* Clear the selected DAC flags */
  DAC->SR = (DAC_FLAG << DAC_Channel);
20003ada:	4906      	ldr	r1, [pc, #24]	@ (20003af4 <DAC_ClearFlag+0x24>)
20003adc:	683a      	ldr	r2, [r7, #0]
20003ade:	687b      	ldr	r3, [r7, #4]
20003ae0:	fa02 f303 	lsl.w	r3, r2, r3
20003ae4:	634b      	str	r3, [r1, #52]	@ 0x34
}
20003ae6:	bf00      	nop
20003ae8:	370c      	adds	r7, #12
20003aea:	46bd      	mov	sp, r7
20003aec:	f85d 7b04 	ldr.w	r7, [sp], #4
20003af0:	4770      	bx	lr
20003af2:	bf00      	nop
20003af4:	40007400 	.word	0x40007400

20003af8 <DAC_GetITStatus>:
  * @note   The DMA underrun occurs when a second external trigger arrives before the 
  *         acknowledgement for the first external trigger is received (first request).
  * @retval The new state of DAC_IT (SET or RESET).
  */
ITStatus DAC_GetITStatus(uint32_t DAC_Channel, uint32_t DAC_IT)
{
20003af8:	b480      	push	{r7}
20003afa:	b085      	sub	sp, #20
20003afc:	af00      	add	r7, sp, #0
20003afe:	6078      	str	r0, [r7, #4]
20003b00:	6039      	str	r1, [r7, #0]
  ITStatus bitstatus = RESET;
20003b02:	2300      	movs	r3, #0
20003b04:	73fb      	strb	r3, [r7, #15]
  uint32_t enablestatus = 0;
20003b06:	2300      	movs	r3, #0
20003b08:	60bb      	str	r3, [r7, #8]
  /* Check the parameters */
  assert_param(IS_DAC_CHANNEL(DAC_Channel));
  assert_param(IS_DAC_IT(DAC_IT));

  /* Get the DAC_IT enable bit status */
  enablestatus = (DAC->CR & (DAC_IT << DAC_Channel)) ;
20003b0a:	4b10      	ldr	r3, [pc, #64]	@ (20003b4c <DAC_GetITStatus+0x54>)
20003b0c:	681a      	ldr	r2, [r3, #0]
20003b0e:	6839      	ldr	r1, [r7, #0]
20003b10:	687b      	ldr	r3, [r7, #4]
20003b12:	fa01 f303 	lsl.w	r3, r1, r3
20003b16:	4013      	ands	r3, r2
20003b18:	60bb      	str	r3, [r7, #8]
  
  /* Check the status of the specified DAC interrupt */
  if (((DAC->SR & (DAC_IT << DAC_Channel)) != (uint32_t)RESET) && enablestatus)
20003b1a:	4b0c      	ldr	r3, [pc, #48]	@ (20003b4c <DAC_GetITStatus+0x54>)
20003b1c:	6b5a      	ldr	r2, [r3, #52]	@ 0x34
20003b1e:	6839      	ldr	r1, [r7, #0]
20003b20:	687b      	ldr	r3, [r7, #4]
20003b22:	fa01 f303 	lsl.w	r3, r1, r3
20003b26:	4013      	ands	r3, r2
20003b28:	2b00      	cmp	r3, #0
20003b2a:	d005      	beq.n	20003b38 <DAC_GetITStatus+0x40>
20003b2c:	68bb      	ldr	r3, [r7, #8]
20003b2e:	2b00      	cmp	r3, #0
20003b30:	d002      	beq.n	20003b38 <DAC_GetITStatus+0x40>
  {
    /* DAC_IT is set */
    bitstatus = SET;
20003b32:	2301      	movs	r3, #1
20003b34:	73fb      	strb	r3, [r7, #15]
20003b36:	e001      	b.n	20003b3c <DAC_GetITStatus+0x44>
  }
  else
  {
    /* DAC_IT is reset */
    bitstatus = RESET;
20003b38:	2300      	movs	r3, #0
20003b3a:	73fb      	strb	r3, [r7, #15]
  }
  /* Return the DAC_IT status */
  return  bitstatus;
20003b3c:	7bfb      	ldrb	r3, [r7, #15]
}
20003b3e:	4618      	mov	r0, r3
20003b40:	3714      	adds	r7, #20
20003b42:	46bd      	mov	sp, r7
20003b44:	f85d 7b04 	ldr.w	r7, [sp], #4
20003b48:	4770      	bx	lr
20003b4a:	bf00      	nop
20003b4c:	40007400 	.word	0x40007400

20003b50 <DAC_ClearITPendingBit>:
  * @note   The DMA underrun occurs when a second external trigger arrives before the 
  *         acknowledgement for the first external trigger is received (first request).                           
  * @retval None
  */
void DAC_ClearITPendingBit(uint32_t DAC_Channel, uint32_t DAC_IT)
{
20003b50:	b480      	push	{r7}
20003b52:	b083      	sub	sp, #12
20003b54:	af00      	add	r7, sp, #0
20003b56:	6078      	str	r0, [r7, #4]
20003b58:	6039      	str	r1, [r7, #0]
  /* Check the parameters */
  assert_param(IS_DAC_CHANNEL(DAC_Channel));
  assert_param(IS_DAC_IT(DAC_IT)); 

  /* Clear the selected DAC interrupt pending bits */
  DAC->SR = (DAC_IT << DAC_Channel);
20003b5a:	4906      	ldr	r1, [pc, #24]	@ (20003b74 <DAC_ClearITPendingBit+0x24>)
20003b5c:	683a      	ldr	r2, [r7, #0]
20003b5e:	687b      	ldr	r3, [r7, #4]
20003b60:	fa02 f303 	lsl.w	r3, r2, r3
20003b64:	634b      	str	r3, [r1, #52]	@ 0x34
}
20003b66:	bf00      	nop
20003b68:	370c      	adds	r7, #12
20003b6a:	46bd      	mov	sp, r7
20003b6c:	f85d 7b04 	ldr.w	r7, [sp], #4
20003b70:	4770      	bx	lr
20003b72:	bf00      	nop
20003b74:	40007400 	.word	0x40007400

20003b78 <EXTI_DeInit>:
  * @brief  Deinitializes the EXTI peripheral registers to their default reset values.
  * @param  None
  * @retval None
  */
void EXTI_DeInit(void)
{
20003b78:	b480      	push	{r7}
20003b7a:	af00      	add	r7, sp, #0
  EXTI->IMR = 0x00000000;
20003b7c:	4b09      	ldr	r3, [pc, #36]	@ (20003ba4 <EXTI_DeInit+0x2c>)
20003b7e:	2200      	movs	r2, #0
20003b80:	601a      	str	r2, [r3, #0]
  EXTI->EMR = 0x00000000;
20003b82:	4b08      	ldr	r3, [pc, #32]	@ (20003ba4 <EXTI_DeInit+0x2c>)
20003b84:	2200      	movs	r2, #0
20003b86:	605a      	str	r2, [r3, #4]
  EXTI->RTSR = 0x00000000;
20003b88:	4b06      	ldr	r3, [pc, #24]	@ (20003ba4 <EXTI_DeInit+0x2c>)
20003b8a:	2200      	movs	r2, #0
20003b8c:	609a      	str	r2, [r3, #8]
  EXTI->FTSR = 0x00000000;
20003b8e:	4b05      	ldr	r3, [pc, #20]	@ (20003ba4 <EXTI_DeInit+0x2c>)
20003b90:	2200      	movs	r2, #0
20003b92:	60da      	str	r2, [r3, #12]
  EXTI->PR = 0x007FFFFF;
20003b94:	4b03      	ldr	r3, [pc, #12]	@ (20003ba4 <EXTI_DeInit+0x2c>)
20003b96:	4a04      	ldr	r2, [pc, #16]	@ (20003ba8 <EXTI_DeInit+0x30>)
20003b98:	615a      	str	r2, [r3, #20]
}
20003b9a:	bf00      	nop
20003b9c:	46bd      	mov	sp, r7
20003b9e:	f85d 7b04 	ldr.w	r7, [sp], #4
20003ba2:	4770      	bx	lr
20003ba4:	40013c00 	.word	0x40013c00
20003ba8:	007fffff 	.word	0x007fffff

20003bac <EXTI_Init>:
  * @param  EXTI_InitStruct: pointer to a EXTI_InitTypeDef structure
  *         that contains the configuration information for the EXTI peripheral.
  * @retval None
  */
void EXTI_Init(EXTI_InitTypeDef* EXTI_InitStruct)
{
20003bac:	b480      	push	{r7}
20003bae:	b085      	sub	sp, #20
20003bb0:	af00      	add	r7, sp, #0
20003bb2:	6078      	str	r0, [r7, #4]
  uint32_t tmp = 0;
20003bb4:	2300      	movs	r3, #0
20003bb6:	60fb      	str	r3, [r7, #12]
  assert_param(IS_EXTI_MODE(EXTI_InitStruct->EXTI_Mode));
  assert_param(IS_EXTI_TRIGGER(EXTI_InitStruct->EXTI_Trigger));
  assert_param(IS_EXTI_LINE(EXTI_InitStruct->EXTI_Line));  
  assert_param(IS_FUNCTIONAL_STATE(EXTI_InitStruct->EXTI_LineCmd));

  tmp = (uint32_t)EXTI_BASE;
20003bb8:	4b34      	ldr	r3, [pc, #208]	@ (20003c8c <EXTI_Init+0xe0>)
20003bba:	60fb      	str	r3, [r7, #12]
     
  if (EXTI_InitStruct->EXTI_LineCmd != DISABLE)
20003bbc:	687b      	ldr	r3, [r7, #4]
20003bbe:	799b      	ldrb	r3, [r3, #6]
20003bc0:	2b00      	cmp	r3, #0
20003bc2:	d04f      	beq.n	20003c64 <EXTI_Init+0xb8>
  {
    /* Clear EXTI line configuration */
    EXTI->IMR &= ~EXTI_InitStruct->EXTI_Line;
20003bc4:	4b31      	ldr	r3, [pc, #196]	@ (20003c8c <EXTI_Init+0xe0>)
20003bc6:	681a      	ldr	r2, [r3, #0]
20003bc8:	687b      	ldr	r3, [r7, #4]
20003bca:	681b      	ldr	r3, [r3, #0]
20003bcc:	43db      	mvns	r3, r3
20003bce:	492f      	ldr	r1, [pc, #188]	@ (20003c8c <EXTI_Init+0xe0>)
20003bd0:	4013      	ands	r3, r2
20003bd2:	600b      	str	r3, [r1, #0]
    EXTI->EMR &= ~EXTI_InitStruct->EXTI_Line;
20003bd4:	4b2d      	ldr	r3, [pc, #180]	@ (20003c8c <EXTI_Init+0xe0>)
20003bd6:	685a      	ldr	r2, [r3, #4]
20003bd8:	687b      	ldr	r3, [r7, #4]
20003bda:	681b      	ldr	r3, [r3, #0]
20003bdc:	43db      	mvns	r3, r3
20003bde:	492b      	ldr	r1, [pc, #172]	@ (20003c8c <EXTI_Init+0xe0>)
20003be0:	4013      	ands	r3, r2
20003be2:	604b      	str	r3, [r1, #4]
    
    tmp += EXTI_InitStruct->EXTI_Mode;
20003be4:	687b      	ldr	r3, [r7, #4]
20003be6:	791b      	ldrb	r3, [r3, #4]
20003be8:	461a      	mov	r2, r3
20003bea:	68fb      	ldr	r3, [r7, #12]
20003bec:	4413      	add	r3, r2
20003bee:	60fb      	str	r3, [r7, #12]

    *(__IO uint32_t *) tmp |= EXTI_InitStruct->EXTI_Line;
20003bf0:	68fb      	ldr	r3, [r7, #12]
20003bf2:	6819      	ldr	r1, [r3, #0]
20003bf4:	687b      	ldr	r3, [r7, #4]
20003bf6:	681a      	ldr	r2, [r3, #0]
20003bf8:	68fb      	ldr	r3, [r7, #12]
20003bfa:	430a      	orrs	r2, r1
20003bfc:	601a      	str	r2, [r3, #0]

    /* Clear Rising Falling edge configuration */
    EXTI->RTSR &= ~EXTI_InitStruct->EXTI_Line;
20003bfe:	4b23      	ldr	r3, [pc, #140]	@ (20003c8c <EXTI_Init+0xe0>)
20003c00:	689a      	ldr	r2, [r3, #8]
20003c02:	687b      	ldr	r3, [r7, #4]
20003c04:	681b      	ldr	r3, [r3, #0]
20003c06:	43db      	mvns	r3, r3
20003c08:	4920      	ldr	r1, [pc, #128]	@ (20003c8c <EXTI_Init+0xe0>)
20003c0a:	4013      	ands	r3, r2
20003c0c:	608b      	str	r3, [r1, #8]
    EXTI->FTSR &= ~EXTI_InitStruct->EXTI_Line;
20003c0e:	4b1f      	ldr	r3, [pc, #124]	@ (20003c8c <EXTI_Init+0xe0>)
20003c10:	68da      	ldr	r2, [r3, #12]
20003c12:	687b      	ldr	r3, [r7, #4]
20003c14:	681b      	ldr	r3, [r3, #0]
20003c16:	43db      	mvns	r3, r3
20003c18:	491c      	ldr	r1, [pc, #112]	@ (20003c8c <EXTI_Init+0xe0>)
20003c1a:	4013      	ands	r3, r2
20003c1c:	60cb      	str	r3, [r1, #12]
    
    /* Select the trigger for the selected external interrupts */
    if (EXTI_InitStruct->EXTI_Trigger == EXTI_Trigger_Rising_Falling)
20003c1e:	687b      	ldr	r3, [r7, #4]
20003c20:	795b      	ldrb	r3, [r3, #5]
20003c22:	2b10      	cmp	r3, #16
20003c24:	d10e      	bne.n	20003c44 <EXTI_Init+0x98>
    {
      /* Rising Falling edge */
      EXTI->RTSR |= EXTI_InitStruct->EXTI_Line;
20003c26:	4b19      	ldr	r3, [pc, #100]	@ (20003c8c <EXTI_Init+0xe0>)
20003c28:	689a      	ldr	r2, [r3, #8]
20003c2a:	687b      	ldr	r3, [r7, #4]
20003c2c:	681b      	ldr	r3, [r3, #0]
20003c2e:	4917      	ldr	r1, [pc, #92]	@ (20003c8c <EXTI_Init+0xe0>)
20003c30:	4313      	orrs	r3, r2
20003c32:	608b      	str	r3, [r1, #8]
      EXTI->FTSR |= EXTI_InitStruct->EXTI_Line;
20003c34:	4b15      	ldr	r3, [pc, #84]	@ (20003c8c <EXTI_Init+0xe0>)
20003c36:	68da      	ldr	r2, [r3, #12]
20003c38:	687b      	ldr	r3, [r7, #4]
20003c3a:	681b      	ldr	r3, [r3, #0]
20003c3c:	4913      	ldr	r1, [pc, #76]	@ (20003c8c <EXTI_Init+0xe0>)
20003c3e:	4313      	orrs	r3, r2
20003c40:	60cb      	str	r3, [r1, #12]
    tmp += EXTI_InitStruct->EXTI_Mode;

    /* Disable the selected external lines */
    *(__IO uint32_t *) tmp &= ~EXTI_InitStruct->EXTI_Line;
  }
}
20003c42:	e01d      	b.n	20003c80 <EXTI_Init+0xd4>
      tmp = (uint32_t)EXTI_BASE;
20003c44:	4b11      	ldr	r3, [pc, #68]	@ (20003c8c <EXTI_Init+0xe0>)
20003c46:	60fb      	str	r3, [r7, #12]
      tmp += EXTI_InitStruct->EXTI_Trigger;
20003c48:	687b      	ldr	r3, [r7, #4]
20003c4a:	795b      	ldrb	r3, [r3, #5]
20003c4c:	461a      	mov	r2, r3
20003c4e:	68fb      	ldr	r3, [r7, #12]
20003c50:	4413      	add	r3, r2
20003c52:	60fb      	str	r3, [r7, #12]
      *(__IO uint32_t *) tmp |= EXTI_InitStruct->EXTI_Line;
20003c54:	68fb      	ldr	r3, [r7, #12]
20003c56:	6819      	ldr	r1, [r3, #0]
20003c58:	687b      	ldr	r3, [r7, #4]
20003c5a:	681a      	ldr	r2, [r3, #0]
20003c5c:	68fb      	ldr	r3, [r7, #12]
20003c5e:	430a      	orrs	r2, r1
20003c60:	601a      	str	r2, [r3, #0]
}
20003c62:	e00d      	b.n	20003c80 <EXTI_Init+0xd4>
    tmp += EXTI_InitStruct->EXTI_Mode;
20003c64:	687b      	ldr	r3, [r7, #4]
20003c66:	791b      	ldrb	r3, [r3, #4]
20003c68:	461a      	mov	r2, r3
20003c6a:	68fb      	ldr	r3, [r7, #12]
20003c6c:	4413      	add	r3, r2
20003c6e:	60fb      	str	r3, [r7, #12]
    *(__IO uint32_t *) tmp &= ~EXTI_InitStruct->EXTI_Line;
20003c70:	68fb      	ldr	r3, [r7, #12]
20003c72:	6819      	ldr	r1, [r3, #0]
20003c74:	687b      	ldr	r3, [r7, #4]
20003c76:	681b      	ldr	r3, [r3, #0]
20003c78:	43da      	mvns	r2, r3
20003c7a:	68fb      	ldr	r3, [r7, #12]
20003c7c:	400a      	ands	r2, r1
20003c7e:	601a      	str	r2, [r3, #0]
}
20003c80:	bf00      	nop
20003c82:	3714      	adds	r7, #20
20003c84:	46bd      	mov	sp, r7
20003c86:	f85d 7b04 	ldr.w	r7, [sp], #4
20003c8a:	4770      	bx	lr
20003c8c:	40013c00 	.word	0x40013c00

20003c90 <EXTI_StructInit>:
  * @param  EXTI_InitStruct: pointer to a EXTI_InitTypeDef structure which will
  *         be initialized.
  * @retval None
  */
void EXTI_StructInit(EXTI_InitTypeDef* EXTI_InitStruct)
{
20003c90:	b480      	push	{r7}
20003c92:	b083      	sub	sp, #12
20003c94:	af00      	add	r7, sp, #0
20003c96:	6078      	str	r0, [r7, #4]
  EXTI_InitStruct->EXTI_Line = EXTI_LINENONE;
20003c98:	687b      	ldr	r3, [r7, #4]
20003c9a:	2200      	movs	r2, #0
20003c9c:	601a      	str	r2, [r3, #0]
  EXTI_InitStruct->EXTI_Mode = EXTI_Mode_Interrupt;
20003c9e:	687b      	ldr	r3, [r7, #4]
20003ca0:	2200      	movs	r2, #0
20003ca2:	711a      	strb	r2, [r3, #4]
  EXTI_InitStruct->EXTI_Trigger = EXTI_Trigger_Falling;
20003ca4:	687b      	ldr	r3, [r7, #4]
20003ca6:	220c      	movs	r2, #12
20003ca8:	715a      	strb	r2, [r3, #5]
  EXTI_InitStruct->EXTI_LineCmd = DISABLE;
20003caa:	687b      	ldr	r3, [r7, #4]
20003cac:	2200      	movs	r2, #0
20003cae:	719a      	strb	r2, [r3, #6]
}
20003cb0:	bf00      	nop
20003cb2:	370c      	adds	r7, #12
20003cb4:	46bd      	mov	sp, r7
20003cb6:	f85d 7b04 	ldr.w	r7, [sp], #4
20003cba:	4770      	bx	lr

20003cbc <EXTI_GenerateSWInterrupt>:
  *         will be generated.
  *         This parameter can be any combination of EXTI_Linex where x can be (0..22)
  * @retval None
  */
void EXTI_GenerateSWInterrupt(uint32_t EXTI_Line)
{
20003cbc:	b480      	push	{r7}
20003cbe:	b083      	sub	sp, #12
20003cc0:	af00      	add	r7, sp, #0
20003cc2:	6078      	str	r0, [r7, #4]
  /* Check the parameters */
  assert_param(IS_EXTI_LINE(EXTI_Line));
  
  EXTI->SWIER |= EXTI_Line;
20003cc4:	4b05      	ldr	r3, [pc, #20]	@ (20003cdc <EXTI_GenerateSWInterrupt+0x20>)
20003cc6:	691a      	ldr	r2, [r3, #16]
20003cc8:	4904      	ldr	r1, [pc, #16]	@ (20003cdc <EXTI_GenerateSWInterrupt+0x20>)
20003cca:	687b      	ldr	r3, [r7, #4]
20003ccc:	4313      	orrs	r3, r2
20003cce:	610b      	str	r3, [r1, #16]
}
20003cd0:	bf00      	nop
20003cd2:	370c      	adds	r7, #12
20003cd4:	46bd      	mov	sp, r7
20003cd6:	f85d 7b04 	ldr.w	r7, [sp], #4
20003cda:	4770      	bx	lr
20003cdc:	40013c00 	.word	0x40013c00

20003ce0 <EXTI_GetFlagStatus>:
  * @param  EXTI_Line: specifies the EXTI line flag to check.
  *          This parameter can be EXTI_Linex where x can be(0..22)
  * @retval The new state of EXTI_Line (SET or RESET).
  */
FlagStatus EXTI_GetFlagStatus(uint32_t EXTI_Line)
{
20003ce0:	b480      	push	{r7}
20003ce2:	b085      	sub	sp, #20
20003ce4:	af00      	add	r7, sp, #0
20003ce6:	6078      	str	r0, [r7, #4]
  FlagStatus bitstatus = RESET;
20003ce8:	2300      	movs	r3, #0
20003cea:	73fb      	strb	r3, [r7, #15]
  /* Check the parameters */
  assert_param(IS_GET_EXTI_LINE(EXTI_Line));
  
  if ((EXTI->PR & EXTI_Line) != (uint32_t)RESET)
20003cec:	4b08      	ldr	r3, [pc, #32]	@ (20003d10 <EXTI_GetFlagStatus+0x30>)
20003cee:	695a      	ldr	r2, [r3, #20]
20003cf0:	687b      	ldr	r3, [r7, #4]
20003cf2:	4013      	ands	r3, r2
20003cf4:	2b00      	cmp	r3, #0
20003cf6:	d002      	beq.n	20003cfe <EXTI_GetFlagStatus+0x1e>
  {
    bitstatus = SET;
20003cf8:	2301      	movs	r3, #1
20003cfa:	73fb      	strb	r3, [r7, #15]
20003cfc:	e001      	b.n	20003d02 <EXTI_GetFlagStatus+0x22>
  }
  else
  {
    bitstatus = RESET;
20003cfe:	2300      	movs	r3, #0
20003d00:	73fb      	strb	r3, [r7, #15]
  }
  return bitstatus;
20003d02:	7bfb      	ldrb	r3, [r7, #15]
}
20003d04:	4618      	mov	r0, r3
20003d06:	3714      	adds	r7, #20
20003d08:	46bd      	mov	sp, r7
20003d0a:	f85d 7b04 	ldr.w	r7, [sp], #4
20003d0e:	4770      	bx	lr
20003d10:	40013c00 	.word	0x40013c00

20003d14 <EXTI_ClearFlag>:
  * @param  EXTI_Line: specifies the EXTI lines flags to clear.
  *          This parameter can be any combination of EXTI_Linex where x can be (0..22)
  * @retval None
  */
void EXTI_ClearFlag(uint32_t EXTI_Line)
{
20003d14:	b480      	push	{r7}
20003d16:	b083      	sub	sp, #12
20003d18:	af00      	add	r7, sp, #0
20003d1a:	6078      	str	r0, [r7, #4]
  /* Check the parameters */
  assert_param(IS_EXTI_LINE(EXTI_Line));
  
  EXTI->PR = EXTI_Line;
20003d1c:	4a04      	ldr	r2, [pc, #16]	@ (20003d30 <EXTI_ClearFlag+0x1c>)
20003d1e:	687b      	ldr	r3, [r7, #4]
20003d20:	6153      	str	r3, [r2, #20]
}
20003d22:	bf00      	nop
20003d24:	370c      	adds	r7, #12
20003d26:	46bd      	mov	sp, r7
20003d28:	f85d 7b04 	ldr.w	r7, [sp], #4
20003d2c:	4770      	bx	lr
20003d2e:	bf00      	nop
20003d30:	40013c00 	.word	0x40013c00

20003d34 <EXTI_GetITStatus>:
  * @param  EXTI_Line: specifies the EXTI line to check.
  *          This parameter can be EXTI_Linex where x can be(0..22)
  * @retval The new state of EXTI_Line (SET or RESET).
  */
ITStatus EXTI_GetITStatus(uint32_t EXTI_Line)
{
20003d34:	b480      	push	{r7}
20003d36:	b085      	sub	sp, #20
20003d38:	af00      	add	r7, sp, #0
20003d3a:	6078      	str	r0, [r7, #4]
  FlagStatus bitstatus = RESET;
20003d3c:	2300      	movs	r3, #0
20003d3e:	73fb      	strb	r3, [r7, #15]
  /* Check the parameters */
  assert_param(IS_GET_EXTI_LINE(EXTI_Line));
  
  if ((EXTI->PR & EXTI_Line) != (uint32_t)RESET)
20003d40:	4b08      	ldr	r3, [pc, #32]	@ (20003d64 <EXTI_GetITStatus+0x30>)
20003d42:	695a      	ldr	r2, [r3, #20]
20003d44:	687b      	ldr	r3, [r7, #4]
20003d46:	4013      	ands	r3, r2
20003d48:	2b00      	cmp	r3, #0
20003d4a:	d002      	beq.n	20003d52 <EXTI_GetITStatus+0x1e>
  {
    bitstatus = SET;
20003d4c:	2301      	movs	r3, #1
20003d4e:	73fb      	strb	r3, [r7, #15]
20003d50:	e001      	b.n	20003d56 <EXTI_GetITStatus+0x22>
  }
  else
  {
    bitstatus = RESET;
20003d52:	2300      	movs	r3, #0
20003d54:	73fb      	strb	r3, [r7, #15]
  }
  return bitstatus;
20003d56:	7bfb      	ldrb	r3, [r7, #15]
  
}
20003d58:	4618      	mov	r0, r3
20003d5a:	3714      	adds	r7, #20
20003d5c:	46bd      	mov	sp, r7
20003d5e:	f85d 7b04 	ldr.w	r7, [sp], #4
20003d62:	4770      	bx	lr
20003d64:	40013c00 	.word	0x40013c00

20003d68 <EXTI_ClearITPendingBit>:
  * @param  EXTI_Line: specifies the EXTI lines to clear.
  *          This parameter can be any combination of EXTI_Linex where x can be (0..22)
  * @retval None
  */
void EXTI_ClearITPendingBit(uint32_t EXTI_Line)
{
20003d68:	b480      	push	{r7}
20003d6a:	b083      	sub	sp, #12
20003d6c:	af00      	add	r7, sp, #0
20003d6e:	6078      	str	r0, [r7, #4]
  /* Check the parameters */
  assert_param(IS_EXTI_LINE(EXTI_Line));
  
  EXTI->PR = EXTI_Line;
20003d70:	4a04      	ldr	r2, [pc, #16]	@ (20003d84 <EXTI_ClearITPendingBit+0x1c>)
20003d72:	687b      	ldr	r3, [r7, #4]
20003d74:	6153      	str	r3, [r2, #20]
}
20003d76:	bf00      	nop
20003d78:	370c      	adds	r7, #12
20003d7a:	46bd      	mov	sp, r7
20003d7c:	f85d 7b04 	ldr.w	r7, [sp], #4
20003d80:	4770      	bx	lr
20003d82:	bf00      	nop
20003d84:	40013c00 	.word	0x40013c00

20003d88 <GPIO_DeInit>:
  *                      x can be (A..I) to select the GPIO peripheral for STM32F42xxx/43xxx devices.
  *                      x can be (A, B, C, D and H) to select the GPIO peripheral for STM32F401xx devices.  
  * @retval None
  */
void GPIO_DeInit(GPIO_TypeDef* GPIOx)
{
20003d88:	b580      	push	{r7, lr}
20003d8a:	b082      	sub	sp, #8
20003d8c:	af00      	add	r7, sp, #0
20003d8e:	6078      	str	r0, [r7, #4]
  /* Check the parameters */
  assert_param(IS_GPIO_ALL_PERIPH(GPIOx));

  if (GPIOx == GPIOA)
20003d90:	687b      	ldr	r3, [r7, #4]
20003d92:	4a4b      	ldr	r2, [pc, #300]	@ (20003ec0 <GPIO_DeInit+0x138>)
20003d94:	4293      	cmp	r3, r2
20003d96:	d108      	bne.n	20003daa <GPIO_DeInit+0x22>
  {
    RCC_AHB1PeriphResetCmd(RCC_AHB1Periph_GPIOA, ENABLE);
20003d98:	2101      	movs	r1, #1
20003d9a:	2001      	movs	r0, #1
20003d9c:	f000 fedc 	bl	20004b58 <RCC_AHB1PeriphResetCmd>
    RCC_AHB1PeriphResetCmd(RCC_AHB1Periph_GPIOA, DISABLE);
20003da0:	2100      	movs	r1, #0
20003da2:	2001      	movs	r0, #1
20003da4:	f000 fed8 	bl	20004b58 <RCC_AHB1PeriphResetCmd>
    {
      RCC_AHB1PeriphResetCmd(RCC_AHB1Periph_GPIOK, ENABLE);
      RCC_AHB1PeriphResetCmd(RCC_AHB1Periph_GPIOK, DISABLE);
    }
  }
}
20003da8:	e086      	b.n	20003eb8 <GPIO_DeInit+0x130>
  else if (GPIOx == GPIOB)
20003daa:	687b      	ldr	r3, [r7, #4]
20003dac:	4a45      	ldr	r2, [pc, #276]	@ (20003ec4 <GPIO_DeInit+0x13c>)
20003dae:	4293      	cmp	r3, r2
20003db0:	d108      	bne.n	20003dc4 <GPIO_DeInit+0x3c>
    RCC_AHB1PeriphResetCmd(RCC_AHB1Periph_GPIOB, ENABLE);
20003db2:	2101      	movs	r1, #1
20003db4:	2002      	movs	r0, #2
20003db6:	f000 fecf 	bl	20004b58 <RCC_AHB1PeriphResetCmd>
    RCC_AHB1PeriphResetCmd(RCC_AHB1Periph_GPIOB, DISABLE);
20003dba:	2100      	movs	r1, #0
20003dbc:	2002      	movs	r0, #2
20003dbe:	f000 fecb 	bl	20004b58 <RCC_AHB1PeriphResetCmd>
}
20003dc2:	e079      	b.n	20003eb8 <GPIO_DeInit+0x130>
  else if (GPIOx == GPIOC)
20003dc4:	687b      	ldr	r3, [r7, #4]
20003dc6:	4a40      	ldr	r2, [pc, #256]	@ (20003ec8 <GPIO_DeInit+0x140>)
20003dc8:	4293      	cmp	r3, r2
20003dca:	d108      	bne.n	20003dde <GPIO_DeInit+0x56>
    RCC_AHB1PeriphResetCmd(RCC_AHB1Periph_GPIOC, ENABLE);
20003dcc:	2101      	movs	r1, #1
20003dce:	2004      	movs	r0, #4
20003dd0:	f000 fec2 	bl	20004b58 <RCC_AHB1PeriphResetCmd>
    RCC_AHB1PeriphResetCmd(RCC_AHB1Periph_GPIOC, DISABLE);
20003dd4:	2100      	movs	r1, #0
20003dd6:	2004      	movs	r0, #4
20003dd8:	f000 febe 	bl	20004b58 <RCC_AHB1PeriphResetCmd>
}
20003ddc:	e06c      	b.n	20003eb8 <GPIO_DeInit+0x130>
  else if (GPIOx == GPIOD)
20003dde:	687b      	ldr	r3, [r7, #4]
20003de0:	4a3a      	ldr	r2, [pc, #232]	@ (20003ecc <GPIO_DeInit+0x144>)
20003de2:	4293      	cmp	r3, r2
20003de4:	d108      	bne.n	20003df8 <GPIO_DeInit+0x70>
    RCC_AHB1PeriphResetCmd(RCC_AHB1Periph_GPIOD, ENABLE);
20003de6:	2101      	movs	r1, #1
20003de8:	2008      	movs	r0, #8
20003dea:	f000 feb5 	bl	20004b58 <RCC_AHB1PeriphResetCmd>
    RCC_AHB1PeriphResetCmd(RCC_AHB1Periph_GPIOD, DISABLE);
20003dee:	2100      	movs	r1, #0
20003df0:	2008      	movs	r0, #8
20003df2:	f000 feb1 	bl	20004b58 <RCC_AHB1PeriphResetCmd>
}
20003df6:	e05f      	b.n	20003eb8 <GPIO_DeInit+0x130>
  else if (GPIOx == GPIOE)
20003df8:	687b      	ldr	r3, [r7, #4]
20003dfa:	4a35      	ldr	r2, [pc, #212]	@ (20003ed0 <GPIO_DeInit+0x148>)
20003dfc:	4293      	cmp	r3, r2
20003dfe:	d108      	bne.n	20003e12 <GPIO_DeInit+0x8a>
    RCC_AHB1PeriphResetCmd(RCC_AHB1Periph_GPIOE, ENABLE);
20003e00:	2101      	movs	r1, #1
20003e02:	2010      	movs	r0, #16
20003e04:	f000 fea8 	bl	20004b58 <RCC_AHB1PeriphResetCmd>
    RCC_AHB1PeriphResetCmd(RCC_AHB1Periph_GPIOE, DISABLE);
20003e08:	2100      	movs	r1, #0
20003e0a:	2010      	movs	r0, #16
20003e0c:	f000 fea4 	bl	20004b58 <RCC_AHB1PeriphResetCmd>
}
20003e10:	e052      	b.n	20003eb8 <GPIO_DeInit+0x130>
  else if (GPIOx == GPIOF)
20003e12:	687b      	ldr	r3, [r7, #4]
20003e14:	4a2f      	ldr	r2, [pc, #188]	@ (20003ed4 <GPIO_DeInit+0x14c>)
20003e16:	4293      	cmp	r3, r2
20003e18:	d108      	bne.n	20003e2c <GPIO_DeInit+0xa4>
    RCC_AHB1PeriphResetCmd(RCC_AHB1Periph_GPIOF, ENABLE);
20003e1a:	2101      	movs	r1, #1
20003e1c:	2020      	movs	r0, #32
20003e1e:	f000 fe9b 	bl	20004b58 <RCC_AHB1PeriphResetCmd>
    RCC_AHB1PeriphResetCmd(RCC_AHB1Periph_GPIOF, DISABLE);
20003e22:	2100      	movs	r1, #0
20003e24:	2020      	movs	r0, #32
20003e26:	f000 fe97 	bl	20004b58 <RCC_AHB1PeriphResetCmd>
}
20003e2a:	e045      	b.n	20003eb8 <GPIO_DeInit+0x130>
  else if (GPIOx == GPIOG)
20003e2c:	687b      	ldr	r3, [r7, #4]
20003e2e:	4a2a      	ldr	r2, [pc, #168]	@ (20003ed8 <GPIO_DeInit+0x150>)
20003e30:	4293      	cmp	r3, r2
20003e32:	d108      	bne.n	20003e46 <GPIO_DeInit+0xbe>
    RCC_AHB1PeriphResetCmd(RCC_AHB1Periph_GPIOG, ENABLE);
20003e34:	2101      	movs	r1, #1
20003e36:	2040      	movs	r0, #64	@ 0x40
20003e38:	f000 fe8e 	bl	20004b58 <RCC_AHB1PeriphResetCmd>
    RCC_AHB1PeriphResetCmd(RCC_AHB1Periph_GPIOG, DISABLE);
20003e3c:	2100      	movs	r1, #0
20003e3e:	2040      	movs	r0, #64	@ 0x40
20003e40:	f000 fe8a 	bl	20004b58 <RCC_AHB1PeriphResetCmd>
}
20003e44:	e038      	b.n	20003eb8 <GPIO_DeInit+0x130>
  else if (GPIOx == GPIOH)
20003e46:	687b      	ldr	r3, [r7, #4]
20003e48:	4a24      	ldr	r2, [pc, #144]	@ (20003edc <GPIO_DeInit+0x154>)
20003e4a:	4293      	cmp	r3, r2
20003e4c:	d108      	bne.n	20003e60 <GPIO_DeInit+0xd8>
    RCC_AHB1PeriphResetCmd(RCC_AHB1Periph_GPIOH, ENABLE);
20003e4e:	2101      	movs	r1, #1
20003e50:	2080      	movs	r0, #128	@ 0x80
20003e52:	f000 fe81 	bl	20004b58 <RCC_AHB1PeriphResetCmd>
    RCC_AHB1PeriphResetCmd(RCC_AHB1Periph_GPIOH, DISABLE);
20003e56:	2100      	movs	r1, #0
20003e58:	2080      	movs	r0, #128	@ 0x80
20003e5a:	f000 fe7d 	bl	20004b58 <RCC_AHB1PeriphResetCmd>
}
20003e5e:	e02b      	b.n	20003eb8 <GPIO_DeInit+0x130>
  else if (GPIOx == GPIOI)
20003e60:	687b      	ldr	r3, [r7, #4]
20003e62:	4a1f      	ldr	r2, [pc, #124]	@ (20003ee0 <GPIO_DeInit+0x158>)
20003e64:	4293      	cmp	r3, r2
20003e66:	d10a      	bne.n	20003e7e <GPIO_DeInit+0xf6>
    RCC_AHB1PeriphResetCmd(RCC_AHB1Periph_GPIOI, ENABLE);
20003e68:	2101      	movs	r1, #1
20003e6a:	f44f 7080 	mov.w	r0, #256	@ 0x100
20003e6e:	f000 fe73 	bl	20004b58 <RCC_AHB1PeriphResetCmd>
    RCC_AHB1PeriphResetCmd(RCC_AHB1Periph_GPIOI, DISABLE);
20003e72:	2100      	movs	r1, #0
20003e74:	f44f 7080 	mov.w	r0, #256	@ 0x100
20003e78:	f000 fe6e 	bl	20004b58 <RCC_AHB1PeriphResetCmd>
}
20003e7c:	e01c      	b.n	20003eb8 <GPIO_DeInit+0x130>
  else if (GPIOx == GPIOJ)
20003e7e:	687b      	ldr	r3, [r7, #4]
20003e80:	4a18      	ldr	r2, [pc, #96]	@ (20003ee4 <GPIO_DeInit+0x15c>)
20003e82:	4293      	cmp	r3, r2
20003e84:	d10a      	bne.n	20003e9c <GPIO_DeInit+0x114>
    RCC_AHB1PeriphResetCmd(RCC_AHB1Periph_GPIOJ, ENABLE);
20003e86:	2101      	movs	r1, #1
20003e88:	f44f 7000 	mov.w	r0, #512	@ 0x200
20003e8c:	f000 fe64 	bl	20004b58 <RCC_AHB1PeriphResetCmd>
    RCC_AHB1PeriphResetCmd(RCC_AHB1Periph_GPIOJ, DISABLE);
20003e90:	2100      	movs	r1, #0
20003e92:	f44f 7000 	mov.w	r0, #512	@ 0x200
20003e96:	f000 fe5f 	bl	20004b58 <RCC_AHB1PeriphResetCmd>
}
20003e9a:	e00d      	b.n	20003eb8 <GPIO_DeInit+0x130>
    if (GPIOx == GPIOK)
20003e9c:	687b      	ldr	r3, [r7, #4]
20003e9e:	4a12      	ldr	r2, [pc, #72]	@ (20003ee8 <GPIO_DeInit+0x160>)
20003ea0:	4293      	cmp	r3, r2
20003ea2:	d109      	bne.n	20003eb8 <GPIO_DeInit+0x130>
      RCC_AHB1PeriphResetCmd(RCC_AHB1Periph_GPIOK, ENABLE);
20003ea4:	2101      	movs	r1, #1
20003ea6:	f44f 6080 	mov.w	r0, #1024	@ 0x400
20003eaa:	f000 fe55 	bl	20004b58 <RCC_AHB1PeriphResetCmd>
      RCC_AHB1PeriphResetCmd(RCC_AHB1Periph_GPIOK, DISABLE);
20003eae:	2100      	movs	r1, #0
20003eb0:	f44f 6080 	mov.w	r0, #1024	@ 0x400
20003eb4:	f000 fe50 	bl	20004b58 <RCC_AHB1PeriphResetCmd>
}
20003eb8:	bf00      	nop
20003eba:	3708      	adds	r7, #8
20003ebc:	46bd      	mov	sp, r7
20003ebe:	bd80      	pop	{r7, pc}
20003ec0:	40020000 	.word	0x40020000
20003ec4:	40020400 	.word	0x40020400
20003ec8:	40020800 	.word	0x40020800
20003ecc:	40020c00 	.word	0x40020c00
20003ed0:	40021000 	.word	0x40021000
20003ed4:	40021400 	.word	0x40021400
20003ed8:	40021800 	.word	0x40021800
20003edc:	40021c00 	.word	0x40021c00
20003ee0:	40022000 	.word	0x40022000
20003ee4:	40022400 	.word	0x40022400
20003ee8:	40022800 	.word	0x40022800

20003eec <GPIO_Init>:
  * @param  GPIO_InitStruct: pointer to a GPIO_InitTypeDef structure that contains
  *         the configuration information for the specified GPIO peripheral.
  * @retval None
  */
void GPIO_Init(GPIO_TypeDef* GPIOx, GPIO_InitTypeDef* GPIO_InitStruct)
{
20003eec:	b480      	push	{r7}
20003eee:	b087      	sub	sp, #28
20003ef0:	af00      	add	r7, sp, #0
20003ef2:	6078      	str	r0, [r7, #4]
20003ef4:	6039      	str	r1, [r7, #0]
  uint32_t pinpos = 0x00, pos = 0x00 , currentpin = 0x00;
20003ef6:	2300      	movs	r3, #0
20003ef8:	617b      	str	r3, [r7, #20]
20003efa:	2300      	movs	r3, #0
20003efc:	613b      	str	r3, [r7, #16]
20003efe:	2300      	movs	r3, #0
20003f00:	60fb      	str	r3, [r7, #12]
  assert_param(IS_GPIO_MODE(GPIO_InitStruct->GPIO_Mode));
  assert_param(IS_GPIO_PUPD(GPIO_InitStruct->GPIO_PuPd));

  /* ------------------------- Configure the port pins ---------------- */
  /*-- GPIO Mode Configuration --*/
  for (pinpos = 0x00; pinpos < 0x10; pinpos++)
20003f02:	2300      	movs	r3, #0
20003f04:	617b      	str	r3, [r7, #20]
20003f06:	e076      	b.n	20003ff6 <GPIO_Init+0x10a>
  {
    pos = ((uint32_t)0x01) << pinpos;
20003f08:	2201      	movs	r2, #1
20003f0a:	697b      	ldr	r3, [r7, #20]
20003f0c:	fa02 f303 	lsl.w	r3, r2, r3
20003f10:	613b      	str	r3, [r7, #16]
    /* Get the port pins position */
    currentpin = (GPIO_InitStruct->GPIO_Pin) & pos;
20003f12:	683b      	ldr	r3, [r7, #0]
20003f14:	681b      	ldr	r3, [r3, #0]
20003f16:	693a      	ldr	r2, [r7, #16]
20003f18:	4013      	ands	r3, r2
20003f1a:	60fb      	str	r3, [r7, #12]

    if (currentpin == pos)
20003f1c:	68fa      	ldr	r2, [r7, #12]
20003f1e:	693b      	ldr	r3, [r7, #16]
20003f20:	429a      	cmp	r2, r3
20003f22:	d165      	bne.n	20003ff0 <GPIO_Init+0x104>
    {
      GPIOx->MODER  &= ~(GPIO_MODER_MODER0 << (pinpos * 2));
20003f24:	687b      	ldr	r3, [r7, #4]
20003f26:	681a      	ldr	r2, [r3, #0]
20003f28:	697b      	ldr	r3, [r7, #20]
20003f2a:	005b      	lsls	r3, r3, #1
20003f2c:	2103      	movs	r1, #3
20003f2e:	fa01 f303 	lsl.w	r3, r1, r3
20003f32:	43db      	mvns	r3, r3
20003f34:	401a      	ands	r2, r3
20003f36:	687b      	ldr	r3, [r7, #4]
20003f38:	601a      	str	r2, [r3, #0]
      GPIOx->MODER |= (((uint32_t)GPIO_InitStruct->GPIO_Mode) << (pinpos * 2));
20003f3a:	687b      	ldr	r3, [r7, #4]
20003f3c:	681a      	ldr	r2, [r3, #0]
20003f3e:	683b      	ldr	r3, [r7, #0]
20003f40:	791b      	ldrb	r3, [r3, #4]
20003f42:	4619      	mov	r1, r3
20003f44:	697b      	ldr	r3, [r7, #20]
20003f46:	005b      	lsls	r3, r3, #1
20003f48:	fa01 f303 	lsl.w	r3, r1, r3
20003f4c:	431a      	orrs	r2, r3
20003f4e:	687b      	ldr	r3, [r7, #4]
20003f50:	601a      	str	r2, [r3, #0]

      if ((GPIO_InitStruct->GPIO_Mode == GPIO_Mode_OUT) || (GPIO_InitStruct->GPIO_Mode == GPIO_Mode_AF))
20003f52:	683b      	ldr	r3, [r7, #0]
20003f54:	791b      	ldrb	r3, [r3, #4]
20003f56:	2b01      	cmp	r3, #1
20003f58:	d003      	beq.n	20003f62 <GPIO_Init+0x76>
20003f5a:	683b      	ldr	r3, [r7, #0]
20003f5c:	791b      	ldrb	r3, [r3, #4]
20003f5e:	2b02      	cmp	r3, #2
20003f60:	d12e      	bne.n	20003fc0 <GPIO_Init+0xd4>
      {
        /* Check Speed mode parameters */
        assert_param(IS_GPIO_SPEED(GPIO_InitStruct->GPIO_Speed));

        /* Speed mode configuration */
        GPIOx->OSPEEDR &= ~(GPIO_OSPEEDER_OSPEEDR0 << (pinpos * 2));
20003f62:	687b      	ldr	r3, [r7, #4]
20003f64:	689a      	ldr	r2, [r3, #8]
20003f66:	697b      	ldr	r3, [r7, #20]
20003f68:	005b      	lsls	r3, r3, #1
20003f6a:	2103      	movs	r1, #3
20003f6c:	fa01 f303 	lsl.w	r3, r1, r3
20003f70:	43db      	mvns	r3, r3
20003f72:	401a      	ands	r2, r3
20003f74:	687b      	ldr	r3, [r7, #4]
20003f76:	609a      	str	r2, [r3, #8]
        GPIOx->OSPEEDR |= ((uint32_t)(GPIO_InitStruct->GPIO_Speed) << (pinpos * 2));
20003f78:	687b      	ldr	r3, [r7, #4]
20003f7a:	689a      	ldr	r2, [r3, #8]
20003f7c:	683b      	ldr	r3, [r7, #0]
20003f7e:	795b      	ldrb	r3, [r3, #5]
20003f80:	4619      	mov	r1, r3
20003f82:	697b      	ldr	r3, [r7, #20]
20003f84:	005b      	lsls	r3, r3, #1
20003f86:	fa01 f303 	lsl.w	r3, r1, r3
20003f8a:	431a      	orrs	r2, r3
20003f8c:	687b      	ldr	r3, [r7, #4]
20003f8e:	609a      	str	r2, [r3, #8]

        /* Check Output mode parameters */
        assert_param(IS_GPIO_OTYPE(GPIO_InitStruct->GPIO_OType));

        /* Output mode configuration*/
        GPIOx->OTYPER  &= ~((GPIO_OTYPER_OT_0) << ((uint16_t)pinpos)) ;
20003f90:	687b      	ldr	r3, [r7, #4]
20003f92:	685a      	ldr	r2, [r3, #4]
20003f94:	697b      	ldr	r3, [r7, #20]
20003f96:	b29b      	uxth	r3, r3
20003f98:	4619      	mov	r1, r3
20003f9a:	2301      	movs	r3, #1
20003f9c:	408b      	lsls	r3, r1
20003f9e:	43db      	mvns	r3, r3
20003fa0:	401a      	ands	r2, r3
20003fa2:	687b      	ldr	r3, [r7, #4]
20003fa4:	605a      	str	r2, [r3, #4]
        GPIOx->OTYPER |= (uint16_t)(((uint16_t)GPIO_InitStruct->GPIO_OType) << ((uint16_t)pinpos));
20003fa6:	687b      	ldr	r3, [r7, #4]
20003fa8:	685b      	ldr	r3, [r3, #4]
20003faa:	683a      	ldr	r2, [r7, #0]
20003fac:	7992      	ldrb	r2, [r2, #6]
20003fae:	4611      	mov	r1, r2
20003fb0:	697a      	ldr	r2, [r7, #20]
20003fb2:	b292      	uxth	r2, r2
20003fb4:	fa01 f202 	lsl.w	r2, r1, r2
20003fb8:	b292      	uxth	r2, r2
20003fba:	431a      	orrs	r2, r3
20003fbc:	687b      	ldr	r3, [r7, #4]
20003fbe:	605a      	str	r2, [r3, #4]
      }

      /* Pull-up Pull down resistor configuration*/
      GPIOx->PUPDR &= ~(GPIO_PUPDR_PUPDR0 << ((uint16_t)pinpos * 2));
20003fc0:	687b      	ldr	r3, [r7, #4]
20003fc2:	68da      	ldr	r2, [r3, #12]
20003fc4:	697b      	ldr	r3, [r7, #20]
20003fc6:	b29b      	uxth	r3, r3
20003fc8:	005b      	lsls	r3, r3, #1
20003fca:	2103      	movs	r1, #3
20003fcc:	fa01 f303 	lsl.w	r3, r1, r3
20003fd0:	43db      	mvns	r3, r3
20003fd2:	401a      	ands	r2, r3
20003fd4:	687b      	ldr	r3, [r7, #4]
20003fd6:	60da      	str	r2, [r3, #12]
      GPIOx->PUPDR |= (((uint32_t)GPIO_InitStruct->GPIO_PuPd) << (pinpos * 2));
20003fd8:	687b      	ldr	r3, [r7, #4]
20003fda:	68da      	ldr	r2, [r3, #12]
20003fdc:	683b      	ldr	r3, [r7, #0]
20003fde:	79db      	ldrb	r3, [r3, #7]
20003fe0:	4619      	mov	r1, r3
20003fe2:	697b      	ldr	r3, [r7, #20]
20003fe4:	005b      	lsls	r3, r3, #1
20003fe6:	fa01 f303 	lsl.w	r3, r1, r3
20003fea:	431a      	orrs	r2, r3
20003fec:	687b      	ldr	r3, [r7, #4]
20003fee:	60da      	str	r2, [r3, #12]
  for (pinpos = 0x00; pinpos < 0x10; pinpos++)
20003ff0:	697b      	ldr	r3, [r7, #20]
20003ff2:	3301      	adds	r3, #1
20003ff4:	617b      	str	r3, [r7, #20]
20003ff6:	697b      	ldr	r3, [r7, #20]
20003ff8:	2b0f      	cmp	r3, #15
20003ffa:	d985      	bls.n	20003f08 <GPIO_Init+0x1c>
    }
  }
}
20003ffc:	bf00      	nop
20003ffe:	bf00      	nop
20004000:	371c      	adds	r7, #28
20004002:	46bd      	mov	sp, r7
20004004:	f85d 7b04 	ldr.w	r7, [sp], #4
20004008:	4770      	bx	lr

2000400a <GPIO_StructInit>:
  * @brief  Fills each GPIO_InitStruct member with its default value.
  * @param  GPIO_InitStruct : pointer to a GPIO_InitTypeDef structure which will be initialized.
  * @retval None
  */
void GPIO_StructInit(GPIO_InitTypeDef* GPIO_InitStruct)
{
2000400a:	b480      	push	{r7}
2000400c:	b083      	sub	sp, #12
2000400e:	af00      	add	r7, sp, #0
20004010:	6078      	str	r0, [r7, #4]
  /* Reset GPIO init structure parameters values */
  GPIO_InitStruct->GPIO_Pin  = GPIO_Pin_All;
20004012:	687b      	ldr	r3, [r7, #4]
20004014:	f64f 72ff 	movw	r2, #65535	@ 0xffff
20004018:	601a      	str	r2, [r3, #0]
  GPIO_InitStruct->GPIO_Mode = GPIO_Mode_IN;
2000401a:	687b      	ldr	r3, [r7, #4]
2000401c:	2200      	movs	r2, #0
2000401e:	711a      	strb	r2, [r3, #4]
  GPIO_InitStruct->GPIO_Speed = GPIO_Speed_2MHz;
20004020:	687b      	ldr	r3, [r7, #4]
20004022:	2200      	movs	r2, #0
20004024:	715a      	strb	r2, [r3, #5]
  GPIO_InitStruct->GPIO_OType = GPIO_OType_PP;
20004026:	687b      	ldr	r3, [r7, #4]
20004028:	2200      	movs	r2, #0
2000402a:	719a      	strb	r2, [r3, #6]
  GPIO_InitStruct->GPIO_PuPd = GPIO_PuPd_NOPULL;
2000402c:	687b      	ldr	r3, [r7, #4]
2000402e:	2200      	movs	r2, #0
20004030:	71da      	strb	r2, [r3, #7]
}
20004032:	bf00      	nop
20004034:	370c      	adds	r7, #12
20004036:	46bd      	mov	sp, r7
20004038:	f85d 7b04 	ldr.w	r7, [sp], #4
2000403c:	4770      	bx	lr

2000403e <GPIO_PinLockConfig>:
  * @param  GPIO_Pin: specifies the port bit to be locked.
  *          This parameter can be any combination of GPIO_Pin_x where x can be (0..15).
  * @retval None
  */
void GPIO_PinLockConfig(GPIO_TypeDef* GPIOx, uint16_t GPIO_Pin)
{
2000403e:	b480      	push	{r7}
20004040:	b085      	sub	sp, #20
20004042:	af00      	add	r7, sp, #0
20004044:	6078      	str	r0, [r7, #4]
20004046:	460b      	mov	r3, r1
20004048:	807b      	strh	r3, [r7, #2]
  __IO uint32_t tmp = 0x00010000;
2000404a:	f44f 3380 	mov.w	r3, #65536	@ 0x10000
2000404e:	60fb      	str	r3, [r7, #12]

  /* Check the parameters */
  assert_param(IS_GPIO_ALL_PERIPH(GPIOx));
  assert_param(IS_GPIO_PIN(GPIO_Pin));

  tmp |= GPIO_Pin;
20004050:	887a      	ldrh	r2, [r7, #2]
20004052:	68fb      	ldr	r3, [r7, #12]
20004054:	4313      	orrs	r3, r2
20004056:	60fb      	str	r3, [r7, #12]
  /* Set LCKK bit */
  GPIOx->LCKR = tmp;
20004058:	68fa      	ldr	r2, [r7, #12]
2000405a:	687b      	ldr	r3, [r7, #4]
2000405c:	61da      	str	r2, [r3, #28]
  /* Reset LCKK bit */
  GPIOx->LCKR =  GPIO_Pin;
2000405e:	887a      	ldrh	r2, [r7, #2]
20004060:	687b      	ldr	r3, [r7, #4]
20004062:	61da      	str	r2, [r3, #28]
  /* Set LCKK bit */
  GPIOx->LCKR = tmp;
20004064:	68fa      	ldr	r2, [r7, #12]
20004066:	687b      	ldr	r3, [r7, #4]
20004068:	61da      	str	r2, [r3, #28]
  /* Read LCKK bit*/
  tmp = GPIOx->LCKR;
2000406a:	687b      	ldr	r3, [r7, #4]
2000406c:	69db      	ldr	r3, [r3, #28]
2000406e:	60fb      	str	r3, [r7, #12]
  /* Read LCKK bit*/
  tmp = GPIOx->LCKR;
20004070:	687b      	ldr	r3, [r7, #4]
20004072:	69db      	ldr	r3, [r3, #28]
20004074:	60fb      	str	r3, [r7, #12]
}
20004076:	bf00      	nop
20004078:	3714      	adds	r7, #20
2000407a:	46bd      	mov	sp, r7
2000407c:	f85d 7b04 	ldr.w	r7, [sp], #4
20004080:	4770      	bx	lr

20004082 <GPIO_ReadInputDataBit>:
  * @param  GPIO_Pin: specifies the port bit to read.
  *         This parameter can be GPIO_Pin_x where x can be (0..15).
  * @retval The input port pin value.
  */
uint8_t GPIO_ReadInputDataBit(GPIO_TypeDef* GPIOx, uint16_t GPIO_Pin)
{
20004082:	b480      	push	{r7}
20004084:	b085      	sub	sp, #20
20004086:	af00      	add	r7, sp, #0
20004088:	6078      	str	r0, [r7, #4]
2000408a:	460b      	mov	r3, r1
2000408c:	807b      	strh	r3, [r7, #2]
  uint8_t bitstatus = 0x00;
2000408e:	2300      	movs	r3, #0
20004090:	73fb      	strb	r3, [r7, #15]

  /* Check the parameters */
  assert_param(IS_GPIO_ALL_PERIPH(GPIOx));
  assert_param(IS_GET_GPIO_PIN(GPIO_Pin));

  if ((GPIOx->IDR & GPIO_Pin) != (uint32_t)Bit_RESET)
20004092:	687b      	ldr	r3, [r7, #4]
20004094:	691a      	ldr	r2, [r3, #16]
20004096:	887b      	ldrh	r3, [r7, #2]
20004098:	4013      	ands	r3, r2
2000409a:	2b00      	cmp	r3, #0
2000409c:	d002      	beq.n	200040a4 <GPIO_ReadInputDataBit+0x22>
  {
    bitstatus = (uint8_t)Bit_SET;
2000409e:	2301      	movs	r3, #1
200040a0:	73fb      	strb	r3, [r7, #15]
200040a2:	e001      	b.n	200040a8 <GPIO_ReadInputDataBit+0x26>
  }
  else
  {
    bitstatus = (uint8_t)Bit_RESET;
200040a4:	2300      	movs	r3, #0
200040a6:	73fb      	strb	r3, [r7, #15]
  }
  return bitstatus;
200040a8:	7bfb      	ldrb	r3, [r7, #15]
}
200040aa:	4618      	mov	r0, r3
200040ac:	3714      	adds	r7, #20
200040ae:	46bd      	mov	sp, r7
200040b0:	f85d 7b04 	ldr.w	r7, [sp], #4
200040b4:	4770      	bx	lr

200040b6 <GPIO_ReadInputData>:
  *                      x can be (A..I) to select the GPIO peripheral for STM32F42xxx/43xxx devices.
  *                      x can be (A, B, C, D and H) to select the GPIO peripheral for STM32F401xx devices. 
  * @retval GPIO input data port value.
  */
uint16_t GPIO_ReadInputData(GPIO_TypeDef* GPIOx)
{
200040b6:	b480      	push	{r7}
200040b8:	b083      	sub	sp, #12
200040ba:	af00      	add	r7, sp, #0
200040bc:	6078      	str	r0, [r7, #4]
  /* Check the parameters */
  assert_param(IS_GPIO_ALL_PERIPH(GPIOx));

  return ((uint16_t)GPIOx->IDR);
200040be:	687b      	ldr	r3, [r7, #4]
200040c0:	691b      	ldr	r3, [r3, #16]
200040c2:	b29b      	uxth	r3, r3
}
200040c4:	4618      	mov	r0, r3
200040c6:	370c      	adds	r7, #12
200040c8:	46bd      	mov	sp, r7
200040ca:	f85d 7b04 	ldr.w	r7, [sp], #4
200040ce:	4770      	bx	lr

200040d0 <GPIO_ReadOutputDataBit>:
  * @param  GPIO_Pin: specifies the port bit to read.
  *          This parameter can be GPIO_Pin_x where x can be (0..15).
  * @retval The output port pin value.
  */
uint8_t GPIO_ReadOutputDataBit(GPIO_TypeDef* GPIOx, uint16_t GPIO_Pin)
{
200040d0:	b480      	push	{r7}
200040d2:	b085      	sub	sp, #20
200040d4:	af00      	add	r7, sp, #0
200040d6:	6078      	str	r0, [r7, #4]
200040d8:	460b      	mov	r3, r1
200040da:	807b      	strh	r3, [r7, #2]
  uint8_t bitstatus = 0x00;
200040dc:	2300      	movs	r3, #0
200040de:	73fb      	strb	r3, [r7, #15]

  /* Check the parameters */
  assert_param(IS_GPIO_ALL_PERIPH(GPIOx));
  assert_param(IS_GET_GPIO_PIN(GPIO_Pin));

  if (((GPIOx->ODR) & GPIO_Pin) != (uint32_t)Bit_RESET)
200040e0:	687b      	ldr	r3, [r7, #4]
200040e2:	695a      	ldr	r2, [r3, #20]
200040e4:	887b      	ldrh	r3, [r7, #2]
200040e6:	4013      	ands	r3, r2
200040e8:	2b00      	cmp	r3, #0
200040ea:	d002      	beq.n	200040f2 <GPIO_ReadOutputDataBit+0x22>
  {
    bitstatus = (uint8_t)Bit_SET;
200040ec:	2301      	movs	r3, #1
200040ee:	73fb      	strb	r3, [r7, #15]
200040f0:	e001      	b.n	200040f6 <GPIO_ReadOutputDataBit+0x26>
  }
  else
  {
    bitstatus = (uint8_t)Bit_RESET;
200040f2:	2300      	movs	r3, #0
200040f4:	73fb      	strb	r3, [r7, #15]
  }
  return bitstatus;
200040f6:	7bfb      	ldrb	r3, [r7, #15]
}
200040f8:	4618      	mov	r0, r3
200040fa:	3714      	adds	r7, #20
200040fc:	46bd      	mov	sp, r7
200040fe:	f85d 7b04 	ldr.w	r7, [sp], #4
20004102:	4770      	bx	lr

20004104 <GPIO_ReadOutputData>:
  *                      x can be (A..I) to select the GPIO peripheral for STM32F42xxx/43xxx devices.
  *                      x can be (A, B, C, D and H) to select the GPIO peripheral for STM32F401xx devices. 
  * @retval GPIO output data port value.
  */
uint16_t GPIO_ReadOutputData(GPIO_TypeDef* GPIOx)
{
20004104:	b480      	push	{r7}
20004106:	b083      	sub	sp, #12
20004108:	af00      	add	r7, sp, #0
2000410a:	6078      	str	r0, [r7, #4]
  /* Check the parameters */
  assert_param(IS_GPIO_ALL_PERIPH(GPIOx));

  return ((uint16_t)GPIOx->ODR);
2000410c:	687b      	ldr	r3, [r7, #4]
2000410e:	695b      	ldr	r3, [r3, #20]
20004110:	b29b      	uxth	r3, r3
}
20004112:	4618      	mov	r0, r3
20004114:	370c      	adds	r7, #12
20004116:	46bd      	mov	sp, r7
20004118:	f85d 7b04 	ldr.w	r7, [sp], #4
2000411c:	4770      	bx	lr

2000411e <GPIO_SetBits>:
  * @param  GPIO_Pin: specifies the port bits to be written.
  *          This parameter can be any combination of GPIO_Pin_x where x can be (0..15).
  * @retval None
  */
void GPIO_SetBits(GPIO_TypeDef* GPIOx, uint16_t GPIO_Pin)
{
2000411e:	b480      	push	{r7}
20004120:	b083      	sub	sp, #12
20004122:	af00      	add	r7, sp, #0
20004124:	6078      	str	r0, [r7, #4]
20004126:	460b      	mov	r3, r1
20004128:	807b      	strh	r3, [r7, #2]
  /* Check the parameters */
  assert_param(IS_GPIO_ALL_PERIPH(GPIOx));
  assert_param(IS_GPIO_PIN(GPIO_Pin));

  GPIOx->BSRRL = GPIO_Pin;
2000412a:	687b      	ldr	r3, [r7, #4]
2000412c:	887a      	ldrh	r2, [r7, #2]
2000412e:	831a      	strh	r2, [r3, #24]
}
20004130:	bf00      	nop
20004132:	370c      	adds	r7, #12
20004134:	46bd      	mov	sp, r7
20004136:	f85d 7b04 	ldr.w	r7, [sp], #4
2000413a:	4770      	bx	lr

2000413c <GPIO_ResetBits>:
  * @param  GPIO_Pin: specifies the port bits to be written.
  *          This parameter can be any combination of GPIO_Pin_x where x can be (0..15).
  * @retval None
  */
void GPIO_ResetBits(GPIO_TypeDef* GPIOx, uint16_t GPIO_Pin)
{
2000413c:	b480      	push	{r7}
2000413e:	b083      	sub	sp, #12
20004140:	af00      	add	r7, sp, #0
20004142:	6078      	str	r0, [r7, #4]
20004144:	460b      	mov	r3, r1
20004146:	807b      	strh	r3, [r7, #2]
  /* Check the parameters */
  assert_param(IS_GPIO_ALL_PERIPH(GPIOx));
  assert_param(IS_GPIO_PIN(GPIO_Pin));

  GPIOx->BSRRH = GPIO_Pin;
20004148:	687b      	ldr	r3, [r7, #4]
2000414a:	887a      	ldrh	r2, [r7, #2]
2000414c:	835a      	strh	r2, [r3, #26]
}
2000414e:	bf00      	nop
20004150:	370c      	adds	r7, #12
20004152:	46bd      	mov	sp, r7
20004154:	f85d 7b04 	ldr.w	r7, [sp], #4
20004158:	4770      	bx	lr

2000415a <GPIO_WriteBit>:
  *            @arg Bit_RESET: to clear the port pin
  *            @arg Bit_SET: to set the port pin
  * @retval None
  */
void GPIO_WriteBit(GPIO_TypeDef* GPIOx, uint16_t GPIO_Pin, BitAction BitVal)
{
2000415a:	b480      	push	{r7}
2000415c:	b083      	sub	sp, #12
2000415e:	af00      	add	r7, sp, #0
20004160:	6078      	str	r0, [r7, #4]
20004162:	460b      	mov	r3, r1
20004164:	807b      	strh	r3, [r7, #2]
20004166:	4613      	mov	r3, r2
20004168:	707b      	strb	r3, [r7, #1]
  /* Check the parameters */
  assert_param(IS_GPIO_ALL_PERIPH(GPIOx));
  assert_param(IS_GET_GPIO_PIN(GPIO_Pin));
  assert_param(IS_GPIO_BIT_ACTION(BitVal));

  if (BitVal != Bit_RESET)
2000416a:	787b      	ldrb	r3, [r7, #1]
2000416c:	2b00      	cmp	r3, #0
2000416e:	d003      	beq.n	20004178 <GPIO_WriteBit+0x1e>
  {
    GPIOx->BSRRL = GPIO_Pin;
20004170:	687b      	ldr	r3, [r7, #4]
20004172:	887a      	ldrh	r2, [r7, #2]
20004174:	831a      	strh	r2, [r3, #24]
  }
  else
  {
    GPIOx->BSRRH = GPIO_Pin ;
  }
}
20004176:	e002      	b.n	2000417e <GPIO_WriteBit+0x24>
    GPIOx->BSRRH = GPIO_Pin ;
20004178:	687b      	ldr	r3, [r7, #4]
2000417a:	887a      	ldrh	r2, [r7, #2]
2000417c:	835a      	strh	r2, [r3, #26]
}
2000417e:	bf00      	nop
20004180:	370c      	adds	r7, #12
20004182:	46bd      	mov	sp, r7
20004184:	f85d 7b04 	ldr.w	r7, [sp], #4
20004188:	4770      	bx	lr

2000418a <GPIO_Write>:
  *                      x can be (A, B, C, D and H) to select the GPIO peripheral for STM32F401xx devices. 
  * @param  PortVal: specifies the value to be written to the port output data register.
  * @retval None
  */
void GPIO_Write(GPIO_TypeDef* GPIOx, uint16_t PortVal)
{
2000418a:	b480      	push	{r7}
2000418c:	b083      	sub	sp, #12
2000418e:	af00      	add	r7, sp, #0
20004190:	6078      	str	r0, [r7, #4]
20004192:	460b      	mov	r3, r1
20004194:	807b      	strh	r3, [r7, #2]
  /* Check the parameters */
  assert_param(IS_GPIO_ALL_PERIPH(GPIOx));

  GPIOx->ODR = PortVal;
20004196:	887a      	ldrh	r2, [r7, #2]
20004198:	687b      	ldr	r3, [r7, #4]
2000419a:	615a      	str	r2, [r3, #20]
}
2000419c:	bf00      	nop
2000419e:	370c      	adds	r7, #12
200041a0:	46bd      	mov	sp, r7
200041a2:	f85d 7b04 	ldr.w	r7, [sp], #4
200041a6:	4770      	bx	lr

200041a8 <GPIO_ToggleBits>:
  *                      x can be (A, B, C, D and H) to select the GPIO peripheral for STM32F401xx devices. 
  * @param  GPIO_Pin: Specifies the pins to be toggled.
  * @retval None
  */
void GPIO_ToggleBits(GPIO_TypeDef* GPIOx, uint16_t GPIO_Pin)
{
200041a8:	b480      	push	{r7}
200041aa:	b083      	sub	sp, #12
200041ac:	af00      	add	r7, sp, #0
200041ae:	6078      	str	r0, [r7, #4]
200041b0:	460b      	mov	r3, r1
200041b2:	807b      	strh	r3, [r7, #2]
  /* Check the parameters */
  assert_param(IS_GPIO_ALL_PERIPH(GPIOx));

  GPIOx->ODR ^= GPIO_Pin;
200041b4:	687b      	ldr	r3, [r7, #4]
200041b6:	695a      	ldr	r2, [r3, #20]
200041b8:	887b      	ldrh	r3, [r7, #2]
200041ba:	405a      	eors	r2, r3
200041bc:	687b      	ldr	r3, [r7, #4]
200041be:	615a      	str	r2, [r3, #20]
}
200041c0:	bf00      	nop
200041c2:	370c      	adds	r7, #12
200041c4:	46bd      	mov	sp, r7
200041c6:	f85d 7b04 	ldr.w	r7, [sp], #4
200041ca:	4770      	bx	lr

200041cc <GPIO_PinAFConfig>:
  *            @arg GPIO_AF_LTDC: Connect LTDC pins to AF14 for STM32F429xx/439xx devices. 
  *            @arg GPIO_AF_EVENTOUT: Connect EVENTOUT pins to AF15
  * @retval None
  */
void GPIO_PinAFConfig(GPIO_TypeDef* GPIOx, uint16_t GPIO_PinSource, uint8_t GPIO_AF)
{
200041cc:	b480      	push	{r7}
200041ce:	b085      	sub	sp, #20
200041d0:	af00      	add	r7, sp, #0
200041d2:	6078      	str	r0, [r7, #4]
200041d4:	460b      	mov	r3, r1
200041d6:	807b      	strh	r3, [r7, #2]
200041d8:	4613      	mov	r3, r2
200041da:	707b      	strb	r3, [r7, #1]
  uint32_t temp = 0x00;
200041dc:	2300      	movs	r3, #0
200041de:	60fb      	str	r3, [r7, #12]
  uint32_t temp_2 = 0x00;
200041e0:	2300      	movs	r3, #0
200041e2:	60bb      	str	r3, [r7, #8]
  /* Check the parameters */
  assert_param(IS_GPIO_ALL_PERIPH(GPIOx));
  assert_param(IS_GPIO_PIN_SOURCE(GPIO_PinSource));
  assert_param(IS_GPIO_AF(GPIO_AF));
  
  temp = ((uint32_t)(GPIO_AF) << ((uint32_t)((uint32_t)GPIO_PinSource & (uint32_t)0x07) * 4)) ;
200041e4:	787a      	ldrb	r2, [r7, #1]
200041e6:	887b      	ldrh	r3, [r7, #2]
200041e8:	f003 0307 	and.w	r3, r3, #7
200041ec:	009b      	lsls	r3, r3, #2
200041ee:	fa02 f303 	lsl.w	r3, r2, r3
200041f2:	60fb      	str	r3, [r7, #12]
  GPIOx->AFR[GPIO_PinSource >> 0x03] &= ~((uint32_t)0xF << ((uint32_t)((uint32_t)GPIO_PinSource & (uint32_t)0x07) * 4)) ;
200041f4:	887b      	ldrh	r3, [r7, #2]
200041f6:	08db      	lsrs	r3, r3, #3
200041f8:	b29b      	uxth	r3, r3
200041fa:	461a      	mov	r2, r3
200041fc:	687b      	ldr	r3, [r7, #4]
200041fe:	3208      	adds	r2, #8
20004200:	f853 2022 	ldr.w	r2, [r3, r2, lsl #2]
20004204:	887b      	ldrh	r3, [r7, #2]
20004206:	f003 0307 	and.w	r3, r3, #7
2000420a:	009b      	lsls	r3, r3, #2
2000420c:	210f      	movs	r1, #15
2000420e:	fa01 f303 	lsl.w	r3, r1, r3
20004212:	43db      	mvns	r3, r3
20004214:	8879      	ldrh	r1, [r7, #2]
20004216:	08c9      	lsrs	r1, r1, #3
20004218:	b289      	uxth	r1, r1
2000421a:	4608      	mov	r0, r1
2000421c:	ea02 0103 	and.w	r1, r2, r3
20004220:	687b      	ldr	r3, [r7, #4]
20004222:	f100 0208 	add.w	r2, r0, #8
20004226:	f843 1022 	str.w	r1, [r3, r2, lsl #2]
  temp_2 = GPIOx->AFR[GPIO_PinSource >> 0x03] | temp;
2000422a:	887b      	ldrh	r3, [r7, #2]
2000422c:	08db      	lsrs	r3, r3, #3
2000422e:	b29b      	uxth	r3, r3
20004230:	461a      	mov	r2, r3
20004232:	687b      	ldr	r3, [r7, #4]
20004234:	3208      	adds	r2, #8
20004236:	f853 3022 	ldr.w	r3, [r3, r2, lsl #2]
2000423a:	68fa      	ldr	r2, [r7, #12]
2000423c:	4313      	orrs	r3, r2
2000423e:	60bb      	str	r3, [r7, #8]
  GPIOx->AFR[GPIO_PinSource >> 0x03] = temp_2;
20004240:	887b      	ldrh	r3, [r7, #2]
20004242:	08db      	lsrs	r3, r3, #3
20004244:	b29b      	uxth	r3, r3
20004246:	461a      	mov	r2, r3
20004248:	687b      	ldr	r3, [r7, #4]
2000424a:	3208      	adds	r2, #8
2000424c:	68b9      	ldr	r1, [r7, #8]
2000424e:	f843 1022 	str.w	r1, [r3, r2, lsl #2]
}
20004252:	bf00      	nop
20004254:	3714      	adds	r7, #20
20004256:	46bd      	mov	sp, r7
20004258:	f85d 7b04 	ldr.w	r7, [sp], #4
2000425c:	4770      	bx	lr
2000425e:	bf00      	nop

20004260 <RCC_DeInit>:
  *            - LSI, LSE and RTC clocks 
  * @param  None
  * @retval None
  */
void RCC_DeInit(void)
{
20004260:	b480      	push	{r7}
20004262:	af00      	add	r7, sp, #0
  /* Set HSION bit */
  RCC->CR |= (uint32_t)0x00000001;
20004264:	4b16      	ldr	r3, [pc, #88]	@ (200042c0 <RCC_DeInit+0x60>)
20004266:	681b      	ldr	r3, [r3, #0]
20004268:	4a15      	ldr	r2, [pc, #84]	@ (200042c0 <RCC_DeInit+0x60>)
2000426a:	f043 0301 	orr.w	r3, r3, #1
2000426e:	6013      	str	r3, [r2, #0]

  /* Reset CFGR register */
  RCC->CFGR = 0x00000000;
20004270:	4b13      	ldr	r3, [pc, #76]	@ (200042c0 <RCC_DeInit+0x60>)
20004272:	2200      	movs	r2, #0
20004274:	609a      	str	r2, [r3, #8]

  /* Reset HSEON, CSSON, PLLON, PLLI2S and PLLSAI(STM32F42/43xxx devices) bits */
  RCC->CR &= (uint32_t)0xEAF6FFFF;
20004276:	4b12      	ldr	r3, [pc, #72]	@ (200042c0 <RCC_DeInit+0x60>)
20004278:	681b      	ldr	r3, [r3, #0]
2000427a:	4a11      	ldr	r2, [pc, #68]	@ (200042c0 <RCC_DeInit+0x60>)
2000427c:	f023 53a8 	bic.w	r3, r3, #352321536	@ 0x15000000
20004280:	f423 2310 	bic.w	r3, r3, #589824	@ 0x90000
20004284:	6013      	str	r3, [r2, #0]

  /* Reset PLLCFGR register */
  RCC->PLLCFGR = 0x24003010;
20004286:	4b0e      	ldr	r3, [pc, #56]	@ (200042c0 <RCC_DeInit+0x60>)
20004288:	4a0e      	ldr	r2, [pc, #56]	@ (200042c4 <RCC_DeInit+0x64>)
2000428a:	605a      	str	r2, [r3, #4]

  /* Reset PLLI2SCFGR register */
  RCC->PLLI2SCFGR = 0x20003000;
2000428c:	4b0c      	ldr	r3, [pc, #48]	@ (200042c0 <RCC_DeInit+0x60>)
2000428e:	4a0e      	ldr	r2, [pc, #56]	@ (200042c8 <RCC_DeInit+0x68>)
20004290:	f8c3 2084 	str.w	r2, [r3, #132]	@ 0x84

  /* Reset PLLSAICFGR register, only available for STM32F42/43xxx devices */
  RCC->PLLSAICFGR = 0x24003000;
20004294:	4b0a      	ldr	r3, [pc, #40]	@ (200042c0 <RCC_DeInit+0x60>)
20004296:	4a0d      	ldr	r2, [pc, #52]	@ (200042cc <RCC_DeInit+0x6c>)
20004298:	f8c3 2088 	str.w	r2, [r3, #136]	@ 0x88
 
  /* Reset HSEBYP bit */
  RCC->CR &= (uint32_t)0xFFFBFFFF;
2000429c:	4b08      	ldr	r3, [pc, #32]	@ (200042c0 <RCC_DeInit+0x60>)
2000429e:	681b      	ldr	r3, [r3, #0]
200042a0:	4a07      	ldr	r2, [pc, #28]	@ (200042c0 <RCC_DeInit+0x60>)
200042a2:	f423 2380 	bic.w	r3, r3, #262144	@ 0x40000
200042a6:	6013      	str	r3, [r2, #0]

  /* Disable all interrupts */
  RCC->CIR = 0x00000000;
200042a8:	4b05      	ldr	r3, [pc, #20]	@ (200042c0 <RCC_DeInit+0x60>)
200042aa:	2200      	movs	r2, #0
200042ac:	60da      	str	r2, [r3, #12]

  /* Disable Timers clock prescalers selection, only available for STM32F42/43xxx devices */
  RCC->DCKCFGR = 0x00000000; 
200042ae:	4b04      	ldr	r3, [pc, #16]	@ (200042c0 <RCC_DeInit+0x60>)
200042b0:	2200      	movs	r2, #0
200042b2:	f8c3 208c 	str.w	r2, [r3, #140]	@ 0x8c

}
200042b6:	bf00      	nop
200042b8:	46bd      	mov	sp, r7
200042ba:	f85d 7b04 	ldr.w	r7, [sp], #4
200042be:	4770      	bx	lr
200042c0:	40023800 	.word	0x40023800
200042c4:	24003010 	.word	0x24003010
200042c8:	20003000 	.word	0x20003000
200042cc:	24003000 	.word	0x24003000

200042d0 <RCC_HSEConfig>:
  *            @arg RCC_HSE_ON: turn ON the HSE oscillator
  *            @arg RCC_HSE_Bypass: HSE oscillator bypassed with external clock
  * @retval None
  */
void RCC_HSEConfig(uint8_t RCC_HSE)
{
200042d0:	b480      	push	{r7}
200042d2:	b083      	sub	sp, #12
200042d4:	af00      	add	r7, sp, #0
200042d6:	4603      	mov	r3, r0
200042d8:	71fb      	strb	r3, [r7, #7]
  /* Check the parameters */
  assert_param(IS_RCC_HSE(RCC_HSE));

  /* Reset HSEON and HSEBYP bits before configuring the HSE ------------------*/
  *(__IO uint8_t *) CR_BYTE3_ADDRESS = RCC_HSE_OFF;
200042da:	4b06      	ldr	r3, [pc, #24]	@ (200042f4 <RCC_HSEConfig+0x24>)
200042dc:	2200      	movs	r2, #0
200042de:	701a      	strb	r2, [r3, #0]

  /* Set the new HSE configuration -------------------------------------------*/
  *(__IO uint8_t *) CR_BYTE3_ADDRESS = RCC_HSE;
200042e0:	4a04      	ldr	r2, [pc, #16]	@ (200042f4 <RCC_HSEConfig+0x24>)
200042e2:	79fb      	ldrb	r3, [r7, #7]
200042e4:	7013      	strb	r3, [r2, #0]
}
200042e6:	bf00      	nop
200042e8:	370c      	adds	r7, #12
200042ea:	46bd      	mov	sp, r7
200042ec:	f85d 7b04 	ldr.w	r7, [sp], #4
200042f0:	4770      	bx	lr
200042f2:	bf00      	nop
200042f4:	40023802 	.word	0x40023802

200042f8 <RCC_WaitForHSEStartUp>:
  * @retval An ErrorStatus enumeration value:
  *          - SUCCESS: HSE oscillator is stable and ready to use
  *          - ERROR: HSE oscillator not yet ready
  */
ErrorStatus RCC_WaitForHSEStartUp(void)
{
200042f8:	b580      	push	{r7, lr}
200042fa:	b082      	sub	sp, #8
200042fc:	af00      	add	r7, sp, #0
  __IO uint32_t startupcounter = 0;
200042fe:	2300      	movs	r3, #0
20004300:	603b      	str	r3, [r7, #0]
  ErrorStatus status = ERROR;
20004302:	2300      	movs	r3, #0
20004304:	71fb      	strb	r3, [r7, #7]
  FlagStatus hsestatus = RESET;
20004306:	2300      	movs	r3, #0
20004308:	71bb      	strb	r3, [r7, #6]
  /* Wait till HSE is ready and if Time out is reached exit */
  do
  {
    hsestatus = RCC_GetFlagStatus(RCC_FLAG_HSERDY);
2000430a:	2031      	movs	r0, #49	@ 0x31
2000430c:	f000 fd8a 	bl	20004e24 <RCC_GetFlagStatus>
20004310:	4603      	mov	r3, r0
20004312:	71bb      	strb	r3, [r7, #6]
    startupcounter++;
20004314:	683b      	ldr	r3, [r7, #0]
20004316:	3301      	adds	r3, #1
20004318:	603b      	str	r3, [r7, #0]
  } while((startupcounter != HSE_STARTUP_TIMEOUT) && (hsestatus == RESET));
2000431a:	683b      	ldr	r3, [r7, #0]
2000431c:	f5b3 4fa0 	cmp.w	r3, #20480	@ 0x5000
20004320:	d002      	beq.n	20004328 <RCC_WaitForHSEStartUp+0x30>
20004322:	79bb      	ldrb	r3, [r7, #6]
20004324:	2b00      	cmp	r3, #0
20004326:	d0f0      	beq.n	2000430a <RCC_WaitForHSEStartUp+0x12>

  if (RCC_GetFlagStatus(RCC_FLAG_HSERDY) != RESET)
20004328:	2031      	movs	r0, #49	@ 0x31
2000432a:	f000 fd7b 	bl	20004e24 <RCC_GetFlagStatus>
2000432e:	4603      	mov	r3, r0
20004330:	2b00      	cmp	r3, #0
20004332:	d002      	beq.n	2000433a <RCC_WaitForHSEStartUp+0x42>
  {
    status = SUCCESS;
20004334:	2301      	movs	r3, #1
20004336:	71fb      	strb	r3, [r7, #7]
20004338:	e001      	b.n	2000433e <RCC_WaitForHSEStartUp+0x46>
  }
  else
  {
    status = ERROR;
2000433a:	2300      	movs	r3, #0
2000433c:	71fb      	strb	r3, [r7, #7]
  }
  return (status);
2000433e:	79fb      	ldrb	r3, [r7, #7]
}
20004340:	4618      	mov	r0, r3
20004342:	3708      	adds	r7, #8
20004344:	46bd      	mov	sp, r7
20004346:	bd80      	pop	{r7, pc}

20004348 <RCC_AdjustHSICalibrationValue>:
  * @param  HSICalibrationValue: specifies the calibration trimming value.
  *         This parameter must be a number between 0 and 0x1F.
  * @retval None
  */
void RCC_AdjustHSICalibrationValue(uint8_t HSICalibrationValue)
{
20004348:	b480      	push	{r7}
2000434a:	b085      	sub	sp, #20
2000434c:	af00      	add	r7, sp, #0
2000434e:	4603      	mov	r3, r0
20004350:	71fb      	strb	r3, [r7, #7]
  uint32_t tmpreg = 0;
20004352:	2300      	movs	r3, #0
20004354:	60fb      	str	r3, [r7, #12]
  /* Check the parameters */
  assert_param(IS_RCC_CALIBRATION_VALUE(HSICalibrationValue));

  tmpreg = RCC->CR;
20004356:	4b0a      	ldr	r3, [pc, #40]	@ (20004380 <RCC_AdjustHSICalibrationValue+0x38>)
20004358:	681b      	ldr	r3, [r3, #0]
2000435a:	60fb      	str	r3, [r7, #12]

  /* Clear HSITRIM[4:0] bits */
  tmpreg &= ~RCC_CR_HSITRIM;
2000435c:	68fb      	ldr	r3, [r7, #12]
2000435e:	f023 03f8 	bic.w	r3, r3, #248	@ 0xf8
20004362:	60fb      	str	r3, [r7, #12]

  /* Set the HSITRIM[4:0] bits according to HSICalibrationValue value */
  tmpreg |= (uint32_t)HSICalibrationValue << 3;
20004364:	79fb      	ldrb	r3, [r7, #7]
20004366:	00db      	lsls	r3, r3, #3
20004368:	68fa      	ldr	r2, [r7, #12]
2000436a:	4313      	orrs	r3, r2
2000436c:	60fb      	str	r3, [r7, #12]

  /* Store the new value */
  RCC->CR = tmpreg;
2000436e:	4a04      	ldr	r2, [pc, #16]	@ (20004380 <RCC_AdjustHSICalibrationValue+0x38>)
20004370:	68fb      	ldr	r3, [r7, #12]
20004372:	6013      	str	r3, [r2, #0]
}
20004374:	bf00      	nop
20004376:	3714      	adds	r7, #20
20004378:	46bd      	mov	sp, r7
2000437a:	f85d 7b04 	ldr.w	r7, [sp], #4
2000437e:	4770      	bx	lr
20004380:	40023800 	.word	0x40023800

20004384 <RCC_HSICmd>:
  * @note   When the HSI is stopped, HSIRDY flag goes low after 6 HSI oscillator
  *         clock cycles.  
  * @retval None
  */
void RCC_HSICmd(FunctionalState NewState)
{
20004384:	b480      	push	{r7}
20004386:	b083      	sub	sp, #12
20004388:	af00      	add	r7, sp, #0
2000438a:	4603      	mov	r3, r0
2000438c:	71fb      	strb	r3, [r7, #7]
  /* Check the parameters */
  assert_param(IS_FUNCTIONAL_STATE(NewState));

  *(__IO uint32_t *) CR_HSION_BB = (uint32_t)NewState;
2000438e:	4a04      	ldr	r2, [pc, #16]	@ (200043a0 <RCC_HSICmd+0x1c>)
20004390:	79fb      	ldrb	r3, [r7, #7]
20004392:	6013      	str	r3, [r2, #0]
}
20004394:	bf00      	nop
20004396:	370c      	adds	r7, #12
20004398:	46bd      	mov	sp, r7
2000439a:	f85d 7b04 	ldr.w	r7, [sp], #4
2000439e:	4770      	bx	lr
200043a0:	42470000 	.word	0x42470000

200043a4 <RCC_LSEConfig>:
  *            @arg RCC_LSE_ON: turn ON the LSE oscillator
  *            @arg RCC_LSE_Bypass: LSE oscillator bypassed with external clock
  * @retval None
  */
void RCC_LSEConfig(uint8_t RCC_LSE)
{
200043a4:	b480      	push	{r7}
200043a6:	b083      	sub	sp, #12
200043a8:	af00      	add	r7, sp, #0
200043aa:	4603      	mov	r3, r0
200043ac:	71fb      	strb	r3, [r7, #7]
  /* Check the parameters */
  assert_param(IS_RCC_LSE(RCC_LSE));

  /* Reset LSEON and LSEBYP bits before configuring the LSE ------------------*/
  /* Reset LSEON bit */
  *(__IO uint8_t *) BDCR_ADDRESS = RCC_LSE_OFF;
200043ae:	4b0d      	ldr	r3, [pc, #52]	@ (200043e4 <RCC_LSEConfig+0x40>)
200043b0:	2200      	movs	r2, #0
200043b2:	701a      	strb	r2, [r3, #0]

  /* Reset LSEBYP bit */
  *(__IO uint8_t *) BDCR_ADDRESS = RCC_LSE_OFF;
200043b4:	4b0b      	ldr	r3, [pc, #44]	@ (200043e4 <RCC_LSEConfig+0x40>)
200043b6:	2200      	movs	r2, #0
200043b8:	701a      	strb	r2, [r3, #0]

  /* Configure LSE (RCC_LSE_OFF is already covered by the code section above) */
  switch (RCC_LSE)
200043ba:	79fb      	ldrb	r3, [r7, #7]
200043bc:	2b01      	cmp	r3, #1
200043be:	d002      	beq.n	200043c6 <RCC_LSEConfig+0x22>
200043c0:	2b04      	cmp	r3, #4
200043c2:	d004      	beq.n	200043ce <RCC_LSEConfig+0x2a>
    case RCC_LSE_Bypass:
      /* Set LSEBYP and LSEON bits */
      *(__IO uint8_t *) BDCR_ADDRESS = RCC_LSE_Bypass | RCC_LSE_ON;
      break;
    default:
      break;
200043c4:	e007      	b.n	200043d6 <RCC_LSEConfig+0x32>
      *(__IO uint8_t *) BDCR_ADDRESS = RCC_LSE_ON;
200043c6:	4b07      	ldr	r3, [pc, #28]	@ (200043e4 <RCC_LSEConfig+0x40>)
200043c8:	2201      	movs	r2, #1
200043ca:	701a      	strb	r2, [r3, #0]
      break;
200043cc:	e003      	b.n	200043d6 <RCC_LSEConfig+0x32>
      *(__IO uint8_t *) BDCR_ADDRESS = RCC_LSE_Bypass | RCC_LSE_ON;
200043ce:	4b05      	ldr	r3, [pc, #20]	@ (200043e4 <RCC_LSEConfig+0x40>)
200043d0:	2205      	movs	r2, #5
200043d2:	701a      	strb	r2, [r3, #0]
      break;
200043d4:	bf00      	nop
  }
}
200043d6:	bf00      	nop
200043d8:	370c      	adds	r7, #12
200043da:	46bd      	mov	sp, r7
200043dc:	f85d 7b04 	ldr.w	r7, [sp], #4
200043e0:	4770      	bx	lr
200043e2:	bf00      	nop
200043e4:	40023870 	.word	0x40023870

200043e8 <RCC_LSICmd>:
  * @note   When the LSI is stopped, LSIRDY flag goes low after 6 LSI oscillator
  *         clock cycles. 
  * @retval None
  */
void RCC_LSICmd(FunctionalState NewState)
{
200043e8:	b480      	push	{r7}
200043ea:	b083      	sub	sp, #12
200043ec:	af00      	add	r7, sp, #0
200043ee:	4603      	mov	r3, r0
200043f0:	71fb      	strb	r3, [r7, #7]
  /* Check the parameters */
  assert_param(IS_FUNCTIONAL_STATE(NewState));

  *(__IO uint32_t *) CSR_LSION_BB = (uint32_t)NewState;
200043f2:	4a04      	ldr	r2, [pc, #16]	@ (20004404 <RCC_LSICmd+0x1c>)
200043f4:	79fb      	ldrb	r3, [r7, #7]
200043f6:	6013      	str	r3, [r2, #0]
}
200043f8:	bf00      	nop
200043fa:	370c      	adds	r7, #12
200043fc:	46bd      	mov	sp, r7
200043fe:	f85d 7b04 	ldr.w	r7, [sp], #4
20004402:	4770      	bx	lr
20004404:	42470e80 	.word	0x42470e80

20004408 <RCC_PLLConfig>:
  *         correctly.
  *   
  * @retval None
  */
void RCC_PLLConfig(uint32_t RCC_PLLSource, uint32_t PLLM, uint32_t PLLN, uint32_t PLLP, uint32_t PLLQ)
{
20004408:	b480      	push	{r7}
2000440a:	b085      	sub	sp, #20
2000440c:	af00      	add	r7, sp, #0
2000440e:	60f8      	str	r0, [r7, #12]
20004410:	60b9      	str	r1, [r7, #8]
20004412:	607a      	str	r2, [r7, #4]
20004414:	603b      	str	r3, [r7, #0]
  assert_param(IS_RCC_PLLM_VALUE(PLLM));
  assert_param(IS_RCC_PLLN_VALUE(PLLN));
  assert_param(IS_RCC_PLLP_VALUE(PLLP));
  assert_param(IS_RCC_PLLQ_VALUE(PLLQ));

  RCC->PLLCFGR = PLLM | (PLLN << 6) | (((PLLP >> 1) -1) << 16) | (RCC_PLLSource) |
20004416:	687b      	ldr	r3, [r7, #4]
20004418:	019a      	lsls	r2, r3, #6
2000441a:	68bb      	ldr	r3, [r7, #8]
2000441c:	431a      	orrs	r2, r3
2000441e:	683b      	ldr	r3, [r7, #0]
20004420:	085b      	lsrs	r3, r3, #1
20004422:	3b01      	subs	r3, #1
20004424:	041b      	lsls	r3, r3, #16
20004426:	431a      	orrs	r2, r3
20004428:	68fb      	ldr	r3, [r7, #12]
2000442a:	431a      	orrs	r2, r3
                 (PLLQ << 24);
2000442c:	69bb      	ldr	r3, [r7, #24]
2000442e:	061b      	lsls	r3, r3, #24
  RCC->PLLCFGR = PLLM | (PLLN << 6) | (((PLLP >> 1) -1) << 16) | (RCC_PLLSource) |
20004430:	4904      	ldr	r1, [pc, #16]	@ (20004444 <RCC_PLLConfig+0x3c>)
20004432:	4313      	orrs	r3, r2
20004434:	604b      	str	r3, [r1, #4]
}
20004436:	bf00      	nop
20004438:	3714      	adds	r7, #20
2000443a:	46bd      	mov	sp, r7
2000443c:	f85d 7b04 	ldr.w	r7, [sp], #4
20004440:	4770      	bx	lr
20004442:	bf00      	nop
20004444:	40023800 	.word	0x40023800

20004448 <RCC_PLLCmd>:
  * @note   The main PLL is disabled by hardware when entering STOP and STANDBY modes.
  * @param  NewState: new state of the main PLL. This parameter can be: ENABLE or DISABLE.
  * @retval None
  */
void RCC_PLLCmd(FunctionalState NewState)
{
20004448:	b480      	push	{r7}
2000444a:	b083      	sub	sp, #12
2000444c:	af00      	add	r7, sp, #0
2000444e:	4603      	mov	r3, r0
20004450:	71fb      	strb	r3, [r7, #7]
  /* Check the parameters */
  assert_param(IS_FUNCTIONAL_STATE(NewState));
  *(__IO uint32_t *) CR_PLLON_BB = (uint32_t)NewState;
20004452:	4a04      	ldr	r2, [pc, #16]	@ (20004464 <RCC_PLLCmd+0x1c>)
20004454:	79fb      	ldrb	r3, [r7, #7]
20004456:	6013      	str	r3, [r2, #0]
}
20004458:	bf00      	nop
2000445a:	370c      	adds	r7, #12
2000445c:	46bd      	mov	sp, r7
2000445e:	f85d 7b04 	ldr.w	r7, [sp], #4
20004462:	4770      	bx	lr
20004464:	42470060 	.word	0x42470060

20004468 <RCC_PLLI2SConfig>:
  *         on the I2S clock frequency.
  *   
  * @retval None
  */
void RCC_PLLI2SConfig(uint32_t PLLI2SN, uint32_t PLLI2SR)
{
20004468:	b480      	push	{r7}
2000446a:	b083      	sub	sp, #12
2000446c:	af00      	add	r7, sp, #0
2000446e:	6078      	str	r0, [r7, #4]
20004470:	6039      	str	r1, [r7, #0]
  /* Check the parameters */
  assert_param(IS_RCC_PLLI2SN_VALUE(PLLI2SN));
  assert_param(IS_RCC_PLLI2SR_VALUE(PLLI2SR));

  RCC->PLLI2SCFGR = (PLLI2SN << 6) | (PLLI2SR << 28);
20004472:	687b      	ldr	r3, [r7, #4]
20004474:	019a      	lsls	r2, r3, #6
20004476:	683b      	ldr	r3, [r7, #0]
20004478:	071b      	lsls	r3, r3, #28
2000447a:	4905      	ldr	r1, [pc, #20]	@ (20004490 <RCC_PLLI2SConfig+0x28>)
2000447c:	4313      	orrs	r3, r2
2000447e:	f8c1 3084 	str.w	r3, [r1, #132]	@ 0x84
}
20004482:	bf00      	nop
20004484:	370c      	adds	r7, #12
20004486:	46bd      	mov	sp, r7
20004488:	f85d 7b04 	ldr.w	r7, [sp], #4
2000448c:	4770      	bx	lr
2000448e:	bf00      	nop
20004490:	40023800 	.word	0x40023800

20004494 <RCC_PLLI2SCmd>:
  * @note   The PLLI2S is disabled by hardware when entering STOP and STANDBY modes.  
  * @param  NewState: new state of the PLLI2S. This parameter can be: ENABLE or DISABLE.
  * @retval None
  */
void RCC_PLLI2SCmd(FunctionalState NewState)
{
20004494:	b480      	push	{r7}
20004496:	b083      	sub	sp, #12
20004498:	af00      	add	r7, sp, #0
2000449a:	4603      	mov	r3, r0
2000449c:	71fb      	strb	r3, [r7, #7]
  /* Check the parameters */
  assert_param(IS_FUNCTIONAL_STATE(NewState));
  *(__IO uint32_t *) CR_PLLI2SON_BB = (uint32_t)NewState;
2000449e:	4a04      	ldr	r2, [pc, #16]	@ (200044b0 <RCC_PLLI2SCmd+0x1c>)
200044a0:	79fb      	ldrb	r3, [r7, #7]
200044a2:	6013      	str	r3, [r2, #0]
}
200044a4:	bf00      	nop
200044a6:	370c      	adds	r7, #12
200044a8:	46bd      	mov	sp, r7
200044aa:	f85d 7b04 	ldr.w	r7, [sp], #4
200044ae:	4770      	bx	lr
200044b0:	42470068 	.word	0x42470068

200044b4 <RCC_PLLSAIConfig>:
  *          This parameter must be a number between 2 and 7.
  *   
  * @retval None
  */
void RCC_PLLSAIConfig(uint32_t PLLSAIN, uint32_t PLLSAIQ, uint32_t PLLSAIR)
{
200044b4:	b480      	push	{r7}
200044b6:	b085      	sub	sp, #20
200044b8:	af00      	add	r7, sp, #0
200044ba:	60f8      	str	r0, [r7, #12]
200044bc:	60b9      	str	r1, [r7, #8]
200044be:	607a      	str	r2, [r7, #4]
  /* Check the parameters */
  assert_param(IS_RCC_PLLSAIN_VALUE(PLLSAIN));
  assert_param(IS_RCC_PLLSAIR_VALUE(PLLSAIR));

  RCC->PLLSAICFGR = (PLLSAIN << 6) | (PLLSAIQ << 24) | (PLLSAIR << 28);
200044c0:	68fb      	ldr	r3, [r7, #12]
200044c2:	019a      	lsls	r2, r3, #6
200044c4:	68bb      	ldr	r3, [r7, #8]
200044c6:	061b      	lsls	r3, r3, #24
200044c8:	431a      	orrs	r2, r3
200044ca:	687b      	ldr	r3, [r7, #4]
200044cc:	071b      	lsls	r3, r3, #28
200044ce:	4905      	ldr	r1, [pc, #20]	@ (200044e4 <RCC_PLLSAIConfig+0x30>)
200044d0:	4313      	orrs	r3, r2
200044d2:	f8c1 3088 	str.w	r3, [r1, #136]	@ 0x88
}
200044d6:	bf00      	nop
200044d8:	3714      	adds	r7, #20
200044da:	46bd      	mov	sp, r7
200044dc:	f85d 7b04 	ldr.w	r7, [sp], #4
200044e0:	4770      	bx	lr
200044e2:	bf00      	nop
200044e4:	40023800 	.word	0x40023800

200044e8 <RCC_PLLSAICmd>:
  * @note   The PLLSAI is disabled by hardware when entering STOP and STANDBY modes.  
  * @param  NewState: new state of the PLLSAI. This parameter can be: ENABLE or DISABLE.
  * @retval None
  */
void RCC_PLLSAICmd(FunctionalState NewState)
{
200044e8:	b480      	push	{r7}
200044ea:	b083      	sub	sp, #12
200044ec:	af00      	add	r7, sp, #0
200044ee:	4603      	mov	r3, r0
200044f0:	71fb      	strb	r3, [r7, #7]
  /* Check the parameters */
  assert_param(IS_FUNCTIONAL_STATE(NewState));
  *(__IO uint32_t *) CR_PLLSAION_BB = (uint32_t)NewState;
200044f2:	4a04      	ldr	r2, [pc, #16]	@ (20004504 <RCC_PLLSAICmd+0x1c>)
200044f4:	79fb      	ldrb	r3, [r7, #7]
200044f6:	6013      	str	r3, [r2, #0]
}
200044f8:	bf00      	nop
200044fa:	370c      	adds	r7, #12
200044fc:	46bd      	mov	sp, r7
200044fe:	f85d 7b04 	ldr.w	r7, [sp], #4
20004502:	4770      	bx	lr
20004504:	42470070 	.word	0x42470070

20004508 <RCC_ClockSecuritySystemCmd>:
  * @param  NewState: new state of the Clock Security System.
  *         This parameter can be: ENABLE or DISABLE.
  * @retval None
  */
void RCC_ClockSecuritySystemCmd(FunctionalState NewState)
{
20004508:	b480      	push	{r7}
2000450a:	b083      	sub	sp, #12
2000450c:	af00      	add	r7, sp, #0
2000450e:	4603      	mov	r3, r0
20004510:	71fb      	strb	r3, [r7, #7]
  /* Check the parameters */
  assert_param(IS_FUNCTIONAL_STATE(NewState));
  *(__IO uint32_t *) CR_CSSON_BB = (uint32_t)NewState;
20004512:	4a04      	ldr	r2, [pc, #16]	@ (20004524 <RCC_ClockSecuritySystemCmd+0x1c>)
20004514:	79fb      	ldrb	r3, [r7, #7]
20004516:	6013      	str	r3, [r2, #0]
}
20004518:	bf00      	nop
2000451a:	370c      	adds	r7, #12
2000451c:	46bd      	mov	sp, r7
2000451e:	f85d 7b04 	ldr.w	r7, [sp], #4
20004522:	4770      	bx	lr
20004524:	4247004c 	.word	0x4247004c

20004528 <RCC_MCO1Config>:
  *            @arg RCC_MCO1Div_4: division by 4 applied to MCO1 clock
  *            @arg RCC_MCO1Div_5: division by 5 applied to MCO1 clock
  * @retval None
  */
void RCC_MCO1Config(uint32_t RCC_MCO1Source, uint32_t RCC_MCO1Div)
{
20004528:	b480      	push	{r7}
2000452a:	b085      	sub	sp, #20
2000452c:	af00      	add	r7, sp, #0
2000452e:	6078      	str	r0, [r7, #4]
20004530:	6039      	str	r1, [r7, #0]
  uint32_t tmpreg = 0;
20004532:	2300      	movs	r3, #0
20004534:	60fb      	str	r3, [r7, #12]
  
  /* Check the parameters */
  assert_param(IS_RCC_MCO1SOURCE(RCC_MCO1Source));
  assert_param(IS_RCC_MCO1DIV(RCC_MCO1Div));  

  tmpreg = RCC->CFGR;
20004536:	4b0b      	ldr	r3, [pc, #44]	@ (20004564 <RCC_MCO1Config+0x3c>)
20004538:	689b      	ldr	r3, [r3, #8]
2000453a:	60fb      	str	r3, [r7, #12]

  /* Clear MCO1[1:0] and MCO1PRE[2:0] bits */
  tmpreg &= CFGR_MCO1_RESET_MASK;
2000453c:	68fb      	ldr	r3, [r7, #12]
2000453e:	f023 63ec 	bic.w	r3, r3, #123731968	@ 0x7600000
20004542:	60fb      	str	r3, [r7, #12]

  /* Select MCO1 clock source and prescaler */
  tmpreg |= RCC_MCO1Source | RCC_MCO1Div;
20004544:	687a      	ldr	r2, [r7, #4]
20004546:	683b      	ldr	r3, [r7, #0]
20004548:	4313      	orrs	r3, r2
2000454a:	68fa      	ldr	r2, [r7, #12]
2000454c:	4313      	orrs	r3, r2
2000454e:	60fb      	str	r3, [r7, #12]

  /* Store the new value */
  RCC->CFGR = tmpreg;  
20004550:	4a04      	ldr	r2, [pc, #16]	@ (20004564 <RCC_MCO1Config+0x3c>)
20004552:	68fb      	ldr	r3, [r7, #12]
20004554:	6093      	str	r3, [r2, #8]
}
20004556:	bf00      	nop
20004558:	3714      	adds	r7, #20
2000455a:	46bd      	mov	sp, r7
2000455c:	f85d 7b04 	ldr.w	r7, [sp], #4
20004560:	4770      	bx	lr
20004562:	bf00      	nop
20004564:	40023800 	.word	0x40023800

20004568 <RCC_MCO2Config>:
  *            @arg RCC_MCO2Div_4: division by 4 applied to MCO2 clock
  *            @arg RCC_MCO2Div_5: division by 5 applied to MCO2 clock
  * @retval None
  */
void RCC_MCO2Config(uint32_t RCC_MCO2Source, uint32_t RCC_MCO2Div)
{
20004568:	b480      	push	{r7}
2000456a:	b085      	sub	sp, #20
2000456c:	af00      	add	r7, sp, #0
2000456e:	6078      	str	r0, [r7, #4]
20004570:	6039      	str	r1, [r7, #0]
  uint32_t tmpreg = 0;
20004572:	2300      	movs	r3, #0
20004574:	60fb      	str	r3, [r7, #12]
  
  /* Check the parameters */
  assert_param(IS_RCC_MCO2SOURCE(RCC_MCO2Source));
  assert_param(IS_RCC_MCO2DIV(RCC_MCO2Div));
  
  tmpreg = RCC->CFGR;
20004576:	4b0b      	ldr	r3, [pc, #44]	@ (200045a4 <RCC_MCO2Config+0x3c>)
20004578:	689b      	ldr	r3, [r3, #8]
2000457a:	60fb      	str	r3, [r7, #12]
  
  /* Clear MCO2 and MCO2PRE[2:0] bits */
  tmpreg &= CFGR_MCO2_RESET_MASK;
2000457c:	68fb      	ldr	r3, [r7, #12]
2000457e:	f023 4378 	bic.w	r3, r3, #4160749568	@ 0xf8000000
20004582:	60fb      	str	r3, [r7, #12]

  /* Select MCO2 clock source and prescaler */
  tmpreg |= RCC_MCO2Source | RCC_MCO2Div;
20004584:	687a      	ldr	r2, [r7, #4]
20004586:	683b      	ldr	r3, [r7, #0]
20004588:	4313      	orrs	r3, r2
2000458a:	68fa      	ldr	r2, [r7, #12]
2000458c:	4313      	orrs	r3, r2
2000458e:	60fb      	str	r3, [r7, #12]

  /* Store the new value */
  RCC->CFGR = tmpreg;  
20004590:	4a04      	ldr	r2, [pc, #16]	@ (200045a4 <RCC_MCO2Config+0x3c>)
20004592:	68fb      	ldr	r3, [r7, #12]
20004594:	6093      	str	r3, [r2, #8]
}
20004596:	bf00      	nop
20004598:	3714      	adds	r7, #20
2000459a:	46bd      	mov	sp, r7
2000459c:	f85d 7b04 	ldr.w	r7, [sp], #4
200045a0:	4770      	bx	lr
200045a2:	bf00      	nop
200045a4:	40023800 	.word	0x40023800

200045a8 <RCC_SYSCLKConfig>:
  *            @arg RCC_SYSCLKSource_HSE:    HSE selected as system clock source
  *            @arg RCC_SYSCLKSource_PLLCLK: PLL selected as system clock source
  * @retval None
  */
void RCC_SYSCLKConfig(uint32_t RCC_SYSCLKSource)
{
200045a8:	b480      	push	{r7}
200045aa:	b085      	sub	sp, #20
200045ac:	af00      	add	r7, sp, #0
200045ae:	6078      	str	r0, [r7, #4]
  uint32_t tmpreg = 0;
200045b0:	2300      	movs	r3, #0
200045b2:	60fb      	str	r3, [r7, #12]

  /* Check the parameters */
  assert_param(IS_RCC_SYSCLK_SOURCE(RCC_SYSCLKSource));

  tmpreg = RCC->CFGR;
200045b4:	4b09      	ldr	r3, [pc, #36]	@ (200045dc <RCC_SYSCLKConfig+0x34>)
200045b6:	689b      	ldr	r3, [r3, #8]
200045b8:	60fb      	str	r3, [r7, #12]

  /* Clear SW[1:0] bits */
  tmpreg &= ~RCC_CFGR_SW;
200045ba:	68fb      	ldr	r3, [r7, #12]
200045bc:	f023 0303 	bic.w	r3, r3, #3
200045c0:	60fb      	str	r3, [r7, #12]

  /* Set SW[1:0] bits according to RCC_SYSCLKSource value */
  tmpreg |= RCC_SYSCLKSource;
200045c2:	68fa      	ldr	r2, [r7, #12]
200045c4:	687b      	ldr	r3, [r7, #4]
200045c6:	4313      	orrs	r3, r2
200045c8:	60fb      	str	r3, [r7, #12]

  /* Store the new value */
  RCC->CFGR = tmpreg;
200045ca:	4a04      	ldr	r2, [pc, #16]	@ (200045dc <RCC_SYSCLKConfig+0x34>)
200045cc:	68fb      	ldr	r3, [r7, #12]
200045ce:	6093      	str	r3, [r2, #8]
}
200045d0:	bf00      	nop
200045d2:	3714      	adds	r7, #20
200045d4:	46bd      	mov	sp, r7
200045d6:	f85d 7b04 	ldr.w	r7, [sp], #4
200045da:	4770      	bx	lr
200045dc:	40023800 	.word	0x40023800

200045e0 <RCC_GetSYSCLKSource>:
  *              - 0x00: HSI used as system clock
  *              - 0x04: HSE used as system clock
  *              - 0x08: PLL used as system clock
  */
uint8_t RCC_GetSYSCLKSource(void)
{
200045e0:	b480      	push	{r7}
200045e2:	af00      	add	r7, sp, #0
  return ((uint8_t)(RCC->CFGR & RCC_CFGR_SWS));
200045e4:	4b05      	ldr	r3, [pc, #20]	@ (200045fc <RCC_GetSYSCLKSource+0x1c>)
200045e6:	689b      	ldr	r3, [r3, #8]
200045e8:	b2db      	uxtb	r3, r3
200045ea:	f003 030c 	and.w	r3, r3, #12
200045ee:	b2db      	uxtb	r3, r3
}
200045f0:	4618      	mov	r0, r3
200045f2:	46bd      	mov	sp, r7
200045f4:	f85d 7b04 	ldr.w	r7, [sp], #4
200045f8:	4770      	bx	lr
200045fa:	bf00      	nop
200045fc:	40023800 	.word	0x40023800

20004600 <RCC_HCLKConfig>:
  *            @arg RCC_SYSCLK_Div256: AHB clock = SYSCLK/256
  *            @arg RCC_SYSCLK_Div512: AHB clock = SYSCLK/512
  * @retval None
  */
void RCC_HCLKConfig(uint32_t RCC_SYSCLK)
{
20004600:	b480      	push	{r7}
20004602:	b085      	sub	sp, #20
20004604:	af00      	add	r7, sp, #0
20004606:	6078      	str	r0, [r7, #4]
  uint32_t tmpreg = 0;
20004608:	2300      	movs	r3, #0
2000460a:	60fb      	str	r3, [r7, #12]
  
  /* Check the parameters */
  assert_param(IS_RCC_HCLK(RCC_SYSCLK));

  tmpreg = RCC->CFGR;
2000460c:	4b09      	ldr	r3, [pc, #36]	@ (20004634 <RCC_HCLKConfig+0x34>)
2000460e:	689b      	ldr	r3, [r3, #8]
20004610:	60fb      	str	r3, [r7, #12]

  /* Clear HPRE[3:0] bits */
  tmpreg &= ~RCC_CFGR_HPRE;
20004612:	68fb      	ldr	r3, [r7, #12]
20004614:	f023 03f0 	bic.w	r3, r3, #240	@ 0xf0
20004618:	60fb      	str	r3, [r7, #12]

  /* Set HPRE[3:0] bits according to RCC_SYSCLK value */
  tmpreg |= RCC_SYSCLK;
2000461a:	68fa      	ldr	r2, [r7, #12]
2000461c:	687b      	ldr	r3, [r7, #4]
2000461e:	4313      	orrs	r3, r2
20004620:	60fb      	str	r3, [r7, #12]

  /* Store the new value */
  RCC->CFGR = tmpreg;
20004622:	4a04      	ldr	r2, [pc, #16]	@ (20004634 <RCC_HCLKConfig+0x34>)
20004624:	68fb      	ldr	r3, [r7, #12]
20004626:	6093      	str	r3, [r2, #8]
}
20004628:	bf00      	nop
2000462a:	3714      	adds	r7, #20
2000462c:	46bd      	mov	sp, r7
2000462e:	f85d 7b04 	ldr.w	r7, [sp], #4
20004632:	4770      	bx	lr
20004634:	40023800 	.word	0x40023800

20004638 <RCC_PCLK1Config>:
  *            @arg RCC_HCLK_Div8:  APB1 clock = HCLK/8
  *            @arg RCC_HCLK_Div16: APB1 clock = HCLK/16
  * @retval None
  */
void RCC_PCLK1Config(uint32_t RCC_HCLK)
{
20004638:	b480      	push	{r7}
2000463a:	b085      	sub	sp, #20
2000463c:	af00      	add	r7, sp, #0
2000463e:	6078      	str	r0, [r7, #4]
  uint32_t tmpreg = 0;
20004640:	2300      	movs	r3, #0
20004642:	60fb      	str	r3, [r7, #12]

  /* Check the parameters */
  assert_param(IS_RCC_PCLK(RCC_HCLK));

  tmpreg = RCC->CFGR;
20004644:	4b09      	ldr	r3, [pc, #36]	@ (2000466c <RCC_PCLK1Config+0x34>)
20004646:	689b      	ldr	r3, [r3, #8]
20004648:	60fb      	str	r3, [r7, #12]

  /* Clear PPRE1[2:0] bits */
  tmpreg &= ~RCC_CFGR_PPRE1;
2000464a:	68fb      	ldr	r3, [r7, #12]
2000464c:	f423 53e0 	bic.w	r3, r3, #7168	@ 0x1c00
20004650:	60fb      	str	r3, [r7, #12]

  /* Set PPRE1[2:0] bits according to RCC_HCLK value */
  tmpreg |= RCC_HCLK;
20004652:	68fa      	ldr	r2, [r7, #12]
20004654:	687b      	ldr	r3, [r7, #4]
20004656:	4313      	orrs	r3, r2
20004658:	60fb      	str	r3, [r7, #12]

  /* Store the new value */
  RCC->CFGR = tmpreg;
2000465a:	4a04      	ldr	r2, [pc, #16]	@ (2000466c <RCC_PCLK1Config+0x34>)
2000465c:	68fb      	ldr	r3, [r7, #12]
2000465e:	6093      	str	r3, [r2, #8]
}
20004660:	bf00      	nop
20004662:	3714      	adds	r7, #20
20004664:	46bd      	mov	sp, r7
20004666:	f85d 7b04 	ldr.w	r7, [sp], #4
2000466a:	4770      	bx	lr
2000466c:	40023800 	.word	0x40023800

20004670 <RCC_PCLK2Config>:
  *            @arg RCC_HCLK_Div8:  APB2 clock = HCLK/8
  *            @arg RCC_HCLK_Div16: APB2 clock = HCLK/16
  * @retval None
  */
void RCC_PCLK2Config(uint32_t RCC_HCLK)
{
20004670:	b480      	push	{r7}
20004672:	b085      	sub	sp, #20
20004674:	af00      	add	r7, sp, #0
20004676:	6078      	str	r0, [r7, #4]
  uint32_t tmpreg = 0;
20004678:	2300      	movs	r3, #0
2000467a:	60fb      	str	r3, [r7, #12]

  /* Check the parameters */
  assert_param(IS_RCC_PCLK(RCC_HCLK));

  tmpreg = RCC->CFGR;
2000467c:	4b0a      	ldr	r3, [pc, #40]	@ (200046a8 <RCC_PCLK2Config+0x38>)
2000467e:	689b      	ldr	r3, [r3, #8]
20004680:	60fb      	str	r3, [r7, #12]

  /* Clear PPRE2[2:0] bits */
  tmpreg &= ~RCC_CFGR_PPRE2;
20004682:	68fb      	ldr	r3, [r7, #12]
20004684:	f423 4360 	bic.w	r3, r3, #57344	@ 0xe000
20004688:	60fb      	str	r3, [r7, #12]

  /* Set PPRE2[2:0] bits according to RCC_HCLK value */
  tmpreg |= RCC_HCLK << 3;
2000468a:	687b      	ldr	r3, [r7, #4]
2000468c:	00db      	lsls	r3, r3, #3
2000468e:	68fa      	ldr	r2, [r7, #12]
20004690:	4313      	orrs	r3, r2
20004692:	60fb      	str	r3, [r7, #12]

  /* Store the new value */
  RCC->CFGR = tmpreg;
20004694:	4a04      	ldr	r2, [pc, #16]	@ (200046a8 <RCC_PCLK2Config+0x38>)
20004696:	68fb      	ldr	r3, [r7, #12]
20004698:	6093      	str	r3, [r2, #8]
}
2000469a:	bf00      	nop
2000469c:	3714      	adds	r7, #20
2000469e:	46bd      	mov	sp, r7
200046a0:	f85d 7b04 	ldr.w	r7, [sp], #4
200046a4:	4770      	bx	lr
200046a6:	bf00      	nop
200046a8:	40023800 	.word	0x40023800

200046ac <RCC_GetClocksFreq>:
  *         configuration based on this function will be incorrect.
  *    
  * @retval None
  */
void RCC_GetClocksFreq(RCC_ClocksTypeDef* RCC_Clocks)
{
200046ac:	b480      	push	{r7}
200046ae:	b089      	sub	sp, #36	@ 0x24
200046b0:	af00      	add	r7, sp, #0
200046b2:	6078      	str	r0, [r7, #4]
  uint32_t tmp = 0, presc = 0, pllvco = 0, pllp = 2, pllsource = 0, pllm = 2;
200046b4:	2300      	movs	r3, #0
200046b6:	61bb      	str	r3, [r7, #24]
200046b8:	2300      	movs	r3, #0
200046ba:	617b      	str	r3, [r7, #20]
200046bc:	2300      	movs	r3, #0
200046be:	61fb      	str	r3, [r7, #28]
200046c0:	2302      	movs	r3, #2
200046c2:	613b      	str	r3, [r7, #16]
200046c4:	2300      	movs	r3, #0
200046c6:	60fb      	str	r3, [r7, #12]
200046c8:	2302      	movs	r3, #2
200046ca:	60bb      	str	r3, [r7, #8]

  /* Get SYSCLK source -------------------------------------------------------*/
  tmp = RCC->CFGR & RCC_CFGR_SWS;
200046cc:	4b4a      	ldr	r3, [pc, #296]	@ (200047f8 <RCC_GetClocksFreq+0x14c>)
200046ce:	689b      	ldr	r3, [r3, #8]
200046d0:	f003 030c 	and.w	r3, r3, #12
200046d4:	61bb      	str	r3, [r7, #24]

  switch (tmp)
200046d6:	69bb      	ldr	r3, [r7, #24]
200046d8:	2b08      	cmp	r3, #8
200046da:	d011      	beq.n	20004700 <RCC_GetClocksFreq+0x54>
200046dc:	69bb      	ldr	r3, [r7, #24]
200046de:	2b08      	cmp	r3, #8
200046e0:	d844      	bhi.n	2000476c <RCC_GetClocksFreq+0xc0>
200046e2:	69bb      	ldr	r3, [r7, #24]
200046e4:	2b00      	cmp	r3, #0
200046e6:	d003      	beq.n	200046f0 <RCC_GetClocksFreq+0x44>
200046e8:	69bb      	ldr	r3, [r7, #24]
200046ea:	2b04      	cmp	r3, #4
200046ec:	d004      	beq.n	200046f8 <RCC_GetClocksFreq+0x4c>
200046ee:	e03d      	b.n	2000476c <RCC_GetClocksFreq+0xc0>
  {
    case 0x00:  /* HSI used as system clock source */
      RCC_Clocks->SYSCLK_Frequency = HSI_VALUE;
200046f0:	687b      	ldr	r3, [r7, #4]
200046f2:	4a42      	ldr	r2, [pc, #264]	@ (200047fc <RCC_GetClocksFreq+0x150>)
200046f4:	601a      	str	r2, [r3, #0]
      break;
200046f6:	e03d      	b.n	20004774 <RCC_GetClocksFreq+0xc8>
    case 0x04:  /* HSE used as system clock  source */
      RCC_Clocks->SYSCLK_Frequency = HSE_VALUE;
200046f8:	687b      	ldr	r3, [r7, #4]
200046fa:	4a41      	ldr	r2, [pc, #260]	@ (20004800 <RCC_GetClocksFreq+0x154>)
200046fc:	601a      	str	r2, [r3, #0]
      break;
200046fe:	e039      	b.n	20004774 <RCC_GetClocksFreq+0xc8>
    case 0x08:  /* PLL used as system clock  source */

      /* PLL_VCO = (HSE_VALUE or HSI_VALUE / PLLM) * PLLN
         SYSCLK = PLL_VCO / PLLP
         */    
      pllsource = (RCC->PLLCFGR & RCC_PLLCFGR_PLLSRC) >> 22;
20004700:	4b3d      	ldr	r3, [pc, #244]	@ (200047f8 <RCC_GetClocksFreq+0x14c>)
20004702:	685b      	ldr	r3, [r3, #4]
20004704:	0d9b      	lsrs	r3, r3, #22
20004706:	f003 0301 	and.w	r3, r3, #1
2000470a:	60fb      	str	r3, [r7, #12]
      pllm = RCC->PLLCFGR & RCC_PLLCFGR_PLLM;
2000470c:	4b3a      	ldr	r3, [pc, #232]	@ (200047f8 <RCC_GetClocksFreq+0x14c>)
2000470e:	685b      	ldr	r3, [r3, #4]
20004710:	f003 033f 	and.w	r3, r3, #63	@ 0x3f
20004714:	60bb      	str	r3, [r7, #8]
      
      if (pllsource != 0)
20004716:	68fb      	ldr	r3, [r7, #12]
20004718:	2b00      	cmp	r3, #0
2000471a:	d00c      	beq.n	20004736 <RCC_GetClocksFreq+0x8a>
      {
        /* HSE used as PLL clock source */
        pllvco = (HSE_VALUE / pllm) * ((RCC->PLLCFGR & RCC_PLLCFGR_PLLN) >> 6);
2000471c:	4a38      	ldr	r2, [pc, #224]	@ (20004800 <RCC_GetClocksFreq+0x154>)
2000471e:	68bb      	ldr	r3, [r7, #8]
20004720:	fbb2 f3f3 	udiv	r3, r2, r3
20004724:	4a34      	ldr	r2, [pc, #208]	@ (200047f8 <RCC_GetClocksFreq+0x14c>)
20004726:	6852      	ldr	r2, [r2, #4]
20004728:	0992      	lsrs	r2, r2, #6
2000472a:	f3c2 0208 	ubfx	r2, r2, #0, #9
2000472e:	fb02 f303 	mul.w	r3, r2, r3
20004732:	61fb      	str	r3, [r7, #28]
20004734:	e00b      	b.n	2000474e <RCC_GetClocksFreq+0xa2>
      }
      else
      {
        /* HSI used as PLL clock source */
        pllvco = (HSI_VALUE / pllm) * ((RCC->PLLCFGR & RCC_PLLCFGR_PLLN) >> 6);      
20004736:	4a31      	ldr	r2, [pc, #196]	@ (200047fc <RCC_GetClocksFreq+0x150>)
20004738:	68bb      	ldr	r3, [r7, #8]
2000473a:	fbb2 f3f3 	udiv	r3, r2, r3
2000473e:	4a2e      	ldr	r2, [pc, #184]	@ (200047f8 <RCC_GetClocksFreq+0x14c>)
20004740:	6852      	ldr	r2, [r2, #4]
20004742:	0992      	lsrs	r2, r2, #6
20004744:	f3c2 0208 	ubfx	r2, r2, #0, #9
20004748:	fb02 f303 	mul.w	r3, r2, r3
2000474c:	61fb      	str	r3, [r7, #28]
      }

      pllp = (((RCC->PLLCFGR & RCC_PLLCFGR_PLLP) >>16) + 1 ) *2;
2000474e:	4b2a      	ldr	r3, [pc, #168]	@ (200047f8 <RCC_GetClocksFreq+0x14c>)
20004750:	685b      	ldr	r3, [r3, #4]
20004752:	0c1b      	lsrs	r3, r3, #16
20004754:	f003 0303 	and.w	r3, r3, #3
20004758:	3301      	adds	r3, #1
2000475a:	005b      	lsls	r3, r3, #1
2000475c:	613b      	str	r3, [r7, #16]
      RCC_Clocks->SYSCLK_Frequency = pllvco/pllp;
2000475e:	69fa      	ldr	r2, [r7, #28]
20004760:	693b      	ldr	r3, [r7, #16]
20004762:	fbb2 f2f3 	udiv	r2, r2, r3
20004766:	687b      	ldr	r3, [r7, #4]
20004768:	601a      	str	r2, [r3, #0]
      break;
2000476a:	e003      	b.n	20004774 <RCC_GetClocksFreq+0xc8>
    default:
      RCC_Clocks->SYSCLK_Frequency = HSI_VALUE;
2000476c:	687b      	ldr	r3, [r7, #4]
2000476e:	4a23      	ldr	r2, [pc, #140]	@ (200047fc <RCC_GetClocksFreq+0x150>)
20004770:	601a      	str	r2, [r3, #0]
      break;
20004772:	bf00      	nop
  }
  /* Compute HCLK, PCLK1 and PCLK2 clocks frequencies ------------------------*/

  /* Get HCLK prescaler */
  tmp = RCC->CFGR & RCC_CFGR_HPRE;
20004774:	4b20      	ldr	r3, [pc, #128]	@ (200047f8 <RCC_GetClocksFreq+0x14c>)
20004776:	689b      	ldr	r3, [r3, #8]
20004778:	f003 03f0 	and.w	r3, r3, #240	@ 0xf0
2000477c:	61bb      	str	r3, [r7, #24]
  tmp = tmp >> 4;
2000477e:	69bb      	ldr	r3, [r7, #24]
20004780:	091b      	lsrs	r3, r3, #4
20004782:	61bb      	str	r3, [r7, #24]
  presc = APBAHBPrescTable[tmp];
20004784:	4a1f      	ldr	r2, [pc, #124]	@ (20004804 <RCC_GetClocksFreq+0x158>)
20004786:	69bb      	ldr	r3, [r7, #24]
20004788:	4413      	add	r3, r2
2000478a:	781b      	ldrb	r3, [r3, #0]
2000478c:	b2db      	uxtb	r3, r3
2000478e:	617b      	str	r3, [r7, #20]
  /* HCLK clock frequency */
  RCC_Clocks->HCLK_Frequency = RCC_Clocks->SYSCLK_Frequency >> presc;
20004790:	687b      	ldr	r3, [r7, #4]
20004792:	681a      	ldr	r2, [r3, #0]
20004794:	697b      	ldr	r3, [r7, #20]
20004796:	40da      	lsrs	r2, r3
20004798:	687b      	ldr	r3, [r7, #4]
2000479a:	605a      	str	r2, [r3, #4]

  /* Get PCLK1 prescaler */
  tmp = RCC->CFGR & RCC_CFGR_PPRE1;
2000479c:	4b16      	ldr	r3, [pc, #88]	@ (200047f8 <RCC_GetClocksFreq+0x14c>)
2000479e:	689b      	ldr	r3, [r3, #8]
200047a0:	f403 53e0 	and.w	r3, r3, #7168	@ 0x1c00
200047a4:	61bb      	str	r3, [r7, #24]
  tmp = tmp >> 10;
200047a6:	69bb      	ldr	r3, [r7, #24]
200047a8:	0a9b      	lsrs	r3, r3, #10
200047aa:	61bb      	str	r3, [r7, #24]
  presc = APBAHBPrescTable[tmp];
200047ac:	4a15      	ldr	r2, [pc, #84]	@ (20004804 <RCC_GetClocksFreq+0x158>)
200047ae:	69bb      	ldr	r3, [r7, #24]
200047b0:	4413      	add	r3, r2
200047b2:	781b      	ldrb	r3, [r3, #0]
200047b4:	b2db      	uxtb	r3, r3
200047b6:	617b      	str	r3, [r7, #20]
  /* PCLK1 clock frequency */
  RCC_Clocks->PCLK1_Frequency = RCC_Clocks->HCLK_Frequency >> presc;
200047b8:	687b      	ldr	r3, [r7, #4]
200047ba:	685a      	ldr	r2, [r3, #4]
200047bc:	697b      	ldr	r3, [r7, #20]
200047be:	40da      	lsrs	r2, r3
200047c0:	687b      	ldr	r3, [r7, #4]
200047c2:	609a      	str	r2, [r3, #8]

  /* Get PCLK2 prescaler */
  tmp = RCC->CFGR & RCC_CFGR_PPRE2;
200047c4:	4b0c      	ldr	r3, [pc, #48]	@ (200047f8 <RCC_GetClocksFreq+0x14c>)
200047c6:	689b      	ldr	r3, [r3, #8]
200047c8:	f403 4360 	and.w	r3, r3, #57344	@ 0xe000
200047cc:	61bb      	str	r3, [r7, #24]
  tmp = tmp >> 13;
200047ce:	69bb      	ldr	r3, [r7, #24]
200047d0:	0b5b      	lsrs	r3, r3, #13
200047d2:	61bb      	str	r3, [r7, #24]
  presc = APBAHBPrescTable[tmp];
200047d4:	4a0b      	ldr	r2, [pc, #44]	@ (20004804 <RCC_GetClocksFreq+0x158>)
200047d6:	69bb      	ldr	r3, [r7, #24]
200047d8:	4413      	add	r3, r2
200047da:	781b      	ldrb	r3, [r3, #0]
200047dc:	b2db      	uxtb	r3, r3
200047de:	617b      	str	r3, [r7, #20]
  /* PCLK2 clock frequency */
  RCC_Clocks->PCLK2_Frequency = RCC_Clocks->HCLK_Frequency >> presc;
200047e0:	687b      	ldr	r3, [r7, #4]
200047e2:	685a      	ldr	r2, [r3, #4]
200047e4:	697b      	ldr	r3, [r7, #20]
200047e6:	40da      	lsrs	r2, r3
200047e8:	687b      	ldr	r3, [r7, #4]
200047ea:	60da      	str	r2, [r3, #12]
}
200047ec:	bf00      	nop
200047ee:	3724      	adds	r7, #36	@ 0x24
200047f0:	46bd      	mov	sp, r7
200047f2:	f85d 7b04 	ldr.w	r7, [sp], #4
200047f6:	4770      	bx	lr
200047f8:	40023800 	.word	0x40023800
200047fc:	00f42400 	.word	0x00f42400
20004800:	007a1200 	.word	0x007a1200
20004804:	200084d8 	.word	0x200084d8

20004808 <RCC_RTCCLKConfig>:
  *         RTC clock source).
  *  
  * @retval None
  */
void RCC_RTCCLKConfig(uint32_t RCC_RTCCLKSource)
{
20004808:	b480      	push	{r7}
2000480a:	b085      	sub	sp, #20
2000480c:	af00      	add	r7, sp, #0
2000480e:	6078      	str	r0, [r7, #4]
  uint32_t tmpreg = 0;
20004810:	2300      	movs	r3, #0
20004812:	60fb      	str	r3, [r7, #12]

  /* Check the parameters */
  assert_param(IS_RCC_RTCCLK_SOURCE(RCC_RTCCLKSource));

  if ((RCC_RTCCLKSource & 0x00000300) == 0x00000300)
20004814:	687b      	ldr	r3, [r7, #4]
20004816:	f403 7340 	and.w	r3, r3, #768	@ 0x300
2000481a:	f5b3 7f40 	cmp.w	r3, #768	@ 0x300
2000481e:	d111      	bne.n	20004844 <RCC_RTCCLKConfig+0x3c>
  { /* If HSE is selected as RTC clock source, configure HSE division factor for RTC clock */
    tmpreg = RCC->CFGR;
20004820:	4b0f      	ldr	r3, [pc, #60]	@ (20004860 <RCC_RTCCLKConfig+0x58>)
20004822:	689b      	ldr	r3, [r3, #8]
20004824:	60fb      	str	r3, [r7, #12]

    /* Clear RTCPRE[4:0] bits */
    tmpreg &= ~RCC_CFGR_RTCPRE;
20004826:	68fb      	ldr	r3, [r7, #12]
20004828:	f423 13f8 	bic.w	r3, r3, #2031616	@ 0x1f0000
2000482c:	60fb      	str	r3, [r7, #12]

    /* Configure HSE division factor for RTC clock */
    tmpreg |= (RCC_RTCCLKSource & 0xFFFFCFF);
2000482e:	687b      	ldr	r3, [r7, #4]
20004830:	f023 4370 	bic.w	r3, r3, #4026531840	@ 0xf0000000
20004834:	f423 7340 	bic.w	r3, r3, #768	@ 0x300
20004838:	68fa      	ldr	r2, [r7, #12]
2000483a:	4313      	orrs	r3, r2
2000483c:	60fb      	str	r3, [r7, #12]

    /* Store the new value */
    RCC->CFGR = tmpreg;
2000483e:	4a08      	ldr	r2, [pc, #32]	@ (20004860 <RCC_RTCCLKConfig+0x58>)
20004840:	68fb      	ldr	r3, [r7, #12]
20004842:	6093      	str	r3, [r2, #8]
  }
    
  /* Select the RTC clock source */
  RCC->BDCR |= (RCC_RTCCLKSource & 0x00000FFF);
20004844:	4b06      	ldr	r3, [pc, #24]	@ (20004860 <RCC_RTCCLKConfig+0x58>)
20004846:	6f1a      	ldr	r2, [r3, #112]	@ 0x70
20004848:	687b      	ldr	r3, [r7, #4]
2000484a:	f3c3 030b 	ubfx	r3, r3, #0, #12
2000484e:	4904      	ldr	r1, [pc, #16]	@ (20004860 <RCC_RTCCLKConfig+0x58>)
20004850:	4313      	orrs	r3, r2
20004852:	670b      	str	r3, [r1, #112]	@ 0x70
}
20004854:	bf00      	nop
20004856:	3714      	adds	r7, #20
20004858:	46bd      	mov	sp, r7
2000485a:	f85d 7b04 	ldr.w	r7, [sp], #4
2000485e:	4770      	bx	lr
20004860:	40023800 	.word	0x40023800

20004864 <RCC_RTCCLKCmd>:
  *         using the RCC_RTCCLKConfig function.
  * @param  NewState: new state of the RTC clock. This parameter can be: ENABLE or DISABLE.
  * @retval None
  */
void RCC_RTCCLKCmd(FunctionalState NewState)
{
20004864:	b480      	push	{r7}
20004866:	b083      	sub	sp, #12
20004868:	af00      	add	r7, sp, #0
2000486a:	4603      	mov	r3, r0
2000486c:	71fb      	strb	r3, [r7, #7]
  /* Check the parameters */
  assert_param(IS_FUNCTIONAL_STATE(NewState));

  *(__IO uint32_t *) BDCR_RTCEN_BB = (uint32_t)NewState;
2000486e:	4a04      	ldr	r2, [pc, #16]	@ (20004880 <RCC_RTCCLKCmd+0x1c>)
20004870:	79fb      	ldrb	r3, [r7, #7]
20004872:	6013      	str	r3, [r2, #0]
}
20004874:	bf00      	nop
20004876:	370c      	adds	r7, #12
20004878:	46bd      	mov	sp, r7
2000487a:	f85d 7b04 	ldr.w	r7, [sp], #4
2000487e:	4770      	bx	lr
20004880:	42470e3c 	.word	0x42470e3c

20004884 <RCC_BackupResetCmd>:
  * @param  NewState: new state of the Backup domain reset.
  *          This parameter can be: ENABLE or DISABLE.
  * @retval None
  */
void RCC_BackupResetCmd(FunctionalState NewState)
{
20004884:	b480      	push	{r7}
20004886:	b083      	sub	sp, #12
20004888:	af00      	add	r7, sp, #0
2000488a:	4603      	mov	r3, r0
2000488c:	71fb      	strb	r3, [r7, #7]
  /* Check the parameters */
  assert_param(IS_FUNCTIONAL_STATE(NewState));
  *(__IO uint32_t *) BDCR_BDRST_BB = (uint32_t)NewState;
2000488e:	4a04      	ldr	r2, [pc, #16]	@ (200048a0 <RCC_BackupResetCmd+0x1c>)
20004890:	79fb      	ldrb	r3, [r7, #7]
20004892:	6013      	str	r3, [r2, #0]
}
20004894:	bf00      	nop
20004896:	370c      	adds	r7, #12
20004898:	46bd      	mov	sp, r7
2000489a:	f85d 7b04 	ldr.w	r7, [sp], #4
2000489e:	4770      	bx	lr
200048a0:	42470e40 	.word	0x42470e40

200048a4 <RCC_I2SCLKConfig>:
  *            @arg RCC_I2S2CLKSource_Ext: External clock mapped on the I2S_CKIN pin
  *                                        used as I2S clock source
  * @retval None
  */
void RCC_I2SCLKConfig(uint32_t RCC_I2SCLKSource)
{
200048a4:	b480      	push	{r7}
200048a6:	b083      	sub	sp, #12
200048a8:	af00      	add	r7, sp, #0
200048aa:	6078      	str	r0, [r7, #4]
  /* Check the parameters */
  assert_param(IS_RCC_I2SCLK_SOURCE(RCC_I2SCLKSource));

  *(__IO uint32_t *) CFGR_I2SSRC_BB = RCC_I2SCLKSource;
200048ac:	4a04      	ldr	r2, [pc, #16]	@ (200048c0 <RCC_I2SCLKConfig+0x1c>)
200048ae:	687b      	ldr	r3, [r7, #4]
200048b0:	6013      	str	r3, [r2, #0]
}
200048b2:	bf00      	nop
200048b4:	370c      	adds	r7, #12
200048b6:	46bd      	mov	sp, r7
200048b8:	f85d 7b04 	ldr.w	r7, [sp], #4
200048bc:	4770      	bx	lr
200048be:	bf00      	nop
200048c0:	4247015c 	.word	0x4247015c

200048c4 <RCC_SAIPLLI2SClkDivConfig>:
  *          SAI1 clock frequency = f(PLLI2S_Q) / RCC_PLLI2SDivQ 
  *              
  * @retval None
  */
void RCC_SAIPLLI2SClkDivConfig(uint32_t RCC_PLLI2SDivQ)  
{
200048c4:	b480      	push	{r7}
200048c6:	b085      	sub	sp, #20
200048c8:	af00      	add	r7, sp, #0
200048ca:	6078      	str	r0, [r7, #4]
  uint32_t tmpreg = 0;
200048cc:	2300      	movs	r3, #0
200048ce:	60fb      	str	r3, [r7, #12]
  
  /* Check the parameters */
  assert_param(IS_RCC_PLLI2S_DIVQ_VALUE(RCC_PLLI2SDivQ));
  
  tmpreg = RCC->DCKCFGR;
200048d0:	4b0b      	ldr	r3, [pc, #44]	@ (20004900 <RCC_SAIPLLI2SClkDivConfig+0x3c>)
200048d2:	f8d3 308c 	ldr.w	r3, [r3, #140]	@ 0x8c
200048d6:	60fb      	str	r3, [r7, #12]

  /* Clear PLLI2SDIVQ[4:0] bits */
  tmpreg &= ~(RCC_DCKCFGR_PLLI2SDIVQ);
200048d8:	68fb      	ldr	r3, [r7, #12]
200048da:	f023 031f 	bic.w	r3, r3, #31
200048de:	60fb      	str	r3, [r7, #12]

  /* Set PLLI2SDIVQ values */
  tmpreg |= (RCC_PLLI2SDivQ - 1);
200048e0:	687b      	ldr	r3, [r7, #4]
200048e2:	3b01      	subs	r3, #1
200048e4:	68fa      	ldr	r2, [r7, #12]
200048e6:	4313      	orrs	r3, r2
200048e8:	60fb      	str	r3, [r7, #12]

  /* Store the new value */
  RCC->DCKCFGR = tmpreg;
200048ea:	4a05      	ldr	r2, [pc, #20]	@ (20004900 <RCC_SAIPLLI2SClkDivConfig+0x3c>)
200048ec:	68fb      	ldr	r3, [r7, #12]
200048ee:	f8c2 308c 	str.w	r3, [r2, #140]	@ 0x8c
}
200048f2:	bf00      	nop
200048f4:	3714      	adds	r7, #20
200048f6:	46bd      	mov	sp, r7
200048f8:	f85d 7b04 	ldr.w	r7, [sp], #4
200048fc:	4770      	bx	lr
200048fe:	bf00      	nop
20004900:	40023800 	.word	0x40023800

20004904 <RCC_SAIPLLSAIClkDivConfig>:
  *          SAI1 clock frequency = f(PLLSAI_Q) / RCC_PLLSAIDivQ  
  *              
  * @retval None
  */
void RCC_SAIPLLSAIClkDivConfig(uint32_t RCC_PLLSAIDivQ)  
{
20004904:	b480      	push	{r7}
20004906:	b085      	sub	sp, #20
20004908:	af00      	add	r7, sp, #0
2000490a:	6078      	str	r0, [r7, #4]
  uint32_t tmpreg = 0;
2000490c:	2300      	movs	r3, #0
2000490e:	60fb      	str	r3, [r7, #12]
  
  /* Check the parameters */
  assert_param(IS_RCC_PLLSAI_DIVQ_VALUE(RCC_PLLSAIDivQ));
  
  tmpreg = RCC->DCKCFGR;
20004910:	4b0b      	ldr	r3, [pc, #44]	@ (20004940 <RCC_SAIPLLSAIClkDivConfig+0x3c>)
20004912:	f8d3 308c 	ldr.w	r3, [r3, #140]	@ 0x8c
20004916:	60fb      	str	r3, [r7, #12]

  /* Clear PLLI2SDIVQ[4:0] and PLLSAIDIVQ[4:0] bits */
  tmpreg &= ~(RCC_DCKCFGR_PLLSAIDIVQ);
20004918:	68fb      	ldr	r3, [r7, #12]
2000491a:	f423 53f8 	bic.w	r3, r3, #7936	@ 0x1f00
2000491e:	60fb      	str	r3, [r7, #12]

  /* Set PLLSAIDIVQ values */
  tmpreg |= ((RCC_PLLSAIDivQ - 1) << 8);
20004920:	687b      	ldr	r3, [r7, #4]
20004922:	3b01      	subs	r3, #1
20004924:	021b      	lsls	r3, r3, #8
20004926:	68fa      	ldr	r2, [r7, #12]
20004928:	4313      	orrs	r3, r2
2000492a:	60fb      	str	r3, [r7, #12]

  /* Store the new value */
  RCC->DCKCFGR = tmpreg;
2000492c:	4a04      	ldr	r2, [pc, #16]	@ (20004940 <RCC_SAIPLLSAIClkDivConfig+0x3c>)
2000492e:	68fb      	ldr	r3, [r7, #12]
20004930:	f8c2 308c 	str.w	r3, [r2, #140]	@ 0x8c
}
20004934:	bf00      	nop
20004936:	3714      	adds	r7, #20
20004938:	46bd      	mov	sp, r7
2000493a:	f85d 7b04 	ldr.w	r7, [sp], #4
2000493e:	4770      	bx	lr
20004940:	40023800 	.word	0x40023800

20004944 <RCC_SAIBlockACLKConfig>:
  *            @arg RCC_SAIACLKSource_Ext: External clock mapped on the I2S_CKIN pin
  *                                        used as SAI1 Block A clock
  * @retval None
  */
void RCC_SAIBlockACLKConfig(uint32_t RCC_SAIBlockACLKSource)
{
20004944:	b480      	push	{r7}
20004946:	b085      	sub	sp, #20
20004948:	af00      	add	r7, sp, #0
2000494a:	6078      	str	r0, [r7, #4]
  uint32_t tmpreg = 0;
2000494c:	2300      	movs	r3, #0
2000494e:	60fb      	str	r3, [r7, #12]
  
  /* Check the parameters */
  assert_param(IS_RCC_SAIACLK_SOURCE(RCC_SAIBlockACLKSource));
  
  tmpreg = RCC->DCKCFGR;
20004950:	4b0a      	ldr	r3, [pc, #40]	@ (2000497c <RCC_SAIBlockACLKConfig+0x38>)
20004952:	f8d3 308c 	ldr.w	r3, [r3, #140]	@ 0x8c
20004956:	60fb      	str	r3, [r7, #12]

  /* Clear RCC_DCKCFGR_SAI1ASRC[1:0] bits */
  tmpreg &= ~RCC_DCKCFGR_SAI1ASRC;
20004958:	68fb      	ldr	r3, [r7, #12]
2000495a:	f423 1340 	bic.w	r3, r3, #3145728	@ 0x300000
2000495e:	60fb      	str	r3, [r7, #12]

  /* Set SAI Block A source selection value */
  tmpreg |= RCC_SAIBlockACLKSource;
20004960:	68fa      	ldr	r2, [r7, #12]
20004962:	687b      	ldr	r3, [r7, #4]
20004964:	4313      	orrs	r3, r2
20004966:	60fb      	str	r3, [r7, #12]

  /* Store the new value */
  RCC->DCKCFGR = tmpreg;
20004968:	4a04      	ldr	r2, [pc, #16]	@ (2000497c <RCC_SAIBlockACLKConfig+0x38>)
2000496a:	68fb      	ldr	r3, [r7, #12]
2000496c:	f8c2 308c 	str.w	r3, [r2, #140]	@ 0x8c
}
20004970:	bf00      	nop
20004972:	3714      	adds	r7, #20
20004974:	46bd      	mov	sp, r7
20004976:	f85d 7b04 	ldr.w	r7, [sp], #4
2000497a:	4770      	bx	lr
2000497c:	40023800 	.word	0x40023800

20004980 <RCC_SAIBlockBCLKConfig>:
  *            @arg RCC_SAIBCLKSource_Ext: External clock mapped on the I2S_CKIN pin
  *                                        used as SAI1 Block B clock
  * @retval None
  */
void RCC_SAIBlockBCLKConfig(uint32_t RCC_SAIBlockBCLKSource)
{
20004980:	b480      	push	{r7}
20004982:	b085      	sub	sp, #20
20004984:	af00      	add	r7, sp, #0
20004986:	6078      	str	r0, [r7, #4]
  uint32_t tmpreg = 0;
20004988:	2300      	movs	r3, #0
2000498a:	60fb      	str	r3, [r7, #12]
  
  /* Check the parameters */
  assert_param(IS_RCC_SAIBCLK_SOURCE(RCC_SAIBlockBCLKSource));
  
  tmpreg = RCC->DCKCFGR;
2000498c:	4b0a      	ldr	r3, [pc, #40]	@ (200049b8 <RCC_SAIBlockBCLKConfig+0x38>)
2000498e:	f8d3 308c 	ldr.w	r3, [r3, #140]	@ 0x8c
20004992:	60fb      	str	r3, [r7, #12]

  /* Clear RCC_DCKCFGR_SAI1BSRC[1:0] bits */
  tmpreg &= ~RCC_DCKCFGR_SAI1BSRC;
20004994:	68fb      	ldr	r3, [r7, #12]
20004996:	f423 0340 	bic.w	r3, r3, #12582912	@ 0xc00000
2000499a:	60fb      	str	r3, [r7, #12]

  /* Set SAI Block B source selection value */
  tmpreg |= RCC_SAIBlockBCLKSource;
2000499c:	68fa      	ldr	r2, [r7, #12]
2000499e:	687b      	ldr	r3, [r7, #4]
200049a0:	4313      	orrs	r3, r2
200049a2:	60fb      	str	r3, [r7, #12]

  /* Store the new value */
  RCC->DCKCFGR = tmpreg;
200049a4:	4a04      	ldr	r2, [pc, #16]	@ (200049b8 <RCC_SAIBlockBCLKConfig+0x38>)
200049a6:	68fb      	ldr	r3, [r7, #12]
200049a8:	f8c2 308c 	str.w	r3, [r2, #140]	@ 0x8c
}
200049ac:	bf00      	nop
200049ae:	3714      	adds	r7, #20
200049b0:	46bd      	mov	sp, r7
200049b2:	f85d 7b04 	ldr.w	r7, [sp], #4
200049b6:	4770      	bx	lr
200049b8:	40023800 	.word	0x40023800

200049bc <RCC_LTDCCLKDivConfig>:
  *          LTDC clock frequency = f(PLLSAI_R) / RCC_PLLSAIDivR  
  *            
  * @retval None
  */
void RCC_LTDCCLKDivConfig(uint32_t RCC_PLLSAIDivR)
{
200049bc:	b480      	push	{r7}
200049be:	b085      	sub	sp, #20
200049c0:	af00      	add	r7, sp, #0
200049c2:	6078      	str	r0, [r7, #4]
  uint32_t tmpreg = 0;
200049c4:	2300      	movs	r3, #0
200049c6:	60fb      	str	r3, [r7, #12]
  
  /* Check the parameters */
  assert_param(IS_RCC_PLLSAI_DIVR_VALUE(RCC_PLLSAIDivR));
  
  tmpreg = RCC->DCKCFGR;
200049c8:	4b0a      	ldr	r3, [pc, #40]	@ (200049f4 <RCC_LTDCCLKDivConfig+0x38>)
200049ca:	f8d3 308c 	ldr.w	r3, [r3, #140]	@ 0x8c
200049ce:	60fb      	str	r3, [r7, #12]

  /* Clear PLLSAIDIVR[2:0] bits */
  tmpreg &= ~RCC_DCKCFGR_PLLSAIDIVR;
200049d0:	68fb      	ldr	r3, [r7, #12]
200049d2:	f423 3340 	bic.w	r3, r3, #196608	@ 0x30000
200049d6:	60fb      	str	r3, [r7, #12]

  /* Set PLLSAIDIVR values */
  tmpreg |= RCC_PLLSAIDivR;
200049d8:	68fa      	ldr	r2, [r7, #12]
200049da:	687b      	ldr	r3, [r7, #4]
200049dc:	4313      	orrs	r3, r2
200049de:	60fb      	str	r3, [r7, #12]

  /* Store the new value */
  RCC->DCKCFGR = tmpreg;
200049e0:	4a04      	ldr	r2, [pc, #16]	@ (200049f4 <RCC_LTDCCLKDivConfig+0x38>)
200049e2:	68fb      	ldr	r3, [r7, #12]
200049e4:	f8c2 308c 	str.w	r3, [r2, #140]	@ 0x8c
}
200049e8:	bf00      	nop
200049ea:	3714      	adds	r7, #20
200049ec:	46bd      	mov	sp, r7
200049ee:	f85d 7b04 	ldr.w	r7, [sp], #4
200049f2:	4770      	bx	lr
200049f4:	40023800 	.word	0x40023800

200049f8 <RCC_TIMCLKPresConfig>:
  *                 else it is equal to [(HPRE * PPREx) / 4] if PPREx is corresponding 
  *                 to division by 8 or more.
  * @retval None
  */
void RCC_TIMCLKPresConfig(uint32_t RCC_TIMCLKPrescaler)
{
200049f8:	b480      	push	{r7}
200049fa:	b083      	sub	sp, #12
200049fc:	af00      	add	r7, sp, #0
200049fe:	6078      	str	r0, [r7, #4]
  /* Check the parameters */
  assert_param(IS_RCC_TIMCLK_PRESCALER(RCC_TIMCLKPrescaler));

  *(__IO uint32_t *) DCKCFGR_TIMPRE_BB = RCC_TIMCLKPrescaler;
20004a00:	4a04      	ldr	r2, [pc, #16]	@ (20004a14 <RCC_TIMCLKPresConfig+0x1c>)
20004a02:	687b      	ldr	r3, [r7, #4]
20004a04:	6013      	str	r3, [r2, #0]
  
}
20004a06:	bf00      	nop
20004a08:	370c      	adds	r7, #12
20004a0a:	46bd      	mov	sp, r7
20004a0c:	f85d 7b04 	ldr.w	r7, [sp], #4
20004a10:	4770      	bx	lr
20004a12:	bf00      	nop
20004a14:	424711e0 	.word	0x424711e0

20004a18 <RCC_AHB1PeriphClockCmd>:
  * @param  NewState: new state of the specified peripheral clock.
  *          This parameter can be: ENABLE or DISABLE.
  * @retval None
  */
void RCC_AHB1PeriphClockCmd(uint32_t RCC_AHB1Periph, FunctionalState NewState)
{
20004a18:	b480      	push	{r7}
20004a1a:	b083      	sub	sp, #12
20004a1c:	af00      	add	r7, sp, #0
20004a1e:	6078      	str	r0, [r7, #4]
20004a20:	460b      	mov	r3, r1
20004a22:	70fb      	strb	r3, [r7, #3]
  /* Check the parameters */
  assert_param(IS_RCC_AHB1_CLOCK_PERIPH(RCC_AHB1Periph));

  assert_param(IS_FUNCTIONAL_STATE(NewState));
  if (NewState != DISABLE)
20004a24:	78fb      	ldrb	r3, [r7, #3]
20004a26:	2b00      	cmp	r3, #0
20004a28:	d006      	beq.n	20004a38 <RCC_AHB1PeriphClockCmd+0x20>
  {
    RCC->AHB1ENR |= RCC_AHB1Periph;
20004a2a:	4b0a      	ldr	r3, [pc, #40]	@ (20004a54 <RCC_AHB1PeriphClockCmd+0x3c>)
20004a2c:	6b1a      	ldr	r2, [r3, #48]	@ 0x30
20004a2e:	4909      	ldr	r1, [pc, #36]	@ (20004a54 <RCC_AHB1PeriphClockCmd+0x3c>)
20004a30:	687b      	ldr	r3, [r7, #4]
20004a32:	4313      	orrs	r3, r2
20004a34:	630b      	str	r3, [r1, #48]	@ 0x30
  }
  else
  {
    RCC->AHB1ENR &= ~RCC_AHB1Periph;
  }
}
20004a36:	e006      	b.n	20004a46 <RCC_AHB1PeriphClockCmd+0x2e>
    RCC->AHB1ENR &= ~RCC_AHB1Periph;
20004a38:	4b06      	ldr	r3, [pc, #24]	@ (20004a54 <RCC_AHB1PeriphClockCmd+0x3c>)
20004a3a:	6b1a      	ldr	r2, [r3, #48]	@ 0x30
20004a3c:	687b      	ldr	r3, [r7, #4]
20004a3e:	43db      	mvns	r3, r3
20004a40:	4904      	ldr	r1, [pc, #16]	@ (20004a54 <RCC_AHB1PeriphClockCmd+0x3c>)
20004a42:	4013      	ands	r3, r2
20004a44:	630b      	str	r3, [r1, #48]	@ 0x30
}
20004a46:	bf00      	nop
20004a48:	370c      	adds	r7, #12
20004a4a:	46bd      	mov	sp, r7
20004a4c:	f85d 7b04 	ldr.w	r7, [sp], #4
20004a50:	4770      	bx	lr
20004a52:	bf00      	nop
20004a54:	40023800 	.word	0x40023800

20004a58 <RCC_AHB2PeriphClockCmd>:
  * @param  NewState: new state of the specified peripheral clock.
  *          This parameter can be: ENABLE or DISABLE.
  * @retval None
  */
void RCC_AHB2PeriphClockCmd(uint32_t RCC_AHB2Periph, FunctionalState NewState)
{
20004a58:	b480      	push	{r7}
20004a5a:	b083      	sub	sp, #12
20004a5c:	af00      	add	r7, sp, #0
20004a5e:	6078      	str	r0, [r7, #4]
20004a60:	460b      	mov	r3, r1
20004a62:	70fb      	strb	r3, [r7, #3]
  /* Check the parameters */
  assert_param(IS_RCC_AHB2_PERIPH(RCC_AHB2Periph));
  assert_param(IS_FUNCTIONAL_STATE(NewState));

  if (NewState != DISABLE)
20004a64:	78fb      	ldrb	r3, [r7, #3]
20004a66:	2b00      	cmp	r3, #0
20004a68:	d006      	beq.n	20004a78 <RCC_AHB2PeriphClockCmd+0x20>
  {
    RCC->AHB2ENR |= RCC_AHB2Periph;
20004a6a:	4b0a      	ldr	r3, [pc, #40]	@ (20004a94 <RCC_AHB2PeriphClockCmd+0x3c>)
20004a6c:	6b5a      	ldr	r2, [r3, #52]	@ 0x34
20004a6e:	4909      	ldr	r1, [pc, #36]	@ (20004a94 <RCC_AHB2PeriphClockCmd+0x3c>)
20004a70:	687b      	ldr	r3, [r7, #4]
20004a72:	4313      	orrs	r3, r2
20004a74:	634b      	str	r3, [r1, #52]	@ 0x34
  }
  else
  {
    RCC->AHB2ENR &= ~RCC_AHB2Periph;
  }
}
20004a76:	e006      	b.n	20004a86 <RCC_AHB2PeriphClockCmd+0x2e>
    RCC->AHB2ENR &= ~RCC_AHB2Periph;
20004a78:	4b06      	ldr	r3, [pc, #24]	@ (20004a94 <RCC_AHB2PeriphClockCmd+0x3c>)
20004a7a:	6b5a      	ldr	r2, [r3, #52]	@ 0x34
20004a7c:	687b      	ldr	r3, [r7, #4]
20004a7e:	43db      	mvns	r3, r3
20004a80:	4904      	ldr	r1, [pc, #16]	@ (20004a94 <RCC_AHB2PeriphClockCmd+0x3c>)
20004a82:	4013      	ands	r3, r2
20004a84:	634b      	str	r3, [r1, #52]	@ 0x34
}
20004a86:	bf00      	nop
20004a88:	370c      	adds	r7, #12
20004a8a:	46bd      	mov	sp, r7
20004a8c:	f85d 7b04 	ldr.w	r7, [sp], #4
20004a90:	4770      	bx	lr
20004a92:	bf00      	nop
20004a94:	40023800 	.word	0x40023800

20004a98 <RCC_AHB3PeriphClockCmd>:
  * @param  NewState: new state of the specified peripheral clock.
  *          This parameter can be: ENABLE or DISABLE.
  * @retval None
  */
void RCC_AHB3PeriphClockCmd(uint32_t RCC_AHB3Periph, FunctionalState NewState)
{
20004a98:	b480      	push	{r7}
20004a9a:	b083      	sub	sp, #12
20004a9c:	af00      	add	r7, sp, #0
20004a9e:	6078      	str	r0, [r7, #4]
20004aa0:	460b      	mov	r3, r1
20004aa2:	70fb      	strb	r3, [r7, #3]
  /* Check the parameters */
  assert_param(IS_RCC_AHB3_PERIPH(RCC_AHB3Periph));  
  assert_param(IS_FUNCTIONAL_STATE(NewState));

  if (NewState != DISABLE)
20004aa4:	78fb      	ldrb	r3, [r7, #3]
20004aa6:	2b00      	cmp	r3, #0
20004aa8:	d006      	beq.n	20004ab8 <RCC_AHB3PeriphClockCmd+0x20>
  {
    RCC->AHB3ENR |= RCC_AHB3Periph;
20004aaa:	4b0a      	ldr	r3, [pc, #40]	@ (20004ad4 <RCC_AHB3PeriphClockCmd+0x3c>)
20004aac:	6b9a      	ldr	r2, [r3, #56]	@ 0x38
20004aae:	4909      	ldr	r1, [pc, #36]	@ (20004ad4 <RCC_AHB3PeriphClockCmd+0x3c>)
20004ab0:	687b      	ldr	r3, [r7, #4]
20004ab2:	4313      	orrs	r3, r2
20004ab4:	638b      	str	r3, [r1, #56]	@ 0x38
  }
  else
  {
    RCC->AHB3ENR &= ~RCC_AHB3Periph;
  }
}
20004ab6:	e006      	b.n	20004ac6 <RCC_AHB3PeriphClockCmd+0x2e>
    RCC->AHB3ENR &= ~RCC_AHB3Periph;
20004ab8:	4b06      	ldr	r3, [pc, #24]	@ (20004ad4 <RCC_AHB3PeriphClockCmd+0x3c>)
20004aba:	6b9a      	ldr	r2, [r3, #56]	@ 0x38
20004abc:	687b      	ldr	r3, [r7, #4]
20004abe:	43db      	mvns	r3, r3
20004ac0:	4904      	ldr	r1, [pc, #16]	@ (20004ad4 <RCC_AHB3PeriphClockCmd+0x3c>)
20004ac2:	4013      	ands	r3, r2
20004ac4:	638b      	str	r3, [r1, #56]	@ 0x38
}
20004ac6:	bf00      	nop
20004ac8:	370c      	adds	r7, #12
20004aca:	46bd      	mov	sp, r7
20004acc:	f85d 7b04 	ldr.w	r7, [sp], #4
20004ad0:	4770      	bx	lr
20004ad2:	bf00      	nop
20004ad4:	40023800 	.word	0x40023800

20004ad8 <RCC_APB1PeriphClockCmd>:
  * @param  NewState: new state of the specified peripheral clock.
  *          This parameter can be: ENABLE or DISABLE.
  * @retval None
  */
void RCC_APB1PeriphClockCmd(uint32_t RCC_APB1Periph, FunctionalState NewState)
{
20004ad8:	b480      	push	{r7}
20004ada:	b083      	sub	sp, #12
20004adc:	af00      	add	r7, sp, #0
20004ade:	6078      	str	r0, [r7, #4]
20004ae0:	460b      	mov	r3, r1
20004ae2:	70fb      	strb	r3, [r7, #3]
  /* Check the parameters */
  assert_param(IS_RCC_APB1_PERIPH(RCC_APB1Periph));  
  assert_param(IS_FUNCTIONAL_STATE(NewState));

  if (NewState != DISABLE)
20004ae4:	78fb      	ldrb	r3, [r7, #3]
20004ae6:	2b00      	cmp	r3, #0
20004ae8:	d006      	beq.n	20004af8 <RCC_APB1PeriphClockCmd+0x20>
  {
    RCC->APB1ENR |= RCC_APB1Periph;
20004aea:	4b0a      	ldr	r3, [pc, #40]	@ (20004b14 <RCC_APB1PeriphClockCmd+0x3c>)
20004aec:	6c1a      	ldr	r2, [r3, #64]	@ 0x40
20004aee:	4909      	ldr	r1, [pc, #36]	@ (20004b14 <RCC_APB1PeriphClockCmd+0x3c>)
20004af0:	687b      	ldr	r3, [r7, #4]
20004af2:	4313      	orrs	r3, r2
20004af4:	640b      	str	r3, [r1, #64]	@ 0x40
  }
  else
  {
    RCC->APB1ENR &= ~RCC_APB1Periph;
  }
}
20004af6:	e006      	b.n	20004b06 <RCC_APB1PeriphClockCmd+0x2e>
    RCC->APB1ENR &= ~RCC_APB1Periph;
20004af8:	4b06      	ldr	r3, [pc, #24]	@ (20004b14 <RCC_APB1PeriphClockCmd+0x3c>)
20004afa:	6c1a      	ldr	r2, [r3, #64]	@ 0x40
20004afc:	687b      	ldr	r3, [r7, #4]
20004afe:	43db      	mvns	r3, r3
20004b00:	4904      	ldr	r1, [pc, #16]	@ (20004b14 <RCC_APB1PeriphClockCmd+0x3c>)
20004b02:	4013      	ands	r3, r2
20004b04:	640b      	str	r3, [r1, #64]	@ 0x40
}
20004b06:	bf00      	nop
20004b08:	370c      	adds	r7, #12
20004b0a:	46bd      	mov	sp, r7
20004b0c:	f85d 7b04 	ldr.w	r7, [sp], #4
20004b10:	4770      	bx	lr
20004b12:	bf00      	nop
20004b14:	40023800 	.word	0x40023800

20004b18 <RCC_APB2PeriphClockCmd>:
  * @param  NewState: new state of the specified peripheral clock.
  *          This parameter can be: ENABLE or DISABLE.
  * @retval None
  */
void RCC_APB2PeriphClockCmd(uint32_t RCC_APB2Periph, FunctionalState NewState)
{
20004b18:	b480      	push	{r7}
20004b1a:	b083      	sub	sp, #12
20004b1c:	af00      	add	r7, sp, #0
20004b1e:	6078      	str	r0, [r7, #4]
20004b20:	460b      	mov	r3, r1
20004b22:	70fb      	strb	r3, [r7, #3]
  /* Check the parameters */
  assert_param(IS_RCC_APB2_PERIPH(RCC_APB2Periph));
  assert_param(IS_FUNCTIONAL_STATE(NewState));

  if (NewState != DISABLE)
20004b24:	78fb      	ldrb	r3, [r7, #3]
20004b26:	2b00      	cmp	r3, #0
20004b28:	d006      	beq.n	20004b38 <RCC_APB2PeriphClockCmd+0x20>
  {
    RCC->APB2ENR |= RCC_APB2Periph;
20004b2a:	4b0a      	ldr	r3, [pc, #40]	@ (20004b54 <RCC_APB2PeriphClockCmd+0x3c>)
20004b2c:	6c5a      	ldr	r2, [r3, #68]	@ 0x44
20004b2e:	4909      	ldr	r1, [pc, #36]	@ (20004b54 <RCC_APB2PeriphClockCmd+0x3c>)
20004b30:	687b      	ldr	r3, [r7, #4]
20004b32:	4313      	orrs	r3, r2
20004b34:	644b      	str	r3, [r1, #68]	@ 0x44
  }
  else
  {
    RCC->APB2ENR &= ~RCC_APB2Periph;
  }
}
20004b36:	e006      	b.n	20004b46 <RCC_APB2PeriphClockCmd+0x2e>
    RCC->APB2ENR &= ~RCC_APB2Periph;
20004b38:	4b06      	ldr	r3, [pc, #24]	@ (20004b54 <RCC_APB2PeriphClockCmd+0x3c>)
20004b3a:	6c5a      	ldr	r2, [r3, #68]	@ 0x44
20004b3c:	687b      	ldr	r3, [r7, #4]
20004b3e:	43db      	mvns	r3, r3
20004b40:	4904      	ldr	r1, [pc, #16]	@ (20004b54 <RCC_APB2PeriphClockCmd+0x3c>)
20004b42:	4013      	ands	r3, r2
20004b44:	644b      	str	r3, [r1, #68]	@ 0x44
}
20004b46:	bf00      	nop
20004b48:	370c      	adds	r7, #12
20004b4a:	46bd      	mov	sp, r7
20004b4c:	f85d 7b04 	ldr.w	r7, [sp], #4
20004b50:	4770      	bx	lr
20004b52:	bf00      	nop
20004b54:	40023800 	.word	0x40023800

20004b58 <RCC_AHB1PeriphResetCmd>:
  * @param  NewState: new state of the specified peripheral reset.
  *          This parameter can be: ENABLE or DISABLE.
  * @retval None
  */
void RCC_AHB1PeriphResetCmd(uint32_t RCC_AHB1Periph, FunctionalState NewState)
{
20004b58:	b480      	push	{r7}
20004b5a:	b083      	sub	sp, #12
20004b5c:	af00      	add	r7, sp, #0
20004b5e:	6078      	str	r0, [r7, #4]
20004b60:	460b      	mov	r3, r1
20004b62:	70fb      	strb	r3, [r7, #3]
  /* Check the parameters */
  assert_param(IS_RCC_AHB1_RESET_PERIPH(RCC_AHB1Periph));
  assert_param(IS_FUNCTIONAL_STATE(NewState));

  if (NewState != DISABLE)
20004b64:	78fb      	ldrb	r3, [r7, #3]
20004b66:	2b00      	cmp	r3, #0
20004b68:	d006      	beq.n	20004b78 <RCC_AHB1PeriphResetCmd+0x20>
  {
    RCC->AHB1RSTR |= RCC_AHB1Periph;
20004b6a:	4b0a      	ldr	r3, [pc, #40]	@ (20004b94 <RCC_AHB1PeriphResetCmd+0x3c>)
20004b6c:	691a      	ldr	r2, [r3, #16]
20004b6e:	4909      	ldr	r1, [pc, #36]	@ (20004b94 <RCC_AHB1PeriphResetCmd+0x3c>)
20004b70:	687b      	ldr	r3, [r7, #4]
20004b72:	4313      	orrs	r3, r2
20004b74:	610b      	str	r3, [r1, #16]
  }
  else
  {
    RCC->AHB1RSTR &= ~RCC_AHB1Periph;
  }
}
20004b76:	e006      	b.n	20004b86 <RCC_AHB1PeriphResetCmd+0x2e>
    RCC->AHB1RSTR &= ~RCC_AHB1Periph;
20004b78:	4b06      	ldr	r3, [pc, #24]	@ (20004b94 <RCC_AHB1PeriphResetCmd+0x3c>)
20004b7a:	691a      	ldr	r2, [r3, #16]
20004b7c:	687b      	ldr	r3, [r7, #4]
20004b7e:	43db      	mvns	r3, r3
20004b80:	4904      	ldr	r1, [pc, #16]	@ (20004b94 <RCC_AHB1PeriphResetCmd+0x3c>)
20004b82:	4013      	ands	r3, r2
20004b84:	610b      	str	r3, [r1, #16]
}
20004b86:	bf00      	nop
20004b88:	370c      	adds	r7, #12
20004b8a:	46bd      	mov	sp, r7
20004b8c:	f85d 7b04 	ldr.w	r7, [sp], #4
20004b90:	4770      	bx	lr
20004b92:	bf00      	nop
20004b94:	40023800 	.word	0x40023800

20004b98 <RCC_AHB2PeriphResetCmd>:
  * @param  NewState: new state of the specified peripheral reset.
  *          This parameter can be: ENABLE or DISABLE.
  * @retval None
  */
void RCC_AHB2PeriphResetCmd(uint32_t RCC_AHB2Periph, FunctionalState NewState)
{
20004b98:	b480      	push	{r7}
20004b9a:	b083      	sub	sp, #12
20004b9c:	af00      	add	r7, sp, #0
20004b9e:	6078      	str	r0, [r7, #4]
20004ba0:	460b      	mov	r3, r1
20004ba2:	70fb      	strb	r3, [r7, #3]
  /* Check the parameters */
  assert_param(IS_RCC_AHB2_PERIPH(RCC_AHB2Periph));
  assert_param(IS_FUNCTIONAL_STATE(NewState));

  if (NewState != DISABLE)
20004ba4:	78fb      	ldrb	r3, [r7, #3]
20004ba6:	2b00      	cmp	r3, #0
20004ba8:	d006      	beq.n	20004bb8 <RCC_AHB2PeriphResetCmd+0x20>
  {
    RCC->AHB2RSTR |= RCC_AHB2Periph;
20004baa:	4b0a      	ldr	r3, [pc, #40]	@ (20004bd4 <RCC_AHB2PeriphResetCmd+0x3c>)
20004bac:	695a      	ldr	r2, [r3, #20]
20004bae:	4909      	ldr	r1, [pc, #36]	@ (20004bd4 <RCC_AHB2PeriphResetCmd+0x3c>)
20004bb0:	687b      	ldr	r3, [r7, #4]
20004bb2:	4313      	orrs	r3, r2
20004bb4:	614b      	str	r3, [r1, #20]
  }
  else
  {
    RCC->AHB2RSTR &= ~RCC_AHB2Periph;
  }
}
20004bb6:	e006      	b.n	20004bc6 <RCC_AHB2PeriphResetCmd+0x2e>
    RCC->AHB2RSTR &= ~RCC_AHB2Periph;
20004bb8:	4b06      	ldr	r3, [pc, #24]	@ (20004bd4 <RCC_AHB2PeriphResetCmd+0x3c>)
20004bba:	695a      	ldr	r2, [r3, #20]
20004bbc:	687b      	ldr	r3, [r7, #4]
20004bbe:	43db      	mvns	r3, r3
20004bc0:	4904      	ldr	r1, [pc, #16]	@ (20004bd4 <RCC_AHB2PeriphResetCmd+0x3c>)
20004bc2:	4013      	ands	r3, r2
20004bc4:	614b      	str	r3, [r1, #20]
}
20004bc6:	bf00      	nop
20004bc8:	370c      	adds	r7, #12
20004bca:	46bd      	mov	sp, r7
20004bcc:	f85d 7b04 	ldr.w	r7, [sp], #4
20004bd0:	4770      	bx	lr
20004bd2:	bf00      	nop
20004bd4:	40023800 	.word	0x40023800

20004bd8 <RCC_AHB3PeriphResetCmd>:
  * @param  NewState: new state of the specified peripheral reset.
  *          This parameter can be: ENABLE or DISABLE.
  * @retval None
  */
void RCC_AHB3PeriphResetCmd(uint32_t RCC_AHB3Periph, FunctionalState NewState)
{
20004bd8:	b480      	push	{r7}
20004bda:	b083      	sub	sp, #12
20004bdc:	af00      	add	r7, sp, #0
20004bde:	6078      	str	r0, [r7, #4]
20004be0:	460b      	mov	r3, r1
20004be2:	70fb      	strb	r3, [r7, #3]
  /* Check the parameters */
  assert_param(IS_RCC_AHB3_PERIPH(RCC_AHB3Periph));
  assert_param(IS_FUNCTIONAL_STATE(NewState));

  if (NewState != DISABLE)
20004be4:	78fb      	ldrb	r3, [r7, #3]
20004be6:	2b00      	cmp	r3, #0
20004be8:	d006      	beq.n	20004bf8 <RCC_AHB3PeriphResetCmd+0x20>
  {
    RCC->AHB3RSTR |= RCC_AHB3Periph;
20004bea:	4b0a      	ldr	r3, [pc, #40]	@ (20004c14 <RCC_AHB3PeriphResetCmd+0x3c>)
20004bec:	699a      	ldr	r2, [r3, #24]
20004bee:	4909      	ldr	r1, [pc, #36]	@ (20004c14 <RCC_AHB3PeriphResetCmd+0x3c>)
20004bf0:	687b      	ldr	r3, [r7, #4]
20004bf2:	4313      	orrs	r3, r2
20004bf4:	618b      	str	r3, [r1, #24]
  }
  else
  {
    RCC->AHB3RSTR &= ~RCC_AHB3Periph;
  }
}
20004bf6:	e006      	b.n	20004c06 <RCC_AHB3PeriphResetCmd+0x2e>
    RCC->AHB3RSTR &= ~RCC_AHB3Periph;
20004bf8:	4b06      	ldr	r3, [pc, #24]	@ (20004c14 <RCC_AHB3PeriphResetCmd+0x3c>)
20004bfa:	699a      	ldr	r2, [r3, #24]
20004bfc:	687b      	ldr	r3, [r7, #4]
20004bfe:	43db      	mvns	r3, r3
20004c00:	4904      	ldr	r1, [pc, #16]	@ (20004c14 <RCC_AHB3PeriphResetCmd+0x3c>)
20004c02:	4013      	ands	r3, r2
20004c04:	618b      	str	r3, [r1, #24]
}
20004c06:	bf00      	nop
20004c08:	370c      	adds	r7, #12
20004c0a:	46bd      	mov	sp, r7
20004c0c:	f85d 7b04 	ldr.w	r7, [sp], #4
20004c10:	4770      	bx	lr
20004c12:	bf00      	nop
20004c14:	40023800 	.word	0x40023800

20004c18 <RCC_APB1PeriphResetCmd>:
  * @param  NewState: new state of the specified peripheral reset.
  *          This parameter can be: ENABLE or DISABLE.
  * @retval None
  */
void RCC_APB1PeriphResetCmd(uint32_t RCC_APB1Periph, FunctionalState NewState)
{
20004c18:	b480      	push	{r7}
20004c1a:	b083      	sub	sp, #12
20004c1c:	af00      	add	r7, sp, #0
20004c1e:	6078      	str	r0, [r7, #4]
20004c20:	460b      	mov	r3, r1
20004c22:	70fb      	strb	r3, [r7, #3]
  /* Check the parameters */
  assert_param(IS_RCC_APB1_PERIPH(RCC_APB1Periph));
  assert_param(IS_FUNCTIONAL_STATE(NewState));
  if (NewState != DISABLE)
20004c24:	78fb      	ldrb	r3, [r7, #3]
20004c26:	2b00      	cmp	r3, #0
20004c28:	d006      	beq.n	20004c38 <RCC_APB1PeriphResetCmd+0x20>
  {
    RCC->APB1RSTR |= RCC_APB1Periph;
20004c2a:	4b0a      	ldr	r3, [pc, #40]	@ (20004c54 <RCC_APB1PeriphResetCmd+0x3c>)
20004c2c:	6a1a      	ldr	r2, [r3, #32]
20004c2e:	4909      	ldr	r1, [pc, #36]	@ (20004c54 <RCC_APB1PeriphResetCmd+0x3c>)
20004c30:	687b      	ldr	r3, [r7, #4]
20004c32:	4313      	orrs	r3, r2
20004c34:	620b      	str	r3, [r1, #32]
  }
  else
  {
    RCC->APB1RSTR &= ~RCC_APB1Periph;
  }
}
20004c36:	e006      	b.n	20004c46 <RCC_APB1PeriphResetCmd+0x2e>
    RCC->APB1RSTR &= ~RCC_APB1Periph;
20004c38:	4b06      	ldr	r3, [pc, #24]	@ (20004c54 <RCC_APB1PeriphResetCmd+0x3c>)
20004c3a:	6a1a      	ldr	r2, [r3, #32]
20004c3c:	687b      	ldr	r3, [r7, #4]
20004c3e:	43db      	mvns	r3, r3
20004c40:	4904      	ldr	r1, [pc, #16]	@ (20004c54 <RCC_APB1PeriphResetCmd+0x3c>)
20004c42:	4013      	ands	r3, r2
20004c44:	620b      	str	r3, [r1, #32]
}
20004c46:	bf00      	nop
20004c48:	370c      	adds	r7, #12
20004c4a:	46bd      	mov	sp, r7
20004c4c:	f85d 7b04 	ldr.w	r7, [sp], #4
20004c50:	4770      	bx	lr
20004c52:	bf00      	nop
20004c54:	40023800 	.word	0x40023800

20004c58 <RCC_APB2PeriphResetCmd>:
  * @param  NewState: new state of the specified peripheral reset.
  *          This parameter can be: ENABLE or DISABLE.
  * @retval None
  */
void RCC_APB2PeriphResetCmd(uint32_t RCC_APB2Periph, FunctionalState NewState)
{
20004c58:	b480      	push	{r7}
20004c5a:	b083      	sub	sp, #12
20004c5c:	af00      	add	r7, sp, #0
20004c5e:	6078      	str	r0, [r7, #4]
20004c60:	460b      	mov	r3, r1
20004c62:	70fb      	strb	r3, [r7, #3]
  /* Check the parameters */
  assert_param(IS_RCC_APB2_RESET_PERIPH(RCC_APB2Periph));
  assert_param(IS_FUNCTIONAL_STATE(NewState));
  if (NewState != DISABLE)
20004c64:	78fb      	ldrb	r3, [r7, #3]
20004c66:	2b00      	cmp	r3, #0
20004c68:	d006      	beq.n	20004c78 <RCC_APB2PeriphResetCmd+0x20>
  {
    RCC->APB2RSTR |= RCC_APB2Periph;
20004c6a:	4b0a      	ldr	r3, [pc, #40]	@ (20004c94 <RCC_APB2PeriphResetCmd+0x3c>)
20004c6c:	6a5a      	ldr	r2, [r3, #36]	@ 0x24
20004c6e:	4909      	ldr	r1, [pc, #36]	@ (20004c94 <RCC_APB2PeriphResetCmd+0x3c>)
20004c70:	687b      	ldr	r3, [r7, #4]
20004c72:	4313      	orrs	r3, r2
20004c74:	624b      	str	r3, [r1, #36]	@ 0x24
  }
  else
  {
    RCC->APB2RSTR &= ~RCC_APB2Periph;
  }
}
20004c76:	e006      	b.n	20004c86 <RCC_APB2PeriphResetCmd+0x2e>
    RCC->APB2RSTR &= ~RCC_APB2Periph;
20004c78:	4b06      	ldr	r3, [pc, #24]	@ (20004c94 <RCC_APB2PeriphResetCmd+0x3c>)
20004c7a:	6a5a      	ldr	r2, [r3, #36]	@ 0x24
20004c7c:	687b      	ldr	r3, [r7, #4]
20004c7e:	43db      	mvns	r3, r3
20004c80:	4904      	ldr	r1, [pc, #16]	@ (20004c94 <RCC_APB2PeriphResetCmd+0x3c>)
20004c82:	4013      	ands	r3, r2
20004c84:	624b      	str	r3, [r1, #36]	@ 0x24
}
20004c86:	bf00      	nop
20004c88:	370c      	adds	r7, #12
20004c8a:	46bd      	mov	sp, r7
20004c8c:	f85d 7b04 	ldr.w	r7, [sp], #4
20004c90:	4770      	bx	lr
20004c92:	bf00      	nop
20004c94:	40023800 	.word	0x40023800

20004c98 <RCC_AHB1PeriphClockLPModeCmd>:
  * @param  NewState: new state of the specified peripheral clock.
  *          This parameter can be: ENABLE or DISABLE.
  * @retval None
  */
void RCC_AHB1PeriphClockLPModeCmd(uint32_t RCC_AHB1Periph, FunctionalState NewState)
{
20004c98:	b480      	push	{r7}
20004c9a:	b083      	sub	sp, #12
20004c9c:	af00      	add	r7, sp, #0
20004c9e:	6078      	str	r0, [r7, #4]
20004ca0:	460b      	mov	r3, r1
20004ca2:	70fb      	strb	r3, [r7, #3]
  /* Check the parameters */
  assert_param(IS_RCC_AHB1_LPMODE_PERIPH(RCC_AHB1Periph));
  assert_param(IS_FUNCTIONAL_STATE(NewState));
  if (NewState != DISABLE)
20004ca4:	78fb      	ldrb	r3, [r7, #3]
20004ca6:	2b00      	cmp	r3, #0
20004ca8:	d006      	beq.n	20004cb8 <RCC_AHB1PeriphClockLPModeCmd+0x20>
  {
    RCC->AHB1LPENR |= RCC_AHB1Periph;
20004caa:	4b0a      	ldr	r3, [pc, #40]	@ (20004cd4 <RCC_AHB1PeriphClockLPModeCmd+0x3c>)
20004cac:	6d1a      	ldr	r2, [r3, #80]	@ 0x50
20004cae:	4909      	ldr	r1, [pc, #36]	@ (20004cd4 <RCC_AHB1PeriphClockLPModeCmd+0x3c>)
20004cb0:	687b      	ldr	r3, [r7, #4]
20004cb2:	4313      	orrs	r3, r2
20004cb4:	650b      	str	r3, [r1, #80]	@ 0x50
  }
  else
  {
    RCC->AHB1LPENR &= ~RCC_AHB1Periph;
  }
}
20004cb6:	e006      	b.n	20004cc6 <RCC_AHB1PeriphClockLPModeCmd+0x2e>
    RCC->AHB1LPENR &= ~RCC_AHB1Periph;
20004cb8:	4b06      	ldr	r3, [pc, #24]	@ (20004cd4 <RCC_AHB1PeriphClockLPModeCmd+0x3c>)
20004cba:	6d1a      	ldr	r2, [r3, #80]	@ 0x50
20004cbc:	687b      	ldr	r3, [r7, #4]
20004cbe:	43db      	mvns	r3, r3
20004cc0:	4904      	ldr	r1, [pc, #16]	@ (20004cd4 <RCC_AHB1PeriphClockLPModeCmd+0x3c>)
20004cc2:	4013      	ands	r3, r2
20004cc4:	650b      	str	r3, [r1, #80]	@ 0x50
}
20004cc6:	bf00      	nop
20004cc8:	370c      	adds	r7, #12
20004cca:	46bd      	mov	sp, r7
20004ccc:	f85d 7b04 	ldr.w	r7, [sp], #4
20004cd0:	4770      	bx	lr
20004cd2:	bf00      	nop
20004cd4:	40023800 	.word	0x40023800

20004cd8 <RCC_AHB2PeriphClockLPModeCmd>:
  * @param  NewState: new state of the specified peripheral clock.
  *          This parameter can be: ENABLE or DISABLE.
  * @retval None
  */
void RCC_AHB2PeriphClockLPModeCmd(uint32_t RCC_AHB2Periph, FunctionalState NewState)
{
20004cd8:	b480      	push	{r7}
20004cda:	b083      	sub	sp, #12
20004cdc:	af00      	add	r7, sp, #0
20004cde:	6078      	str	r0, [r7, #4]
20004ce0:	460b      	mov	r3, r1
20004ce2:	70fb      	strb	r3, [r7, #3]
  /* Check the parameters */
  assert_param(IS_RCC_AHB2_PERIPH(RCC_AHB2Periph));
  assert_param(IS_FUNCTIONAL_STATE(NewState));
  if (NewState != DISABLE)
20004ce4:	78fb      	ldrb	r3, [r7, #3]
20004ce6:	2b00      	cmp	r3, #0
20004ce8:	d006      	beq.n	20004cf8 <RCC_AHB2PeriphClockLPModeCmd+0x20>
  {
    RCC->AHB2LPENR |= RCC_AHB2Periph;
20004cea:	4b0a      	ldr	r3, [pc, #40]	@ (20004d14 <RCC_AHB2PeriphClockLPModeCmd+0x3c>)
20004cec:	6d5a      	ldr	r2, [r3, #84]	@ 0x54
20004cee:	4909      	ldr	r1, [pc, #36]	@ (20004d14 <RCC_AHB2PeriphClockLPModeCmd+0x3c>)
20004cf0:	687b      	ldr	r3, [r7, #4]
20004cf2:	4313      	orrs	r3, r2
20004cf4:	654b      	str	r3, [r1, #84]	@ 0x54
  }
  else
  {
    RCC->AHB2LPENR &= ~RCC_AHB2Periph;
  }
}
20004cf6:	e006      	b.n	20004d06 <RCC_AHB2PeriphClockLPModeCmd+0x2e>
    RCC->AHB2LPENR &= ~RCC_AHB2Periph;
20004cf8:	4b06      	ldr	r3, [pc, #24]	@ (20004d14 <RCC_AHB2PeriphClockLPModeCmd+0x3c>)
20004cfa:	6d5a      	ldr	r2, [r3, #84]	@ 0x54
20004cfc:	687b      	ldr	r3, [r7, #4]
20004cfe:	43db      	mvns	r3, r3
20004d00:	4904      	ldr	r1, [pc, #16]	@ (20004d14 <RCC_AHB2PeriphClockLPModeCmd+0x3c>)
20004d02:	4013      	ands	r3, r2
20004d04:	654b      	str	r3, [r1, #84]	@ 0x54
}
20004d06:	bf00      	nop
20004d08:	370c      	adds	r7, #12
20004d0a:	46bd      	mov	sp, r7
20004d0c:	f85d 7b04 	ldr.w	r7, [sp], #4
20004d10:	4770      	bx	lr
20004d12:	bf00      	nop
20004d14:	40023800 	.word	0x40023800

20004d18 <RCC_AHB3PeriphClockLPModeCmd>:
  * @param  NewState: new state of the specified peripheral clock.
  *          This parameter can be: ENABLE or DISABLE.
  * @retval None
  */
void RCC_AHB3PeriphClockLPModeCmd(uint32_t RCC_AHB3Periph, FunctionalState NewState)
{
20004d18:	b480      	push	{r7}
20004d1a:	b083      	sub	sp, #12
20004d1c:	af00      	add	r7, sp, #0
20004d1e:	6078      	str	r0, [r7, #4]
20004d20:	460b      	mov	r3, r1
20004d22:	70fb      	strb	r3, [r7, #3]
  /* Check the parameters */
  assert_param(IS_RCC_AHB3_PERIPH(RCC_AHB3Periph));
  assert_param(IS_FUNCTIONAL_STATE(NewState));
  if (NewState != DISABLE)
20004d24:	78fb      	ldrb	r3, [r7, #3]
20004d26:	2b00      	cmp	r3, #0
20004d28:	d006      	beq.n	20004d38 <RCC_AHB3PeriphClockLPModeCmd+0x20>
  {
    RCC->AHB3LPENR |= RCC_AHB3Periph;
20004d2a:	4b0a      	ldr	r3, [pc, #40]	@ (20004d54 <RCC_AHB3PeriphClockLPModeCmd+0x3c>)
20004d2c:	6d9a      	ldr	r2, [r3, #88]	@ 0x58
20004d2e:	4909      	ldr	r1, [pc, #36]	@ (20004d54 <RCC_AHB3PeriphClockLPModeCmd+0x3c>)
20004d30:	687b      	ldr	r3, [r7, #4]
20004d32:	4313      	orrs	r3, r2
20004d34:	658b      	str	r3, [r1, #88]	@ 0x58
  }
  else
  {
    RCC->AHB3LPENR &= ~RCC_AHB3Periph;
  }
}
20004d36:	e006      	b.n	20004d46 <RCC_AHB3PeriphClockLPModeCmd+0x2e>
    RCC->AHB3LPENR &= ~RCC_AHB3Periph;
20004d38:	4b06      	ldr	r3, [pc, #24]	@ (20004d54 <RCC_AHB3PeriphClockLPModeCmd+0x3c>)
20004d3a:	6d9a      	ldr	r2, [r3, #88]	@ 0x58
20004d3c:	687b      	ldr	r3, [r7, #4]
20004d3e:	43db      	mvns	r3, r3
20004d40:	4904      	ldr	r1, [pc, #16]	@ (20004d54 <RCC_AHB3PeriphClockLPModeCmd+0x3c>)
20004d42:	4013      	ands	r3, r2
20004d44:	658b      	str	r3, [r1, #88]	@ 0x58
}
20004d46:	bf00      	nop
20004d48:	370c      	adds	r7, #12
20004d4a:	46bd      	mov	sp, r7
20004d4c:	f85d 7b04 	ldr.w	r7, [sp], #4
20004d50:	4770      	bx	lr
20004d52:	bf00      	nop
20004d54:	40023800 	.word	0x40023800

20004d58 <RCC_APB1PeriphClockLPModeCmd>:
  * @param  NewState: new state of the specified peripheral clock.
  *          This parameter can be: ENABLE or DISABLE.
  * @retval None
  */
void RCC_APB1PeriphClockLPModeCmd(uint32_t RCC_APB1Periph, FunctionalState NewState)
{
20004d58:	b480      	push	{r7}
20004d5a:	b083      	sub	sp, #12
20004d5c:	af00      	add	r7, sp, #0
20004d5e:	6078      	str	r0, [r7, #4]
20004d60:	460b      	mov	r3, r1
20004d62:	70fb      	strb	r3, [r7, #3]
  /* Check the parameters */
  assert_param(IS_RCC_APB1_PERIPH(RCC_APB1Periph));
  assert_param(IS_FUNCTIONAL_STATE(NewState));
  if (NewState != DISABLE)
20004d64:	78fb      	ldrb	r3, [r7, #3]
20004d66:	2b00      	cmp	r3, #0
20004d68:	d006      	beq.n	20004d78 <RCC_APB1PeriphClockLPModeCmd+0x20>
  {
    RCC->APB1LPENR |= RCC_APB1Periph;
20004d6a:	4b0a      	ldr	r3, [pc, #40]	@ (20004d94 <RCC_APB1PeriphClockLPModeCmd+0x3c>)
20004d6c:	6e1a      	ldr	r2, [r3, #96]	@ 0x60
20004d6e:	4909      	ldr	r1, [pc, #36]	@ (20004d94 <RCC_APB1PeriphClockLPModeCmd+0x3c>)
20004d70:	687b      	ldr	r3, [r7, #4]
20004d72:	4313      	orrs	r3, r2
20004d74:	660b      	str	r3, [r1, #96]	@ 0x60
  }
  else
  {
    RCC->APB1LPENR &= ~RCC_APB1Periph;
  }
}
20004d76:	e006      	b.n	20004d86 <RCC_APB1PeriphClockLPModeCmd+0x2e>
    RCC->APB1LPENR &= ~RCC_APB1Periph;
20004d78:	4b06      	ldr	r3, [pc, #24]	@ (20004d94 <RCC_APB1PeriphClockLPModeCmd+0x3c>)
20004d7a:	6e1a      	ldr	r2, [r3, #96]	@ 0x60
20004d7c:	687b      	ldr	r3, [r7, #4]
20004d7e:	43db      	mvns	r3, r3
20004d80:	4904      	ldr	r1, [pc, #16]	@ (20004d94 <RCC_APB1PeriphClockLPModeCmd+0x3c>)
20004d82:	4013      	ands	r3, r2
20004d84:	660b      	str	r3, [r1, #96]	@ 0x60
}
20004d86:	bf00      	nop
20004d88:	370c      	adds	r7, #12
20004d8a:	46bd      	mov	sp, r7
20004d8c:	f85d 7b04 	ldr.w	r7, [sp], #4
20004d90:	4770      	bx	lr
20004d92:	bf00      	nop
20004d94:	40023800 	.word	0x40023800

20004d98 <RCC_APB2PeriphClockLPModeCmd>:
  * @param  NewState: new state of the specified peripheral clock.
  *          This parameter can be: ENABLE or DISABLE.
  * @retval None
  */
void RCC_APB2PeriphClockLPModeCmd(uint32_t RCC_APB2Periph, FunctionalState NewState)
{
20004d98:	b480      	push	{r7}
20004d9a:	b083      	sub	sp, #12
20004d9c:	af00      	add	r7, sp, #0
20004d9e:	6078      	str	r0, [r7, #4]
20004da0:	460b      	mov	r3, r1
20004da2:	70fb      	strb	r3, [r7, #3]
  /* Check the parameters */
  assert_param(IS_RCC_APB2_PERIPH(RCC_APB2Periph));
  assert_param(IS_FUNCTIONAL_STATE(NewState));
  if (NewState != DISABLE)
20004da4:	78fb      	ldrb	r3, [r7, #3]
20004da6:	2b00      	cmp	r3, #0
20004da8:	d006      	beq.n	20004db8 <RCC_APB2PeriphClockLPModeCmd+0x20>
  {
    RCC->APB2LPENR |= RCC_APB2Periph;
20004daa:	4b0a      	ldr	r3, [pc, #40]	@ (20004dd4 <RCC_APB2PeriphClockLPModeCmd+0x3c>)
20004dac:	6e5a      	ldr	r2, [r3, #100]	@ 0x64
20004dae:	4909      	ldr	r1, [pc, #36]	@ (20004dd4 <RCC_APB2PeriphClockLPModeCmd+0x3c>)
20004db0:	687b      	ldr	r3, [r7, #4]
20004db2:	4313      	orrs	r3, r2
20004db4:	664b      	str	r3, [r1, #100]	@ 0x64
  }
  else
  {
    RCC->APB2LPENR &= ~RCC_APB2Periph;
  }
}
20004db6:	e006      	b.n	20004dc6 <RCC_APB2PeriphClockLPModeCmd+0x2e>
    RCC->APB2LPENR &= ~RCC_APB2Periph;
20004db8:	4b06      	ldr	r3, [pc, #24]	@ (20004dd4 <RCC_APB2PeriphClockLPModeCmd+0x3c>)
20004dba:	6e5a      	ldr	r2, [r3, #100]	@ 0x64
20004dbc:	687b      	ldr	r3, [r7, #4]
20004dbe:	43db      	mvns	r3, r3
20004dc0:	4904      	ldr	r1, [pc, #16]	@ (20004dd4 <RCC_APB2PeriphClockLPModeCmd+0x3c>)
20004dc2:	4013      	ands	r3, r2
20004dc4:	664b      	str	r3, [r1, #100]	@ 0x64
}
20004dc6:	bf00      	nop
20004dc8:	370c      	adds	r7, #12
20004dca:	46bd      	mov	sp, r7
20004dcc:	f85d 7b04 	ldr.w	r7, [sp], #4
20004dd0:	4770      	bx	lr
20004dd2:	bf00      	nop
20004dd4:	40023800 	.word	0x40023800

20004dd8 <RCC_ITConfig>:
  * @param  NewState: new state of the specified RCC interrupts.
  *          This parameter can be: ENABLE or DISABLE.
  * @retval None
  */
void RCC_ITConfig(uint8_t RCC_IT, FunctionalState NewState)
{
20004dd8:	b480      	push	{r7}
20004dda:	b083      	sub	sp, #12
20004ddc:	af00      	add	r7, sp, #0
20004dde:	4603      	mov	r3, r0
20004de0:	460a      	mov	r2, r1
20004de2:	71fb      	strb	r3, [r7, #7]
20004de4:	4613      	mov	r3, r2
20004de6:	71bb      	strb	r3, [r7, #6]
  /* Check the parameters */
  assert_param(IS_RCC_IT(RCC_IT));
  assert_param(IS_FUNCTIONAL_STATE(NewState));
  if (NewState != DISABLE)
20004de8:	79bb      	ldrb	r3, [r7, #6]
20004dea:	2b00      	cmp	r3, #0
20004dec:	d008      	beq.n	20004e00 <RCC_ITConfig+0x28>
  {
    /* Perform Byte access to RCC_CIR[14:8] bits to enable the selected interrupts */
    *(__IO uint8_t *) CIR_BYTE2_ADDRESS |= RCC_IT;
20004dee:	4b0c      	ldr	r3, [pc, #48]	@ (20004e20 <RCC_ITConfig+0x48>)
20004df0:	781b      	ldrb	r3, [r3, #0]
20004df2:	b2da      	uxtb	r2, r3
20004df4:	490a      	ldr	r1, [pc, #40]	@ (20004e20 <RCC_ITConfig+0x48>)
20004df6:	79fb      	ldrb	r3, [r7, #7]
20004df8:	4313      	orrs	r3, r2
20004dfa:	b2db      	uxtb	r3, r3
20004dfc:	700b      	strb	r3, [r1, #0]
  else
  {
    /* Perform Byte access to RCC_CIR[14:8] bits to disable the selected interrupts */
    *(__IO uint8_t *) CIR_BYTE2_ADDRESS &= (uint8_t)~RCC_IT;
  }
}
20004dfe:	e009      	b.n	20004e14 <RCC_ITConfig+0x3c>
    *(__IO uint8_t *) CIR_BYTE2_ADDRESS &= (uint8_t)~RCC_IT;
20004e00:	4b07      	ldr	r3, [pc, #28]	@ (20004e20 <RCC_ITConfig+0x48>)
20004e02:	781b      	ldrb	r3, [r3, #0]
20004e04:	b2da      	uxtb	r2, r3
20004e06:	79fb      	ldrb	r3, [r7, #7]
20004e08:	43db      	mvns	r3, r3
20004e0a:	b2db      	uxtb	r3, r3
20004e0c:	4904      	ldr	r1, [pc, #16]	@ (20004e20 <RCC_ITConfig+0x48>)
20004e0e:	4013      	ands	r3, r2
20004e10:	b2db      	uxtb	r3, r3
20004e12:	700b      	strb	r3, [r1, #0]
}
20004e14:	bf00      	nop
20004e16:	370c      	adds	r7, #12
20004e18:	46bd      	mov	sp, r7
20004e1a:	f85d 7b04 	ldr.w	r7, [sp], #4
20004e1e:	4770      	bx	lr
20004e20:	4002380d 	.word	0x4002380d

20004e24 <RCC_GetFlagStatus>:
  *            @arg RCC_FLAG_WWDGRST: Window Watchdog reset
  *            @arg RCC_FLAG_LPWRRST: Low Power reset
  * @retval The new state of RCC_FLAG (SET or RESET).
  */
FlagStatus RCC_GetFlagStatus(uint8_t RCC_FLAG)
{
20004e24:	b480      	push	{r7}
20004e26:	b087      	sub	sp, #28
20004e28:	af00      	add	r7, sp, #0
20004e2a:	4603      	mov	r3, r0
20004e2c:	71fb      	strb	r3, [r7, #7]
  uint32_t tmp = 0;
20004e2e:	2300      	movs	r3, #0
20004e30:	60fb      	str	r3, [r7, #12]
  uint32_t statusreg = 0;
20004e32:	2300      	movs	r3, #0
20004e34:	617b      	str	r3, [r7, #20]
  FlagStatus bitstatus = RESET;
20004e36:	2300      	movs	r3, #0
20004e38:	74fb      	strb	r3, [r7, #19]

  /* Check the parameters */
  assert_param(IS_RCC_FLAG(RCC_FLAG));

  /* Get the RCC register index */
  tmp = RCC_FLAG >> 5;
20004e3a:	79fb      	ldrb	r3, [r7, #7]
20004e3c:	095b      	lsrs	r3, r3, #5
20004e3e:	b2db      	uxtb	r3, r3
20004e40:	60fb      	str	r3, [r7, #12]
  if (tmp == 1)               /* The flag to check is in CR register */
20004e42:	68fb      	ldr	r3, [r7, #12]
20004e44:	2b01      	cmp	r3, #1
20004e46:	d103      	bne.n	20004e50 <RCC_GetFlagStatus+0x2c>
  {
    statusreg = RCC->CR;
20004e48:	4b12      	ldr	r3, [pc, #72]	@ (20004e94 <RCC_GetFlagStatus+0x70>)
20004e4a:	681b      	ldr	r3, [r3, #0]
20004e4c:	617b      	str	r3, [r7, #20]
20004e4e:	e009      	b.n	20004e64 <RCC_GetFlagStatus+0x40>
  }
  else if (tmp == 2)          /* The flag to check is in BDCR register */
20004e50:	68fb      	ldr	r3, [r7, #12]
20004e52:	2b02      	cmp	r3, #2
20004e54:	d103      	bne.n	20004e5e <RCC_GetFlagStatus+0x3a>
  {
    statusreg = RCC->BDCR;
20004e56:	4b0f      	ldr	r3, [pc, #60]	@ (20004e94 <RCC_GetFlagStatus+0x70>)
20004e58:	6f1b      	ldr	r3, [r3, #112]	@ 0x70
20004e5a:	617b      	str	r3, [r7, #20]
20004e5c:	e002      	b.n	20004e64 <RCC_GetFlagStatus+0x40>
  }
  else                       /* The flag to check is in CSR register */
  {
    statusreg = RCC->CSR;
20004e5e:	4b0d      	ldr	r3, [pc, #52]	@ (20004e94 <RCC_GetFlagStatus+0x70>)
20004e60:	6f5b      	ldr	r3, [r3, #116]	@ 0x74
20004e62:	617b      	str	r3, [r7, #20]
  }

  /* Get the flag position */
  tmp = RCC_FLAG & FLAG_MASK;
20004e64:	79fb      	ldrb	r3, [r7, #7]
20004e66:	f003 031f 	and.w	r3, r3, #31
20004e6a:	60fb      	str	r3, [r7, #12]
  if ((statusreg & ((uint32_t)1 << tmp)) != (uint32_t)RESET)
20004e6c:	697a      	ldr	r2, [r7, #20]
20004e6e:	68fb      	ldr	r3, [r7, #12]
20004e70:	fa22 f303 	lsr.w	r3, r2, r3
20004e74:	f003 0301 	and.w	r3, r3, #1
20004e78:	2b00      	cmp	r3, #0
20004e7a:	d002      	beq.n	20004e82 <RCC_GetFlagStatus+0x5e>
  {
    bitstatus = SET;
20004e7c:	2301      	movs	r3, #1
20004e7e:	74fb      	strb	r3, [r7, #19]
20004e80:	e001      	b.n	20004e86 <RCC_GetFlagStatus+0x62>
  }
  else
  {
    bitstatus = RESET;
20004e82:	2300      	movs	r3, #0
20004e84:	74fb      	strb	r3, [r7, #19]
  }
  /* Return the flag status */
  return bitstatus;
20004e86:	7cfb      	ldrb	r3, [r7, #19]
}
20004e88:	4618      	mov	r0, r3
20004e8a:	371c      	adds	r7, #28
20004e8c:	46bd      	mov	sp, r7
20004e8e:	f85d 7b04 	ldr.w	r7, [sp], #4
20004e92:	4770      	bx	lr
20004e94:	40023800 	.word	0x40023800

20004e98 <RCC_ClearFlag>:
  *         RCC_FLAG_IWDGRST, RCC_FLAG_WWDGRST, RCC_FLAG_LPWRRST
  * @param  None
  * @retval None
  */
void RCC_ClearFlag(void)
{
20004e98:	b480      	push	{r7}
20004e9a:	af00      	add	r7, sp, #0
  /* Set RMVF bit to clear the reset flags */
  RCC->CSR |= RCC_CSR_RMVF;
20004e9c:	4b05      	ldr	r3, [pc, #20]	@ (20004eb4 <RCC_ClearFlag+0x1c>)
20004e9e:	6f5b      	ldr	r3, [r3, #116]	@ 0x74
20004ea0:	4a04      	ldr	r2, [pc, #16]	@ (20004eb4 <RCC_ClearFlag+0x1c>)
20004ea2:	f043 7380 	orr.w	r3, r3, #16777216	@ 0x1000000
20004ea6:	6753      	str	r3, [r2, #116]	@ 0x74
}
20004ea8:	bf00      	nop
20004eaa:	46bd      	mov	sp, r7
20004eac:	f85d 7b04 	ldr.w	r7, [sp], #4
20004eb0:	4770      	bx	lr
20004eb2:	bf00      	nop
20004eb4:	40023800 	.word	0x40023800

20004eb8 <RCC_GetITStatus>:
  *            @arg RCC_IT_PLLSAIRDY: PLLSAI clock ready interrupt (only for STM32F42xxx/43xxx devices)    
  *            @arg RCC_IT_CSS: Clock Security System interrupt
  * @retval The new state of RCC_IT (SET or RESET).
  */
ITStatus RCC_GetITStatus(uint8_t RCC_IT)
{
20004eb8:	b480      	push	{r7}
20004eba:	b085      	sub	sp, #20
20004ebc:	af00      	add	r7, sp, #0
20004ebe:	4603      	mov	r3, r0
20004ec0:	71fb      	strb	r3, [r7, #7]
  ITStatus bitstatus = RESET;
20004ec2:	2300      	movs	r3, #0
20004ec4:	73fb      	strb	r3, [r7, #15]

  /* Check the parameters */
  assert_param(IS_RCC_GET_IT(RCC_IT));

  /* Check the status of the specified RCC interrupt */
  if ((RCC->CIR & RCC_IT) != (uint32_t)RESET)
20004ec6:	4b09      	ldr	r3, [pc, #36]	@ (20004eec <RCC_GetITStatus+0x34>)
20004ec8:	68da      	ldr	r2, [r3, #12]
20004eca:	79fb      	ldrb	r3, [r7, #7]
20004ecc:	4013      	ands	r3, r2
20004ece:	2b00      	cmp	r3, #0
20004ed0:	d002      	beq.n	20004ed8 <RCC_GetITStatus+0x20>
  {
    bitstatus = SET;
20004ed2:	2301      	movs	r3, #1
20004ed4:	73fb      	strb	r3, [r7, #15]
20004ed6:	e001      	b.n	20004edc <RCC_GetITStatus+0x24>
  }
  else
  {
    bitstatus = RESET;
20004ed8:	2300      	movs	r3, #0
20004eda:	73fb      	strb	r3, [r7, #15]
  }
  /* Return the RCC_IT status */
  return  bitstatus;
20004edc:	7bfb      	ldrb	r3, [r7, #15]
}
20004ede:	4618      	mov	r0, r3
20004ee0:	3714      	adds	r7, #20
20004ee2:	46bd      	mov	sp, r7
20004ee4:	f85d 7b04 	ldr.w	r7, [sp], #4
20004ee8:	4770      	bx	lr
20004eea:	bf00      	nop
20004eec:	40023800 	.word	0x40023800

20004ef0 <RCC_ClearITPendingBit>:
  *            @arg RCC_IT_PLLSAIRDY: PLLSAI ready interrupt (only for STM32F42xxx/43xxx devices)   
  *            @arg RCC_IT_CSS: Clock Security System interrupt
  * @retval None
  */
void RCC_ClearITPendingBit(uint8_t RCC_IT)
{
20004ef0:	b480      	push	{r7}
20004ef2:	b083      	sub	sp, #12
20004ef4:	af00      	add	r7, sp, #0
20004ef6:	4603      	mov	r3, r0
20004ef8:	71fb      	strb	r3, [r7, #7]
  /* Check the parameters */
  assert_param(IS_RCC_CLEAR_IT(RCC_IT));

  /* Perform Byte access to RCC_CIR[23:16] bits to clear the selected interrupt
     pending bits */
  *(__IO uint8_t *) CIR_BYTE3_ADDRESS = RCC_IT;
20004efa:	4a04      	ldr	r2, [pc, #16]	@ (20004f0c <RCC_ClearITPendingBit+0x1c>)
20004efc:	79fb      	ldrb	r3, [r7, #7]
20004efe:	7013      	strb	r3, [r2, #0]
}
20004f00:	bf00      	nop
20004f02:	370c      	adds	r7, #12
20004f04:	46bd      	mov	sp, r7
20004f06:	f85d 7b04 	ldr.w	r7, [sp], #4
20004f0a:	4770      	bx	lr
20004f0c:	4002380e 	.word	0x4002380e

20004f10 <SYSCFG_DeInit>:
  *   registers to their default reset values.
  * @param  None
  * @retval None
  */
void SYSCFG_DeInit(void)
{
20004f10:	b580      	push	{r7, lr}
20004f12:	af00      	add	r7, sp, #0
   RCC_APB2PeriphResetCmd(RCC_APB2Periph_SYSCFG, ENABLE);
20004f14:	2101      	movs	r1, #1
20004f16:	f44f 4080 	mov.w	r0, #16384	@ 0x4000
20004f1a:	f7ff fe9d 	bl	20004c58 <RCC_APB2PeriphResetCmd>
   RCC_APB2PeriphResetCmd(RCC_APB2Periph_SYSCFG, DISABLE);
20004f1e:	2100      	movs	r1, #0
20004f20:	f44f 4080 	mov.w	r0, #16384	@ 0x4000
20004f24:	f7ff fe98 	bl	20004c58 <RCC_APB2PeriphResetCmd>
}
20004f28:	bf00      	nop
20004f2a:	bd80      	pop	{r7, pc}

20004f2c <SYSCFG_MemoryRemapConfig>:
  *            @arg SYSCFG_MemoryRemap_SRAM:        Embedded SRAM (112kB) mapped at 0x00000000
  *            @arg SYSCFG_MemoryRemap_SDRAM:       FMC (External SDRAM)  mapped at 0x00000000 for STM32F42xxx/43xxx devices.            
  * @retval None
  */
void SYSCFG_MemoryRemapConfig(uint8_t SYSCFG_MemoryRemap)
{
20004f2c:	b480      	push	{r7}
20004f2e:	b083      	sub	sp, #12
20004f30:	af00      	add	r7, sp, #0
20004f32:	4603      	mov	r3, r0
20004f34:	71fb      	strb	r3, [r7, #7]
  /* Check the parameters */
  assert_param(IS_SYSCFG_MEMORY_REMAP_CONFING(SYSCFG_MemoryRemap));

  SYSCFG->MEMRMP = SYSCFG_MemoryRemap;
20004f36:	4a04      	ldr	r2, [pc, #16]	@ (20004f48 <SYSCFG_MemoryRemapConfig+0x1c>)
20004f38:	79fb      	ldrb	r3, [r7, #7]
20004f3a:	6013      	str	r3, [r2, #0]
}
20004f3c:	bf00      	nop
20004f3e:	370c      	adds	r7, #12
20004f40:	46bd      	mov	sp, r7
20004f42:	f85d 7b04 	ldr.w	r7, [sp], #4
20004f46:	4770      	bx	lr
20004f48:	40013800 	.word	0x40013800

20004f4c <SYSCFG_MemorySwappingBank>:
  *            @arg DISABLE:(the default state) Flash Bank1 mapped at 0x08000000 (and aliased @0x0000 0000) 
                            and Flash Bank2 mapped at 0x08100000 (and aliased at 0x00100000)  
  * @retval None
  */
void SYSCFG_MemorySwappingBank(FunctionalState NewState)
{
20004f4c:	b480      	push	{r7}
20004f4e:	b083      	sub	sp, #12
20004f50:	af00      	add	r7, sp, #0
20004f52:	4603      	mov	r3, r0
20004f54:	71fb      	strb	r3, [r7, #7]
  /* Check the parameters */
  assert_param(IS_FUNCTIONAL_STATE(NewState));

  *(__IO uint32_t *) UFB_MODE_BB = (uint32_t)NewState;
20004f56:	4a04      	ldr	r2, [pc, #16]	@ (20004f68 <SYSCFG_MemorySwappingBank+0x1c>)
20004f58:	79fb      	ldrb	r3, [r7, #7]
20004f5a:	6013      	str	r3, [r2, #0]
}
20004f5c:	bf00      	nop
20004f5e:	370c      	adds	r7, #12
20004f60:	46bd      	mov	sp, r7
20004f62:	f85d 7b04 	ldr.w	r7, [sp], #4
20004f66:	4770      	bx	lr
20004f68:	42270020 	.word	0x42270020

20004f6c <SYSCFG_EXTILineConfig>:
  *           be (0..7) for STM32F42xxx/43xxx devices. 
  *             
  * @retval None
  */
void SYSCFG_EXTILineConfig(uint8_t EXTI_PortSourceGPIOx, uint8_t EXTI_PinSourcex)
{
20004f6c:	b480      	push	{r7}
20004f6e:	b085      	sub	sp, #20
20004f70:	af00      	add	r7, sp, #0
20004f72:	4603      	mov	r3, r0
20004f74:	460a      	mov	r2, r1
20004f76:	71fb      	strb	r3, [r7, #7]
20004f78:	4613      	mov	r3, r2
20004f7a:	71bb      	strb	r3, [r7, #6]
  uint32_t tmp = 0x00;
20004f7c:	2300      	movs	r3, #0
20004f7e:	60fb      	str	r3, [r7, #12]

  /* Check the parameters */
  assert_param(IS_EXTI_PORT_SOURCE(EXTI_PortSourceGPIOx));
  assert_param(IS_EXTI_PIN_SOURCE(EXTI_PinSourcex));

  tmp = ((uint32_t)0x0F) << (0x04 * (EXTI_PinSourcex & (uint8_t)0x03));
20004f80:	79bb      	ldrb	r3, [r7, #6]
20004f82:	f003 0303 	and.w	r3, r3, #3
20004f86:	009b      	lsls	r3, r3, #2
20004f88:	220f      	movs	r2, #15
20004f8a:	fa02 f303 	lsl.w	r3, r2, r3
20004f8e:	60fb      	str	r3, [r7, #12]
  SYSCFG->EXTICR[EXTI_PinSourcex >> 0x02] &= ~tmp;
20004f90:	4a16      	ldr	r2, [pc, #88]	@ (20004fec <SYSCFG_EXTILineConfig+0x80>)
20004f92:	79bb      	ldrb	r3, [r7, #6]
20004f94:	089b      	lsrs	r3, r3, #2
20004f96:	b2db      	uxtb	r3, r3
20004f98:	3302      	adds	r3, #2
20004f9a:	f852 2023 	ldr.w	r2, [r2, r3, lsl #2]
20004f9e:	68fb      	ldr	r3, [r7, #12]
20004fa0:	43db      	mvns	r3, r3
20004fa2:	4812      	ldr	r0, [pc, #72]	@ (20004fec <SYSCFG_EXTILineConfig+0x80>)
20004fa4:	79b9      	ldrb	r1, [r7, #6]
20004fa6:	0889      	lsrs	r1, r1, #2
20004fa8:	b2c9      	uxtb	r1, r1
20004faa:	401a      	ands	r2, r3
20004fac:	1c8b      	adds	r3, r1, #2
20004fae:	f840 2023 	str.w	r2, [r0, r3, lsl #2]
  SYSCFG->EXTICR[EXTI_PinSourcex >> 0x02] |= (((uint32_t)EXTI_PortSourceGPIOx) << (0x04 * (EXTI_PinSourcex & (uint8_t)0x03)));
20004fb2:	4a0e      	ldr	r2, [pc, #56]	@ (20004fec <SYSCFG_EXTILineConfig+0x80>)
20004fb4:	79bb      	ldrb	r3, [r7, #6]
20004fb6:	089b      	lsrs	r3, r3, #2
20004fb8:	b2db      	uxtb	r3, r3
20004fba:	3302      	adds	r3, #2
20004fbc:	f852 2023 	ldr.w	r2, [r2, r3, lsl #2]
20004fc0:	79f9      	ldrb	r1, [r7, #7]
20004fc2:	79bb      	ldrb	r3, [r7, #6]
20004fc4:	f003 0303 	and.w	r3, r3, #3
20004fc8:	009b      	lsls	r3, r3, #2
20004fca:	fa01 f303 	lsl.w	r3, r1, r3
20004fce:	4807      	ldr	r0, [pc, #28]	@ (20004fec <SYSCFG_EXTILineConfig+0x80>)
20004fd0:	79b9      	ldrb	r1, [r7, #6]
20004fd2:	0889      	lsrs	r1, r1, #2
20004fd4:	b2c9      	uxtb	r1, r1
20004fd6:	431a      	orrs	r2, r3
20004fd8:	1c8b      	adds	r3, r1, #2
20004fda:	f840 2023 	str.w	r2, [r0, r3, lsl #2]
}
20004fde:	bf00      	nop
20004fe0:	3714      	adds	r7, #20
20004fe2:	46bd      	mov	sp, r7
20004fe4:	f85d 7b04 	ldr.w	r7, [sp], #4
20004fe8:	4770      	bx	lr
20004fea:	bf00      	nop
20004fec:	40013800 	.word	0x40013800

20004ff0 <SYSCFG_ETH_MediaInterfaceConfig>:
  *            @arg SYSCFG_ETH_MediaInterface_MII: MII mode selected
  *            @arg SYSCFG_ETH_MediaInterface_RMII: RMII mode selected 
  * @retval None 
  */
void SYSCFG_ETH_MediaInterfaceConfig(uint32_t SYSCFG_ETH_MediaInterface) 
{ 
20004ff0:	b480      	push	{r7}
20004ff2:	b083      	sub	sp, #12
20004ff4:	af00      	add	r7, sp, #0
20004ff6:	6078      	str	r0, [r7, #4]
  assert_param(IS_SYSCFG_ETH_MEDIA_INTERFACE(SYSCFG_ETH_MediaInterface)); 
  /* Configure MII_RMII selection bit */ 
  *(__IO uint32_t *) PMC_MII_RMII_SEL_BB = SYSCFG_ETH_MediaInterface; 
20004ff8:	4a04      	ldr	r2, [pc, #16]	@ (2000500c <SYSCFG_ETH_MediaInterfaceConfig+0x1c>)
20004ffa:	687b      	ldr	r3, [r7, #4]
20004ffc:	6013      	str	r3, [r2, #0]
}
20004ffe:	bf00      	nop
20005000:	370c      	adds	r7, #12
20005002:	46bd      	mov	sp, r7
20005004:	f85d 7b04 	ldr.w	r7, [sp], #4
20005008:	4770      	bx	lr
2000500a:	bf00      	nop
2000500c:	422700dc 	.word	0x422700dc

20005010 <SYSCFG_CompensationCellCmd>:
  *            @arg ENABLE: I/O compensation cell enabled  
  *            @arg DISABLE: I/O compensation cell power-down mode  
  * @retval None
  */
void SYSCFG_CompensationCellCmd(FunctionalState NewState)
{
20005010:	b480      	push	{r7}
20005012:	b083      	sub	sp, #12
20005014:	af00      	add	r7, sp, #0
20005016:	4603      	mov	r3, r0
20005018:	71fb      	strb	r3, [r7, #7]
  /* Check the parameters */
  assert_param(IS_FUNCTIONAL_STATE(NewState));

  *(__IO uint32_t *) CMPCR_CMP_PD_BB = (uint32_t)NewState;
2000501a:	4a04      	ldr	r2, [pc, #16]	@ (2000502c <SYSCFG_CompensationCellCmd+0x1c>)
2000501c:	79fb      	ldrb	r3, [r7, #7]
2000501e:	6013      	str	r3, [r2, #0]
}
20005020:	bf00      	nop
20005022:	370c      	adds	r7, #12
20005024:	46bd      	mov	sp, r7
20005026:	f85d 7b04 	ldr.w	r7, [sp], #4
2000502a:	4770      	bx	lr
2000502c:	42270400 	.word	0x42270400

20005030 <SYSCFG_GetCompensationCellStatus>:
  * @brief  Checks whether the I/O Compensation Cell ready flag is set or not.
  * @param  None
  * @retval The new state of the I/O Compensation Cell ready flag (SET or RESET)
  */
FlagStatus SYSCFG_GetCompensationCellStatus(void)
{
20005030:	b480      	push	{r7}
20005032:	b083      	sub	sp, #12
20005034:	af00      	add	r7, sp, #0
  FlagStatus bitstatus = RESET;
20005036:	2300      	movs	r3, #0
20005038:	71fb      	strb	r3, [r7, #7]
    
  if ((SYSCFG->CMPCR & SYSCFG_CMPCR_READY ) != (uint32_t)RESET)
2000503a:	4b09      	ldr	r3, [pc, #36]	@ (20005060 <SYSCFG_GetCompensationCellStatus+0x30>)
2000503c:	6a1b      	ldr	r3, [r3, #32]
2000503e:	f403 7380 	and.w	r3, r3, #256	@ 0x100
20005042:	2b00      	cmp	r3, #0
20005044:	d002      	beq.n	2000504c <SYSCFG_GetCompensationCellStatus+0x1c>
  {
    bitstatus = SET;
20005046:	2301      	movs	r3, #1
20005048:	71fb      	strb	r3, [r7, #7]
2000504a:	e001      	b.n	20005050 <SYSCFG_GetCompensationCellStatus+0x20>
  }
  else
  {
    bitstatus = RESET;
2000504c:	2300      	movs	r3, #0
2000504e:	71fb      	strb	r3, [r7, #7]
  }
  return bitstatus;
20005050:	79fb      	ldrb	r3, [r7, #7]
}
20005052:	4618      	mov	r0, r3
20005054:	370c      	adds	r7, #12
20005056:	46bd      	mov	sp, r7
20005058:	f85d 7b04 	ldr.w	r7, [sp], #4
2000505c:	4770      	bx	lr
2000505e:	bf00      	nop
20005060:	40013800 	.word	0x40013800

20005064 <TIM_DeInit>:
  * @param  TIMx: where x can be 1 to 14 to select the TIM peripheral.
  * @retval None

  */
void TIM_DeInit(TIM_TypeDef* TIMx)
{
20005064:	b580      	push	{r7, lr}
20005066:	b082      	sub	sp, #8
20005068:	af00      	add	r7, sp, #0
2000506a:	6078      	str	r0, [r7, #4]
  /* Check the parameters */
  assert_param(IS_TIM_ALL_PERIPH(TIMx)); 
 
  if (TIMx == TIM1)
2000506c:	687b      	ldr	r3, [r7, #4]
2000506e:	4a60      	ldr	r2, [pc, #384]	@ (200051f0 <TIM_DeInit+0x18c>)
20005070:	4293      	cmp	r3, r2
20005072:	d108      	bne.n	20005086 <TIM_DeInit+0x22>
  {
    RCC_APB2PeriphResetCmd(RCC_APB2Periph_TIM1, ENABLE);
20005074:	2101      	movs	r1, #1
20005076:	2001      	movs	r0, #1
20005078:	f7ff fdee 	bl	20004c58 <RCC_APB2PeriphResetCmd>
    RCC_APB2PeriphResetCmd(RCC_APB2Periph_TIM1, DISABLE);  
2000507c:	2100      	movs	r1, #0
2000507e:	2001      	movs	r0, #1
20005080:	f7ff fdea 	bl	20004c58 <RCC_APB2PeriphResetCmd>
    {     
      RCC_APB1PeriphResetCmd(RCC_APB1Periph_TIM14, ENABLE);
      RCC_APB1PeriphResetCmd(RCC_APB1Periph_TIM14, DISABLE); 
    }   
  }
}
20005084:	e0af      	b.n	200051e6 <TIM_DeInit+0x182>
  else if (TIMx == TIM2) 
20005086:	687b      	ldr	r3, [r7, #4]
20005088:	f1b3 4f80 	cmp.w	r3, #1073741824	@ 0x40000000
2000508c:	d108      	bne.n	200050a0 <TIM_DeInit+0x3c>
    RCC_APB1PeriphResetCmd(RCC_APB1Periph_TIM2, ENABLE);
2000508e:	2101      	movs	r1, #1
20005090:	2001      	movs	r0, #1
20005092:	f7ff fdc1 	bl	20004c18 <RCC_APB1PeriphResetCmd>
    RCC_APB1PeriphResetCmd(RCC_APB1Periph_TIM2, DISABLE);
20005096:	2100      	movs	r1, #0
20005098:	2001      	movs	r0, #1
2000509a:	f7ff fdbd 	bl	20004c18 <RCC_APB1PeriphResetCmd>
}
2000509e:	e0a2      	b.n	200051e6 <TIM_DeInit+0x182>
  else if (TIMx == TIM3)
200050a0:	687b      	ldr	r3, [r7, #4]
200050a2:	4a54      	ldr	r2, [pc, #336]	@ (200051f4 <TIM_DeInit+0x190>)
200050a4:	4293      	cmp	r3, r2
200050a6:	d108      	bne.n	200050ba <TIM_DeInit+0x56>
    RCC_APB1PeriphResetCmd(RCC_APB1Periph_TIM3, ENABLE);
200050a8:	2101      	movs	r1, #1
200050aa:	2002      	movs	r0, #2
200050ac:	f7ff fdb4 	bl	20004c18 <RCC_APB1PeriphResetCmd>
    RCC_APB1PeriphResetCmd(RCC_APB1Periph_TIM3, DISABLE);
200050b0:	2100      	movs	r1, #0
200050b2:	2002      	movs	r0, #2
200050b4:	f7ff fdb0 	bl	20004c18 <RCC_APB1PeriphResetCmd>
}
200050b8:	e095      	b.n	200051e6 <TIM_DeInit+0x182>
  else if (TIMx == TIM4)
200050ba:	687b      	ldr	r3, [r7, #4]
200050bc:	4a4e      	ldr	r2, [pc, #312]	@ (200051f8 <TIM_DeInit+0x194>)
200050be:	4293      	cmp	r3, r2
200050c0:	d108      	bne.n	200050d4 <TIM_DeInit+0x70>
    RCC_APB1PeriphResetCmd(RCC_APB1Periph_TIM4, ENABLE);
200050c2:	2101      	movs	r1, #1
200050c4:	2004      	movs	r0, #4
200050c6:	f7ff fda7 	bl	20004c18 <RCC_APB1PeriphResetCmd>
    RCC_APB1PeriphResetCmd(RCC_APB1Periph_TIM4, DISABLE);
200050ca:	2100      	movs	r1, #0
200050cc:	2004      	movs	r0, #4
200050ce:	f7ff fda3 	bl	20004c18 <RCC_APB1PeriphResetCmd>
}
200050d2:	e088      	b.n	200051e6 <TIM_DeInit+0x182>
  else if (TIMx == TIM5)
200050d4:	687b      	ldr	r3, [r7, #4]
200050d6:	4a49      	ldr	r2, [pc, #292]	@ (200051fc <TIM_DeInit+0x198>)
200050d8:	4293      	cmp	r3, r2
200050da:	d108      	bne.n	200050ee <TIM_DeInit+0x8a>
    RCC_APB1PeriphResetCmd(RCC_APB1Periph_TIM5, ENABLE);
200050dc:	2101      	movs	r1, #1
200050de:	2008      	movs	r0, #8
200050e0:	f7ff fd9a 	bl	20004c18 <RCC_APB1PeriphResetCmd>
    RCC_APB1PeriphResetCmd(RCC_APB1Periph_TIM5, DISABLE);
200050e4:	2100      	movs	r1, #0
200050e6:	2008      	movs	r0, #8
200050e8:	f7ff fd96 	bl	20004c18 <RCC_APB1PeriphResetCmd>
}
200050ec:	e07b      	b.n	200051e6 <TIM_DeInit+0x182>
  else if (TIMx == TIM6)  
200050ee:	687b      	ldr	r3, [r7, #4]
200050f0:	4a43      	ldr	r2, [pc, #268]	@ (20005200 <TIM_DeInit+0x19c>)
200050f2:	4293      	cmp	r3, r2
200050f4:	d108      	bne.n	20005108 <TIM_DeInit+0xa4>
    RCC_APB1PeriphResetCmd(RCC_APB1Periph_TIM6, ENABLE);
200050f6:	2101      	movs	r1, #1
200050f8:	2010      	movs	r0, #16
200050fa:	f7ff fd8d 	bl	20004c18 <RCC_APB1PeriphResetCmd>
    RCC_APB1PeriphResetCmd(RCC_APB1Periph_TIM6, DISABLE);
200050fe:	2100      	movs	r1, #0
20005100:	2010      	movs	r0, #16
20005102:	f7ff fd89 	bl	20004c18 <RCC_APB1PeriphResetCmd>
}
20005106:	e06e      	b.n	200051e6 <TIM_DeInit+0x182>
  else if (TIMx == TIM7)
20005108:	687b      	ldr	r3, [r7, #4]
2000510a:	4a3e      	ldr	r2, [pc, #248]	@ (20005204 <TIM_DeInit+0x1a0>)
2000510c:	4293      	cmp	r3, r2
2000510e:	d108      	bne.n	20005122 <TIM_DeInit+0xbe>
    RCC_APB1PeriphResetCmd(RCC_APB1Periph_TIM7, ENABLE);
20005110:	2101      	movs	r1, #1
20005112:	2020      	movs	r0, #32
20005114:	f7ff fd80 	bl	20004c18 <RCC_APB1PeriphResetCmd>
    RCC_APB1PeriphResetCmd(RCC_APB1Periph_TIM7, DISABLE);
20005118:	2100      	movs	r1, #0
2000511a:	2020      	movs	r0, #32
2000511c:	f7ff fd7c 	bl	20004c18 <RCC_APB1PeriphResetCmd>
}
20005120:	e061      	b.n	200051e6 <TIM_DeInit+0x182>
  else if (TIMx == TIM8)
20005122:	687b      	ldr	r3, [r7, #4]
20005124:	4a38      	ldr	r2, [pc, #224]	@ (20005208 <TIM_DeInit+0x1a4>)
20005126:	4293      	cmp	r3, r2
20005128:	d108      	bne.n	2000513c <TIM_DeInit+0xd8>
    RCC_APB2PeriphResetCmd(RCC_APB2Periph_TIM8, ENABLE);
2000512a:	2101      	movs	r1, #1
2000512c:	2002      	movs	r0, #2
2000512e:	f7ff fd93 	bl	20004c58 <RCC_APB2PeriphResetCmd>
    RCC_APB2PeriphResetCmd(RCC_APB2Periph_TIM8, DISABLE);  
20005132:	2100      	movs	r1, #0
20005134:	2002      	movs	r0, #2
20005136:	f7ff fd8f 	bl	20004c58 <RCC_APB2PeriphResetCmd>
}
2000513a:	e054      	b.n	200051e6 <TIM_DeInit+0x182>
  else if (TIMx == TIM9)
2000513c:	687b      	ldr	r3, [r7, #4]
2000513e:	4a33      	ldr	r2, [pc, #204]	@ (2000520c <TIM_DeInit+0x1a8>)
20005140:	4293      	cmp	r3, r2
20005142:	d10a      	bne.n	2000515a <TIM_DeInit+0xf6>
    RCC_APB2PeriphResetCmd(RCC_APB2Periph_TIM9, ENABLE);
20005144:	2101      	movs	r1, #1
20005146:	f44f 3080 	mov.w	r0, #65536	@ 0x10000
2000514a:	f7ff fd85 	bl	20004c58 <RCC_APB2PeriphResetCmd>
    RCC_APB2PeriphResetCmd(RCC_APB2Periph_TIM9, DISABLE);  
2000514e:	2100      	movs	r1, #0
20005150:	f44f 3080 	mov.w	r0, #65536	@ 0x10000
20005154:	f7ff fd80 	bl	20004c58 <RCC_APB2PeriphResetCmd>
}
20005158:	e045      	b.n	200051e6 <TIM_DeInit+0x182>
  else if (TIMx == TIM10)
2000515a:	687b      	ldr	r3, [r7, #4]
2000515c:	4a2c      	ldr	r2, [pc, #176]	@ (20005210 <TIM_DeInit+0x1ac>)
2000515e:	4293      	cmp	r3, r2
20005160:	d10a      	bne.n	20005178 <TIM_DeInit+0x114>
    RCC_APB2PeriphResetCmd(RCC_APB2Periph_TIM10, ENABLE);
20005162:	2101      	movs	r1, #1
20005164:	f44f 3000 	mov.w	r0, #131072	@ 0x20000
20005168:	f7ff fd76 	bl	20004c58 <RCC_APB2PeriphResetCmd>
    RCC_APB2PeriphResetCmd(RCC_APB2Periph_TIM10, DISABLE);  
2000516c:	2100      	movs	r1, #0
2000516e:	f44f 3000 	mov.w	r0, #131072	@ 0x20000
20005172:	f7ff fd71 	bl	20004c58 <RCC_APB2PeriphResetCmd>
}
20005176:	e036      	b.n	200051e6 <TIM_DeInit+0x182>
  else if (TIMx == TIM11) 
20005178:	687b      	ldr	r3, [r7, #4]
2000517a:	4a26      	ldr	r2, [pc, #152]	@ (20005214 <TIM_DeInit+0x1b0>)
2000517c:	4293      	cmp	r3, r2
2000517e:	d10a      	bne.n	20005196 <TIM_DeInit+0x132>
    RCC_APB2PeriphResetCmd(RCC_APB2Periph_TIM11, ENABLE);
20005180:	2101      	movs	r1, #1
20005182:	f44f 2080 	mov.w	r0, #262144	@ 0x40000
20005186:	f7ff fd67 	bl	20004c58 <RCC_APB2PeriphResetCmd>
    RCC_APB2PeriphResetCmd(RCC_APB2Periph_TIM11, DISABLE);  
2000518a:	2100      	movs	r1, #0
2000518c:	f44f 2080 	mov.w	r0, #262144	@ 0x40000
20005190:	f7ff fd62 	bl	20004c58 <RCC_APB2PeriphResetCmd>
}
20005194:	e027      	b.n	200051e6 <TIM_DeInit+0x182>
  else if (TIMx == TIM12)
20005196:	687b      	ldr	r3, [r7, #4]
20005198:	4a1f      	ldr	r2, [pc, #124]	@ (20005218 <TIM_DeInit+0x1b4>)
2000519a:	4293      	cmp	r3, r2
2000519c:	d108      	bne.n	200051b0 <TIM_DeInit+0x14c>
    RCC_APB1PeriphResetCmd(RCC_APB1Periph_TIM12, ENABLE);
2000519e:	2101      	movs	r1, #1
200051a0:	2040      	movs	r0, #64	@ 0x40
200051a2:	f7ff fd39 	bl	20004c18 <RCC_APB1PeriphResetCmd>
    RCC_APB1PeriphResetCmd(RCC_APB1Periph_TIM12, DISABLE);  
200051a6:	2100      	movs	r1, #0
200051a8:	2040      	movs	r0, #64	@ 0x40
200051aa:	f7ff fd35 	bl	20004c18 <RCC_APB1PeriphResetCmd>
}
200051ae:	e01a      	b.n	200051e6 <TIM_DeInit+0x182>
  else if (TIMx == TIM13) 
200051b0:	687b      	ldr	r3, [r7, #4]
200051b2:	4a1a      	ldr	r2, [pc, #104]	@ (2000521c <TIM_DeInit+0x1b8>)
200051b4:	4293      	cmp	r3, r2
200051b6:	d108      	bne.n	200051ca <TIM_DeInit+0x166>
    RCC_APB1PeriphResetCmd(RCC_APB1Periph_TIM13, ENABLE);
200051b8:	2101      	movs	r1, #1
200051ba:	2080      	movs	r0, #128	@ 0x80
200051bc:	f7ff fd2c 	bl	20004c18 <RCC_APB1PeriphResetCmd>
    RCC_APB1PeriphResetCmd(RCC_APB1Periph_TIM13, DISABLE);  
200051c0:	2100      	movs	r1, #0
200051c2:	2080      	movs	r0, #128	@ 0x80
200051c4:	f7ff fd28 	bl	20004c18 <RCC_APB1PeriphResetCmd>
}
200051c8:	e00d      	b.n	200051e6 <TIM_DeInit+0x182>
    if (TIMx == TIM14) 
200051ca:	687b      	ldr	r3, [r7, #4]
200051cc:	4a14      	ldr	r2, [pc, #80]	@ (20005220 <TIM_DeInit+0x1bc>)
200051ce:	4293      	cmp	r3, r2
200051d0:	d109      	bne.n	200051e6 <TIM_DeInit+0x182>
      RCC_APB1PeriphResetCmd(RCC_APB1Periph_TIM14, ENABLE);
200051d2:	2101      	movs	r1, #1
200051d4:	f44f 7080 	mov.w	r0, #256	@ 0x100
200051d8:	f7ff fd1e 	bl	20004c18 <RCC_APB1PeriphResetCmd>
      RCC_APB1PeriphResetCmd(RCC_APB1Periph_TIM14, DISABLE); 
200051dc:	2100      	movs	r1, #0
200051de:	f44f 7080 	mov.w	r0, #256	@ 0x100
200051e2:	f7ff fd19 	bl	20004c18 <RCC_APB1PeriphResetCmd>
}
200051e6:	bf00      	nop
200051e8:	3708      	adds	r7, #8
200051ea:	46bd      	mov	sp, r7
200051ec:	bd80      	pop	{r7, pc}
200051ee:	bf00      	nop
200051f0:	40010000 	.word	0x40010000
200051f4:	40000400 	.word	0x40000400
200051f8:	40000800 	.word	0x40000800
200051fc:	40000c00 	.word	0x40000c00
20005200:	40001000 	.word	0x40001000
20005204:	40001400 	.word	0x40001400
20005208:	40010400 	.word	0x40010400
2000520c:	40014000 	.word	0x40014000
20005210:	40014400 	.word	0x40014400
20005214:	40014800 	.word	0x40014800
20005218:	40001800 	.word	0x40001800
2000521c:	40001c00 	.word	0x40001c00
20005220:	40002000 	.word	0x40002000

20005224 <TIM_TimeBaseInit>:
  * @param  TIM_TimeBaseInitStruct: pointer to a TIM_TimeBaseInitTypeDef structure
  *         that contains the configuration information for the specified TIM peripheral.
  * @retval None
  */
void TIM_TimeBaseInit(TIM_TypeDef* TIMx, TIM_TimeBaseInitTypeDef* TIM_TimeBaseInitStruct)
{
20005224:	b480      	push	{r7}
20005226:	b085      	sub	sp, #20
20005228:	af00      	add	r7, sp, #0
2000522a:	6078      	str	r0, [r7, #4]
2000522c:	6039      	str	r1, [r7, #0]
  uint16_t tmpcr1 = 0;
2000522e:	2300      	movs	r3, #0
20005230:	81fb      	strh	r3, [r7, #14]
  /* Check the parameters */
  assert_param(IS_TIM_ALL_PERIPH(TIMx)); 
  assert_param(IS_TIM_COUNTER_MODE(TIM_TimeBaseInitStruct->TIM_CounterMode));
  assert_param(IS_TIM_CKD_DIV(TIM_TimeBaseInitStruct->TIM_ClockDivision));

  tmpcr1 = TIMx->CR1;  
20005232:	687b      	ldr	r3, [r7, #4]
20005234:	881b      	ldrh	r3, [r3, #0]
20005236:	81fb      	strh	r3, [r7, #14]

  if((TIMx == TIM1) || (TIMx == TIM8)||
20005238:	687b      	ldr	r3, [r7, #4]
2000523a:	4a29      	ldr	r2, [pc, #164]	@ (200052e0 <TIM_TimeBaseInit+0xbc>)
2000523c:	4293      	cmp	r3, r2
2000523e:	d013      	beq.n	20005268 <TIM_TimeBaseInit+0x44>
20005240:	687b      	ldr	r3, [r7, #4]
20005242:	4a28      	ldr	r2, [pc, #160]	@ (200052e4 <TIM_TimeBaseInit+0xc0>)
20005244:	4293      	cmp	r3, r2
20005246:	d00f      	beq.n	20005268 <TIM_TimeBaseInit+0x44>
20005248:	687b      	ldr	r3, [r7, #4]
2000524a:	f1b3 4f80 	cmp.w	r3, #1073741824	@ 0x40000000
2000524e:	d00b      	beq.n	20005268 <TIM_TimeBaseInit+0x44>
     (TIMx == TIM2) || (TIMx == TIM3)||
20005250:	687b      	ldr	r3, [r7, #4]
20005252:	4a25      	ldr	r2, [pc, #148]	@ (200052e8 <TIM_TimeBaseInit+0xc4>)
20005254:	4293      	cmp	r3, r2
20005256:	d007      	beq.n	20005268 <TIM_TimeBaseInit+0x44>
20005258:	687b      	ldr	r3, [r7, #4]
2000525a:	4a24      	ldr	r2, [pc, #144]	@ (200052ec <TIM_TimeBaseInit+0xc8>)
2000525c:	4293      	cmp	r3, r2
2000525e:	d003      	beq.n	20005268 <TIM_TimeBaseInit+0x44>
     (TIMx == TIM4) || (TIMx == TIM5)) 
20005260:	687b      	ldr	r3, [r7, #4]
20005262:	4a23      	ldr	r2, [pc, #140]	@ (200052f0 <TIM_TimeBaseInit+0xcc>)
20005264:	4293      	cmp	r3, r2
20005266:	d108      	bne.n	2000527a <TIM_TimeBaseInit+0x56>
  {
    /* Select the Counter Mode */
    tmpcr1 &= (uint16_t)(~(TIM_CR1_DIR | TIM_CR1_CMS));
20005268:	89fb      	ldrh	r3, [r7, #14]
2000526a:	f023 0370 	bic.w	r3, r3, #112	@ 0x70
2000526e:	81fb      	strh	r3, [r7, #14]
    tmpcr1 |= (uint32_t)TIM_TimeBaseInitStruct->TIM_CounterMode;
20005270:	683b      	ldr	r3, [r7, #0]
20005272:	885a      	ldrh	r2, [r3, #2]
20005274:	89fb      	ldrh	r3, [r7, #14]
20005276:	4313      	orrs	r3, r2
20005278:	81fb      	strh	r3, [r7, #14]
  }
 
  if((TIMx != TIM6) && (TIMx != TIM7))
2000527a:	687b      	ldr	r3, [r7, #4]
2000527c:	4a1d      	ldr	r2, [pc, #116]	@ (200052f4 <TIM_TimeBaseInit+0xd0>)
2000527e:	4293      	cmp	r3, r2
20005280:	d00c      	beq.n	2000529c <TIM_TimeBaseInit+0x78>
20005282:	687b      	ldr	r3, [r7, #4]
20005284:	4a1c      	ldr	r2, [pc, #112]	@ (200052f8 <TIM_TimeBaseInit+0xd4>)
20005286:	4293      	cmp	r3, r2
20005288:	d008      	beq.n	2000529c <TIM_TimeBaseInit+0x78>
  {
    /* Set the clock division */
    tmpcr1 &=  (uint16_t)(~TIM_CR1_CKD);
2000528a:	89fb      	ldrh	r3, [r7, #14]
2000528c:	f423 7340 	bic.w	r3, r3, #768	@ 0x300
20005290:	81fb      	strh	r3, [r7, #14]
    tmpcr1 |= (uint32_t)TIM_TimeBaseInitStruct->TIM_ClockDivision;
20005292:	683b      	ldr	r3, [r7, #0]
20005294:	891a      	ldrh	r2, [r3, #8]
20005296:	89fb      	ldrh	r3, [r7, #14]
20005298:	4313      	orrs	r3, r2
2000529a:	81fb      	strh	r3, [r7, #14]
  }

  TIMx->CR1 = tmpcr1;
2000529c:	687b      	ldr	r3, [r7, #4]
2000529e:	89fa      	ldrh	r2, [r7, #14]
200052a0:	801a      	strh	r2, [r3, #0]

  /* Set the Autoreload value */
  TIMx->ARR = TIM_TimeBaseInitStruct->TIM_Period ;
200052a2:	683b      	ldr	r3, [r7, #0]
200052a4:	685a      	ldr	r2, [r3, #4]
200052a6:	687b      	ldr	r3, [r7, #4]
200052a8:	62da      	str	r2, [r3, #44]	@ 0x2c
 
  /* Set the Prescaler value */
  TIMx->PSC = TIM_TimeBaseInitStruct->TIM_Prescaler;
200052aa:	683b      	ldr	r3, [r7, #0]
200052ac:	881a      	ldrh	r2, [r3, #0]
200052ae:	687b      	ldr	r3, [r7, #4]
200052b0:	851a      	strh	r2, [r3, #40]	@ 0x28
    
  if ((TIMx == TIM1) || (TIMx == TIM8))  
200052b2:	687b      	ldr	r3, [r7, #4]
200052b4:	4a0a      	ldr	r2, [pc, #40]	@ (200052e0 <TIM_TimeBaseInit+0xbc>)
200052b6:	4293      	cmp	r3, r2
200052b8:	d003      	beq.n	200052c2 <TIM_TimeBaseInit+0x9e>
200052ba:	687b      	ldr	r3, [r7, #4]
200052bc:	4a09      	ldr	r2, [pc, #36]	@ (200052e4 <TIM_TimeBaseInit+0xc0>)
200052be:	4293      	cmp	r3, r2
200052c0:	d104      	bne.n	200052cc <TIM_TimeBaseInit+0xa8>
  {
    /* Set the Repetition Counter value */
    TIMx->RCR = TIM_TimeBaseInitStruct->TIM_RepetitionCounter;
200052c2:	683b      	ldr	r3, [r7, #0]
200052c4:	7a9b      	ldrb	r3, [r3, #10]
200052c6:	461a      	mov	r2, r3
200052c8:	687b      	ldr	r3, [r7, #4]
200052ca:	861a      	strh	r2, [r3, #48]	@ 0x30
  }

  /* Generate an update event to reload the Prescaler 
     and the repetition counter(only for TIM1 and TIM8) value immediatly */
  TIMx->EGR = TIM_PSCReloadMode_Immediate;          
200052cc:	687b      	ldr	r3, [r7, #4]
200052ce:	2201      	movs	r2, #1
200052d0:	829a      	strh	r2, [r3, #20]
}
200052d2:	bf00      	nop
200052d4:	3714      	adds	r7, #20
200052d6:	46bd      	mov	sp, r7
200052d8:	f85d 7b04 	ldr.w	r7, [sp], #4
200052dc:	4770      	bx	lr
200052de:	bf00      	nop
200052e0:	40010000 	.word	0x40010000
200052e4:	40010400 	.word	0x40010400
200052e8:	40000400 	.word	0x40000400
200052ec:	40000800 	.word	0x40000800
200052f0:	40000c00 	.word	0x40000c00
200052f4:	40001000 	.word	0x40001000
200052f8:	40001400 	.word	0x40001400

200052fc <TIM_TimeBaseStructInit>:
  * @param  TIM_TimeBaseInitStruct : pointer to a TIM_TimeBaseInitTypeDef
  *         structure which will be initialized.
  * @retval None
  */
void TIM_TimeBaseStructInit(TIM_TimeBaseInitTypeDef* TIM_TimeBaseInitStruct)
{
200052fc:	b480      	push	{r7}
200052fe:	b083      	sub	sp, #12
20005300:	af00      	add	r7, sp, #0
20005302:	6078      	str	r0, [r7, #4]
  /* Set the default configuration */
  TIM_TimeBaseInitStruct->TIM_Period = 0xFFFFFFFF;
20005304:	687b      	ldr	r3, [r7, #4]
20005306:	f04f 32ff 	mov.w	r2, #4294967295
2000530a:	605a      	str	r2, [r3, #4]
  TIM_TimeBaseInitStruct->TIM_Prescaler = 0x0000;
2000530c:	687b      	ldr	r3, [r7, #4]
2000530e:	2200      	movs	r2, #0
20005310:	801a      	strh	r2, [r3, #0]
  TIM_TimeBaseInitStruct->TIM_ClockDivision = TIM_CKD_DIV1;
20005312:	687b      	ldr	r3, [r7, #4]
20005314:	2200      	movs	r2, #0
20005316:	811a      	strh	r2, [r3, #8]
  TIM_TimeBaseInitStruct->TIM_CounterMode = TIM_CounterMode_Up;
20005318:	687b      	ldr	r3, [r7, #4]
2000531a:	2200      	movs	r2, #0
2000531c:	805a      	strh	r2, [r3, #2]
  TIM_TimeBaseInitStruct->TIM_RepetitionCounter = 0x0000;
2000531e:	687b      	ldr	r3, [r7, #4]
20005320:	2200      	movs	r2, #0
20005322:	729a      	strb	r2, [r3, #10]
}
20005324:	bf00      	nop
20005326:	370c      	adds	r7, #12
20005328:	46bd      	mov	sp, r7
2000532a:	f85d 7b04 	ldr.w	r7, [sp], #4
2000532e:	4770      	bx	lr

20005330 <TIM_PrescalerConfig>:
  *            @arg TIM_PSCReloadMode_Update: The Prescaler is loaded at the update event.
  *            @arg TIM_PSCReloadMode_Immediate: The Prescaler is loaded immediatly.
  * @retval None
  */
void TIM_PrescalerConfig(TIM_TypeDef* TIMx, uint16_t Prescaler, uint16_t TIM_PSCReloadMode)
{
20005330:	b480      	push	{r7}
20005332:	b083      	sub	sp, #12
20005334:	af00      	add	r7, sp, #0
20005336:	6078      	str	r0, [r7, #4]
20005338:	460b      	mov	r3, r1
2000533a:	807b      	strh	r3, [r7, #2]
2000533c:	4613      	mov	r3, r2
2000533e:	803b      	strh	r3, [r7, #0]
  /* Check the parameters */
  assert_param(IS_TIM_ALL_PERIPH(TIMx));
  assert_param(IS_TIM_PRESCALER_RELOAD(TIM_PSCReloadMode));
  /* Set the Prescaler value */
  TIMx->PSC = Prescaler;
20005340:	687b      	ldr	r3, [r7, #4]
20005342:	887a      	ldrh	r2, [r7, #2]
20005344:	851a      	strh	r2, [r3, #40]	@ 0x28
  /* Set or reset the UG Bit */
  TIMx->EGR = TIM_PSCReloadMode;
20005346:	687b      	ldr	r3, [r7, #4]
20005348:	883a      	ldrh	r2, [r7, #0]
2000534a:	829a      	strh	r2, [r3, #20]
}
2000534c:	bf00      	nop
2000534e:	370c      	adds	r7, #12
20005350:	46bd      	mov	sp, r7
20005352:	f85d 7b04 	ldr.w	r7, [sp], #4
20005356:	4770      	bx	lr

20005358 <TIM_CounterModeConfig>:
  *            @arg TIM_CounterMode_CenterAligned2: TIM Center Aligned Mode2
  *            @arg TIM_CounterMode_CenterAligned3: TIM Center Aligned Mode3
  * @retval None
  */
void TIM_CounterModeConfig(TIM_TypeDef* TIMx, uint16_t TIM_CounterMode)
{
20005358:	b480      	push	{r7}
2000535a:	b085      	sub	sp, #20
2000535c:	af00      	add	r7, sp, #0
2000535e:	6078      	str	r0, [r7, #4]
20005360:	460b      	mov	r3, r1
20005362:	807b      	strh	r3, [r7, #2]
  uint16_t tmpcr1 = 0;
20005364:	2300      	movs	r3, #0
20005366:	81fb      	strh	r3, [r7, #14]

  /* Check the parameters */
  assert_param(IS_TIM_LIST3_PERIPH(TIMx));
  assert_param(IS_TIM_COUNTER_MODE(TIM_CounterMode));

  tmpcr1 = TIMx->CR1;
20005368:	687b      	ldr	r3, [r7, #4]
2000536a:	881b      	ldrh	r3, [r3, #0]
2000536c:	81fb      	strh	r3, [r7, #14]

  /* Reset the CMS and DIR Bits */
  tmpcr1 &= (uint16_t)~(TIM_CR1_DIR | TIM_CR1_CMS);
2000536e:	89fb      	ldrh	r3, [r7, #14]
20005370:	f023 0370 	bic.w	r3, r3, #112	@ 0x70
20005374:	81fb      	strh	r3, [r7, #14]

  /* Set the Counter Mode */
  tmpcr1 |= TIM_CounterMode;
20005376:	89fa      	ldrh	r2, [r7, #14]
20005378:	887b      	ldrh	r3, [r7, #2]
2000537a:	4313      	orrs	r3, r2
2000537c:	81fb      	strh	r3, [r7, #14]

  /* Write to TIMx CR1 register */
  TIMx->CR1 = tmpcr1;
2000537e:	687b      	ldr	r3, [r7, #4]
20005380:	89fa      	ldrh	r2, [r7, #14]
20005382:	801a      	strh	r2, [r3, #0]
}
20005384:	bf00      	nop
20005386:	3714      	adds	r7, #20
20005388:	46bd      	mov	sp, r7
2000538a:	f85d 7b04 	ldr.w	r7, [sp], #4
2000538e:	4770      	bx	lr

20005390 <TIM_SetCounter>:
  * @param  TIMx: where x can be 1 to 14 to select the TIM peripheral.
  * @param  Counter: specifies the Counter register new value.
  * @retval None
  */
void TIM_SetCounter(TIM_TypeDef* TIMx, uint32_t Counter)
{
20005390:	b480      	push	{r7}
20005392:	b083      	sub	sp, #12
20005394:	af00      	add	r7, sp, #0
20005396:	6078      	str	r0, [r7, #4]
20005398:	6039      	str	r1, [r7, #0]
  /* Check the parameters */
   assert_param(IS_TIM_ALL_PERIPH(TIMx));

  /* Set the Counter Register value */
  TIMx->CNT = Counter;
2000539a:	687b      	ldr	r3, [r7, #4]
2000539c:	683a      	ldr	r2, [r7, #0]
2000539e:	625a      	str	r2, [r3, #36]	@ 0x24
}
200053a0:	bf00      	nop
200053a2:	370c      	adds	r7, #12
200053a4:	46bd      	mov	sp, r7
200053a6:	f85d 7b04 	ldr.w	r7, [sp], #4
200053aa:	4770      	bx	lr

200053ac <TIM_SetAutoreload>:
  * @param  TIMx: where x can be 1 to 14 to select the TIM peripheral.
  * @param  Autoreload: specifies the Autoreload register new value.
  * @retval None
  */
void TIM_SetAutoreload(TIM_TypeDef* TIMx, uint32_t Autoreload)
{
200053ac:	b480      	push	{r7}
200053ae:	b083      	sub	sp, #12
200053b0:	af00      	add	r7, sp, #0
200053b2:	6078      	str	r0, [r7, #4]
200053b4:	6039      	str	r1, [r7, #0]
  /* Check the parameters */
  assert_param(IS_TIM_ALL_PERIPH(TIMx));
  
  /* Set the Autoreload Register value */
  TIMx->ARR = Autoreload;
200053b6:	687b      	ldr	r3, [r7, #4]
200053b8:	683a      	ldr	r2, [r7, #0]
200053ba:	62da      	str	r2, [r3, #44]	@ 0x2c
}
200053bc:	bf00      	nop
200053be:	370c      	adds	r7, #12
200053c0:	46bd      	mov	sp, r7
200053c2:	f85d 7b04 	ldr.w	r7, [sp], #4
200053c6:	4770      	bx	lr

200053c8 <TIM_GetCounter>:
  * @brief  Gets the TIMx Counter value.
  * @param  TIMx: where x can be 1 to 14 to select the TIM peripheral.
  * @retval Counter Register value
  */
uint32_t TIM_GetCounter(TIM_TypeDef* TIMx)
{
200053c8:	b480      	push	{r7}
200053ca:	b083      	sub	sp, #12
200053cc:	af00      	add	r7, sp, #0
200053ce:	6078      	str	r0, [r7, #4]
  /* Check the parameters */
  assert_param(IS_TIM_ALL_PERIPH(TIMx));

  /* Get the Counter Register value */
  return TIMx->CNT;
200053d0:	687b      	ldr	r3, [r7, #4]
200053d2:	6a5b      	ldr	r3, [r3, #36]	@ 0x24
}
200053d4:	4618      	mov	r0, r3
200053d6:	370c      	adds	r7, #12
200053d8:	46bd      	mov	sp, r7
200053da:	f85d 7b04 	ldr.w	r7, [sp], #4
200053de:	4770      	bx	lr

200053e0 <TIM_GetPrescaler>:
  * @brief  Gets the TIMx Prescaler value.
  * @param  TIMx: where x can be 1 to 14 to select the TIM peripheral.
  * @retval Prescaler Register value.
  */
uint16_t TIM_GetPrescaler(TIM_TypeDef* TIMx)
{
200053e0:	b480      	push	{r7}
200053e2:	b083      	sub	sp, #12
200053e4:	af00      	add	r7, sp, #0
200053e6:	6078      	str	r0, [r7, #4]
  /* Check the parameters */
  assert_param(IS_TIM_ALL_PERIPH(TIMx));

  /* Get the Prescaler Register value */
  return TIMx->PSC;
200053e8:	687b      	ldr	r3, [r7, #4]
200053ea:	8d1b      	ldrh	r3, [r3, #40]	@ 0x28
200053ec:	b29b      	uxth	r3, r3
}
200053ee:	4618      	mov	r0, r3
200053f0:	370c      	adds	r7, #12
200053f2:	46bd      	mov	sp, r7
200053f4:	f85d 7b04 	ldr.w	r7, [sp], #4
200053f8:	4770      	bx	lr

200053fa <TIM_UpdateDisableConfig>:
  * @param  NewState: new state of the TIMx UDIS bit
  *          This parameter can be: ENABLE or DISABLE.
  * @retval None
  */
void TIM_UpdateDisableConfig(TIM_TypeDef* TIMx, FunctionalState NewState)
{
200053fa:	b480      	push	{r7}
200053fc:	b083      	sub	sp, #12
200053fe:	af00      	add	r7, sp, #0
20005400:	6078      	str	r0, [r7, #4]
20005402:	460b      	mov	r3, r1
20005404:	70fb      	strb	r3, [r7, #3]
  /* Check the parameters */
  assert_param(IS_TIM_ALL_PERIPH(TIMx));
  assert_param(IS_FUNCTIONAL_STATE(NewState));

  if (NewState != DISABLE)
20005406:	78fb      	ldrb	r3, [r7, #3]
20005408:	2b00      	cmp	r3, #0
2000540a:	d008      	beq.n	2000541e <TIM_UpdateDisableConfig+0x24>
  {
    /* Set the Update Disable Bit */
    TIMx->CR1 |= TIM_CR1_UDIS;
2000540c:	687b      	ldr	r3, [r7, #4]
2000540e:	881b      	ldrh	r3, [r3, #0]
20005410:	b29b      	uxth	r3, r3
20005412:	f043 0302 	orr.w	r3, r3, #2
20005416:	b29a      	uxth	r2, r3
20005418:	687b      	ldr	r3, [r7, #4]
2000541a:	801a      	strh	r2, [r3, #0]
  else
  {
    /* Reset the Update Disable Bit */
    TIMx->CR1 &= (uint16_t)~TIM_CR1_UDIS;
  }
}
2000541c:	e007      	b.n	2000542e <TIM_UpdateDisableConfig+0x34>
    TIMx->CR1 &= (uint16_t)~TIM_CR1_UDIS;
2000541e:	687b      	ldr	r3, [r7, #4]
20005420:	881b      	ldrh	r3, [r3, #0]
20005422:	b29b      	uxth	r3, r3
20005424:	f023 0302 	bic.w	r3, r3, #2
20005428:	b29a      	uxth	r2, r3
2000542a:	687b      	ldr	r3, [r7, #4]
2000542c:	801a      	strh	r2, [r3, #0]
}
2000542e:	bf00      	nop
20005430:	370c      	adds	r7, #12
20005432:	46bd      	mov	sp, r7
20005434:	f85d 7b04 	ldr.w	r7, [sp], #4
20005438:	4770      	bx	lr

2000543a <TIM_UpdateRequestConfig>:
  *                 generation through the slave mode controller.
  *            @arg TIM_UpdateSource_Regular: Source of update is counter overflow/underflow.
  * @retval None
  */
void TIM_UpdateRequestConfig(TIM_TypeDef* TIMx, uint16_t TIM_UpdateSource)
{
2000543a:	b480      	push	{r7}
2000543c:	b083      	sub	sp, #12
2000543e:	af00      	add	r7, sp, #0
20005440:	6078      	str	r0, [r7, #4]
20005442:	460b      	mov	r3, r1
20005444:	807b      	strh	r3, [r7, #2]
  /* Check the parameters */
  assert_param(IS_TIM_ALL_PERIPH(TIMx));
  assert_param(IS_TIM_UPDATE_SOURCE(TIM_UpdateSource));

  if (TIM_UpdateSource != TIM_UpdateSource_Global)
20005446:	887b      	ldrh	r3, [r7, #2]
20005448:	2b00      	cmp	r3, #0
2000544a:	d008      	beq.n	2000545e <TIM_UpdateRequestConfig+0x24>
  {
    /* Set the URS Bit */
    TIMx->CR1 |= TIM_CR1_URS;
2000544c:	687b      	ldr	r3, [r7, #4]
2000544e:	881b      	ldrh	r3, [r3, #0]
20005450:	b29b      	uxth	r3, r3
20005452:	f043 0304 	orr.w	r3, r3, #4
20005456:	b29a      	uxth	r2, r3
20005458:	687b      	ldr	r3, [r7, #4]
2000545a:	801a      	strh	r2, [r3, #0]
  else
  {
    /* Reset the URS Bit */
    TIMx->CR1 &= (uint16_t)~TIM_CR1_URS;
  }
}
2000545c:	e007      	b.n	2000546e <TIM_UpdateRequestConfig+0x34>
    TIMx->CR1 &= (uint16_t)~TIM_CR1_URS;
2000545e:	687b      	ldr	r3, [r7, #4]
20005460:	881b      	ldrh	r3, [r3, #0]
20005462:	b29b      	uxth	r3, r3
20005464:	f023 0304 	bic.w	r3, r3, #4
20005468:	b29a      	uxth	r2, r3
2000546a:	687b      	ldr	r3, [r7, #4]
2000546c:	801a      	strh	r2, [r3, #0]
}
2000546e:	bf00      	nop
20005470:	370c      	adds	r7, #12
20005472:	46bd      	mov	sp, r7
20005474:	f85d 7b04 	ldr.w	r7, [sp], #4
20005478:	4770      	bx	lr

2000547a <TIM_ARRPreloadConfig>:
  * @param  NewState: new state of the TIMx peripheral Preload register
  *          This parameter can be: ENABLE or DISABLE.
  * @retval None
  */
void TIM_ARRPreloadConfig(TIM_TypeDef* TIMx, FunctionalState NewState)
{
2000547a:	b480      	push	{r7}
2000547c:	b083      	sub	sp, #12
2000547e:	af00      	add	r7, sp, #0
20005480:	6078      	str	r0, [r7, #4]
20005482:	460b      	mov	r3, r1
20005484:	70fb      	strb	r3, [r7, #3]
  /* Check the parameters */
  assert_param(IS_TIM_ALL_PERIPH(TIMx));
  assert_param(IS_FUNCTIONAL_STATE(NewState));

  if (NewState != DISABLE)
20005486:	78fb      	ldrb	r3, [r7, #3]
20005488:	2b00      	cmp	r3, #0
2000548a:	d008      	beq.n	2000549e <TIM_ARRPreloadConfig+0x24>
  {
    /* Set the ARR Preload Bit */
    TIMx->CR1 |= TIM_CR1_ARPE;
2000548c:	687b      	ldr	r3, [r7, #4]
2000548e:	881b      	ldrh	r3, [r3, #0]
20005490:	b29b      	uxth	r3, r3
20005492:	f043 0380 	orr.w	r3, r3, #128	@ 0x80
20005496:	b29a      	uxth	r2, r3
20005498:	687b      	ldr	r3, [r7, #4]
2000549a:	801a      	strh	r2, [r3, #0]
  else
  {
    /* Reset the ARR Preload Bit */
    TIMx->CR1 &= (uint16_t)~TIM_CR1_ARPE;
  }
}
2000549c:	e007      	b.n	200054ae <TIM_ARRPreloadConfig+0x34>
    TIMx->CR1 &= (uint16_t)~TIM_CR1_ARPE;
2000549e:	687b      	ldr	r3, [r7, #4]
200054a0:	881b      	ldrh	r3, [r3, #0]
200054a2:	b29b      	uxth	r3, r3
200054a4:	f023 0380 	bic.w	r3, r3, #128	@ 0x80
200054a8:	b29a      	uxth	r2, r3
200054aa:	687b      	ldr	r3, [r7, #4]
200054ac:	801a      	strh	r2, [r3, #0]
}
200054ae:	bf00      	nop
200054b0:	370c      	adds	r7, #12
200054b2:	46bd      	mov	sp, r7
200054b4:	f85d 7b04 	ldr.w	r7, [sp], #4
200054b8:	4770      	bx	lr

200054ba <TIM_SelectOnePulseMode>:
  *            @arg TIM_OPMode_Single
  *            @arg TIM_OPMode_Repetitive
  * @retval None
  */
void TIM_SelectOnePulseMode(TIM_TypeDef* TIMx, uint16_t TIM_OPMode)
{
200054ba:	b480      	push	{r7}
200054bc:	b083      	sub	sp, #12
200054be:	af00      	add	r7, sp, #0
200054c0:	6078      	str	r0, [r7, #4]
200054c2:	460b      	mov	r3, r1
200054c4:	807b      	strh	r3, [r7, #2]
  /* Check the parameters */
  assert_param(IS_TIM_ALL_PERIPH(TIMx));
  assert_param(IS_TIM_OPM_MODE(TIM_OPMode));

  /* Reset the OPM Bit */
  TIMx->CR1 &= (uint16_t)~TIM_CR1_OPM;
200054c6:	687b      	ldr	r3, [r7, #4]
200054c8:	881b      	ldrh	r3, [r3, #0]
200054ca:	b29b      	uxth	r3, r3
200054cc:	f023 0308 	bic.w	r3, r3, #8
200054d0:	b29a      	uxth	r2, r3
200054d2:	687b      	ldr	r3, [r7, #4]
200054d4:	801a      	strh	r2, [r3, #0]

  /* Configure the OPM Mode */
  TIMx->CR1 |= TIM_OPMode;
200054d6:	687b      	ldr	r3, [r7, #4]
200054d8:	881b      	ldrh	r3, [r3, #0]
200054da:	b29a      	uxth	r2, r3
200054dc:	887b      	ldrh	r3, [r7, #2]
200054de:	4313      	orrs	r3, r2
200054e0:	b29a      	uxth	r2, r3
200054e2:	687b      	ldr	r3, [r7, #4]
200054e4:	801a      	strh	r2, [r3, #0]
}
200054e6:	bf00      	nop
200054e8:	370c      	adds	r7, #12
200054ea:	46bd      	mov	sp, r7
200054ec:	f85d 7b04 	ldr.w	r7, [sp], #4
200054f0:	4770      	bx	lr

200054f2 <TIM_SetClockDivision>:
  *            @arg TIM_CKD_DIV2: TDTS = 2*Tck_tim
  *            @arg TIM_CKD_DIV4: TDTS = 4*Tck_tim
  * @retval None
  */
void TIM_SetClockDivision(TIM_TypeDef* TIMx, uint16_t TIM_CKD)
{
200054f2:	b480      	push	{r7}
200054f4:	b083      	sub	sp, #12
200054f6:	af00      	add	r7, sp, #0
200054f8:	6078      	str	r0, [r7, #4]
200054fa:	460b      	mov	r3, r1
200054fc:	807b      	strh	r3, [r7, #2]
  /* Check the parameters */
  assert_param(IS_TIM_LIST1_PERIPH(TIMx));
  assert_param(IS_TIM_CKD_DIV(TIM_CKD));

  /* Reset the CKD Bits */
  TIMx->CR1 &= (uint16_t)(~TIM_CR1_CKD);
200054fe:	687b      	ldr	r3, [r7, #4]
20005500:	881b      	ldrh	r3, [r3, #0]
20005502:	b29b      	uxth	r3, r3
20005504:	f423 7340 	bic.w	r3, r3, #768	@ 0x300
20005508:	b29a      	uxth	r2, r3
2000550a:	687b      	ldr	r3, [r7, #4]
2000550c:	801a      	strh	r2, [r3, #0]

  /* Set the CKD value */
  TIMx->CR1 |= TIM_CKD;
2000550e:	687b      	ldr	r3, [r7, #4]
20005510:	881b      	ldrh	r3, [r3, #0]
20005512:	b29a      	uxth	r2, r3
20005514:	887b      	ldrh	r3, [r7, #2]
20005516:	4313      	orrs	r3, r2
20005518:	b29a      	uxth	r2, r3
2000551a:	687b      	ldr	r3, [r7, #4]
2000551c:	801a      	strh	r2, [r3, #0]
}
2000551e:	bf00      	nop
20005520:	370c      	adds	r7, #12
20005522:	46bd      	mov	sp, r7
20005524:	f85d 7b04 	ldr.w	r7, [sp], #4
20005528:	4770      	bx	lr

2000552a <TIM_Cmd>:
  * @param  NewState: new state of the TIMx peripheral.
  *          This parameter can be: ENABLE or DISABLE.
  * @retval None
  */
void TIM_Cmd(TIM_TypeDef* TIMx, FunctionalState NewState)
{
2000552a:	b480      	push	{r7}
2000552c:	b083      	sub	sp, #12
2000552e:	af00      	add	r7, sp, #0
20005530:	6078      	str	r0, [r7, #4]
20005532:	460b      	mov	r3, r1
20005534:	70fb      	strb	r3, [r7, #3]
  /* Check the parameters */
  assert_param(IS_TIM_ALL_PERIPH(TIMx)); 
  assert_param(IS_FUNCTIONAL_STATE(NewState));
  
  if (NewState != DISABLE)
20005536:	78fb      	ldrb	r3, [r7, #3]
20005538:	2b00      	cmp	r3, #0
2000553a:	d008      	beq.n	2000554e <TIM_Cmd+0x24>
  {
    /* Enable the TIM Counter */
    TIMx->CR1 |= TIM_CR1_CEN;
2000553c:	687b      	ldr	r3, [r7, #4]
2000553e:	881b      	ldrh	r3, [r3, #0]
20005540:	b29b      	uxth	r3, r3
20005542:	f043 0301 	orr.w	r3, r3, #1
20005546:	b29a      	uxth	r2, r3
20005548:	687b      	ldr	r3, [r7, #4]
2000554a:	801a      	strh	r2, [r3, #0]
  else
  {
    /* Disable the TIM Counter */
    TIMx->CR1 &= (uint16_t)~TIM_CR1_CEN;
  }
}
2000554c:	e007      	b.n	2000555e <TIM_Cmd+0x34>
    TIMx->CR1 &= (uint16_t)~TIM_CR1_CEN;
2000554e:	687b      	ldr	r3, [r7, #4]
20005550:	881b      	ldrh	r3, [r3, #0]
20005552:	b29b      	uxth	r3, r3
20005554:	f023 0301 	bic.w	r3, r3, #1
20005558:	b29a      	uxth	r2, r3
2000555a:	687b      	ldr	r3, [r7, #4]
2000555c:	801a      	strh	r2, [r3, #0]
}
2000555e:	bf00      	nop
20005560:	370c      	adds	r7, #12
20005562:	46bd      	mov	sp, r7
20005564:	f85d 7b04 	ldr.w	r7, [sp], #4
20005568:	4770      	bx	lr

2000556a <TIM_OC1Init>:
  * @param  TIM_OCInitStruct: pointer to a TIM_OCInitTypeDef structure that contains
  *         the configuration information for the specified TIM peripheral.
  * @retval None
  */
void TIM_OC1Init(TIM_TypeDef* TIMx, TIM_OCInitTypeDef* TIM_OCInitStruct)
{
2000556a:	b480      	push	{r7}
2000556c:	b085      	sub	sp, #20
2000556e:	af00      	add	r7, sp, #0
20005570:	6078      	str	r0, [r7, #4]
20005572:	6039      	str	r1, [r7, #0]
  uint16_t tmpccmrx = 0, tmpccer = 0, tmpcr2 = 0;
20005574:	2300      	movs	r3, #0
20005576:	817b      	strh	r3, [r7, #10]
20005578:	2300      	movs	r3, #0
2000557a:	81fb      	strh	r3, [r7, #14]
2000557c:	2300      	movs	r3, #0
2000557e:	81bb      	strh	r3, [r7, #12]
  assert_param(IS_TIM_OC_MODE(TIM_OCInitStruct->TIM_OCMode));
  assert_param(IS_TIM_OUTPUT_STATE(TIM_OCInitStruct->TIM_OutputState));
  assert_param(IS_TIM_OC_POLARITY(TIM_OCInitStruct->TIM_OCPolarity));   

  /* Disable the Channel 1: Reset the CC1E Bit */
  TIMx->CCER &= (uint16_t)~TIM_CCER_CC1E;
20005580:	687b      	ldr	r3, [r7, #4]
20005582:	8c1b      	ldrh	r3, [r3, #32]
20005584:	b29b      	uxth	r3, r3
20005586:	f023 0301 	bic.w	r3, r3, #1
2000558a:	b29a      	uxth	r2, r3
2000558c:	687b      	ldr	r3, [r7, #4]
2000558e:	841a      	strh	r2, [r3, #32]
  
  /* Get the TIMx CCER register value */
  tmpccer = TIMx->CCER;
20005590:	687b      	ldr	r3, [r7, #4]
20005592:	8c1b      	ldrh	r3, [r3, #32]
20005594:	81fb      	strh	r3, [r7, #14]
  /* Get the TIMx CR2 register value */
  tmpcr2 =  TIMx->CR2;
20005596:	687b      	ldr	r3, [r7, #4]
20005598:	889b      	ldrh	r3, [r3, #4]
2000559a:	81bb      	strh	r3, [r7, #12]
  
  /* Get the TIMx CCMR1 register value */
  tmpccmrx = TIMx->CCMR1;
2000559c:	687b      	ldr	r3, [r7, #4]
2000559e:	8b1b      	ldrh	r3, [r3, #24]
200055a0:	817b      	strh	r3, [r7, #10]
    
  /* Reset the Output Compare Mode Bits */
  tmpccmrx &= (uint16_t)~TIM_CCMR1_OC1M;
200055a2:	897b      	ldrh	r3, [r7, #10]
200055a4:	f023 0370 	bic.w	r3, r3, #112	@ 0x70
200055a8:	817b      	strh	r3, [r7, #10]
  tmpccmrx &= (uint16_t)~TIM_CCMR1_CC1S;
200055aa:	897b      	ldrh	r3, [r7, #10]
200055ac:	f023 0303 	bic.w	r3, r3, #3
200055b0:	817b      	strh	r3, [r7, #10]
  /* Select the Output Compare Mode */
  tmpccmrx |= TIM_OCInitStruct->TIM_OCMode;
200055b2:	683b      	ldr	r3, [r7, #0]
200055b4:	881a      	ldrh	r2, [r3, #0]
200055b6:	897b      	ldrh	r3, [r7, #10]
200055b8:	4313      	orrs	r3, r2
200055ba:	817b      	strh	r3, [r7, #10]
  
  /* Reset the Output Polarity level */
  tmpccer &= (uint16_t)~TIM_CCER_CC1P;
200055bc:	89fb      	ldrh	r3, [r7, #14]
200055be:	f023 0302 	bic.w	r3, r3, #2
200055c2:	81fb      	strh	r3, [r7, #14]
  /* Set the Output Compare Polarity */
  tmpccer |= TIM_OCInitStruct->TIM_OCPolarity;
200055c4:	683b      	ldr	r3, [r7, #0]
200055c6:	899a      	ldrh	r2, [r3, #12]
200055c8:	89fb      	ldrh	r3, [r7, #14]
200055ca:	4313      	orrs	r3, r2
200055cc:	81fb      	strh	r3, [r7, #14]
  
  /* Set the Output State */
  tmpccer |= TIM_OCInitStruct->TIM_OutputState;
200055ce:	683b      	ldr	r3, [r7, #0]
200055d0:	885a      	ldrh	r2, [r3, #2]
200055d2:	89fb      	ldrh	r3, [r7, #14]
200055d4:	4313      	orrs	r3, r2
200055d6:	81fb      	strh	r3, [r7, #14]
    
  if((TIMx == TIM1) || (TIMx == TIM8))
200055d8:	687b      	ldr	r3, [r7, #4]
200055da:	4a1f      	ldr	r2, [pc, #124]	@ (20005658 <TIM_OC1Init+0xee>)
200055dc:	4293      	cmp	r3, r2
200055de:	d003      	beq.n	200055e8 <TIM_OC1Init+0x7e>
200055e0:	687b      	ldr	r3, [r7, #4]
200055e2:	4a1e      	ldr	r2, [pc, #120]	@ (2000565c <TIM_OC1Init+0xf2>)
200055e4:	4293      	cmp	r3, r2
200055e6:	d123      	bne.n	20005630 <TIM_OC1Init+0xc6>
    assert_param(IS_TIM_OCN_POLARITY(TIM_OCInitStruct->TIM_OCNPolarity));
    assert_param(IS_TIM_OCNIDLE_STATE(TIM_OCInitStruct->TIM_OCNIdleState));
    assert_param(IS_TIM_OCIDLE_STATE(TIM_OCInitStruct->TIM_OCIdleState));
    
    /* Reset the Output N Polarity level */
    tmpccer &= (uint16_t)~TIM_CCER_CC1NP;
200055e8:	89fb      	ldrh	r3, [r7, #14]
200055ea:	f023 0308 	bic.w	r3, r3, #8
200055ee:	81fb      	strh	r3, [r7, #14]
    /* Set the Output N Polarity */
    tmpccer |= TIM_OCInitStruct->TIM_OCNPolarity;
200055f0:	683b      	ldr	r3, [r7, #0]
200055f2:	89da      	ldrh	r2, [r3, #14]
200055f4:	89fb      	ldrh	r3, [r7, #14]
200055f6:	4313      	orrs	r3, r2
200055f8:	81fb      	strh	r3, [r7, #14]
    /* Reset the Output N State */
    tmpccer &= (uint16_t)~TIM_CCER_CC1NE;
200055fa:	89fb      	ldrh	r3, [r7, #14]
200055fc:	f023 0304 	bic.w	r3, r3, #4
20005600:	81fb      	strh	r3, [r7, #14]
    
    /* Set the Output N State */
    tmpccer |= TIM_OCInitStruct->TIM_OutputNState;
20005602:	683b      	ldr	r3, [r7, #0]
20005604:	889a      	ldrh	r2, [r3, #4]
20005606:	89fb      	ldrh	r3, [r7, #14]
20005608:	4313      	orrs	r3, r2
2000560a:	81fb      	strh	r3, [r7, #14]
    /* Reset the Output Compare and Output Compare N IDLE State */
    tmpcr2 &= (uint16_t)~TIM_CR2_OIS1;
2000560c:	89bb      	ldrh	r3, [r7, #12]
2000560e:	f423 7380 	bic.w	r3, r3, #256	@ 0x100
20005612:	81bb      	strh	r3, [r7, #12]
    tmpcr2 &= (uint16_t)~TIM_CR2_OIS1N;
20005614:	89bb      	ldrh	r3, [r7, #12]
20005616:	f423 7300 	bic.w	r3, r3, #512	@ 0x200
2000561a:	81bb      	strh	r3, [r7, #12]
    /* Set the Output Idle state */
    tmpcr2 |= TIM_OCInitStruct->TIM_OCIdleState;
2000561c:	683b      	ldr	r3, [r7, #0]
2000561e:	8a1a      	ldrh	r2, [r3, #16]
20005620:	89bb      	ldrh	r3, [r7, #12]
20005622:	4313      	orrs	r3, r2
20005624:	81bb      	strh	r3, [r7, #12]
    /* Set the Output N Idle state */
    tmpcr2 |= TIM_OCInitStruct->TIM_OCNIdleState;
20005626:	683b      	ldr	r3, [r7, #0]
20005628:	8a5a      	ldrh	r2, [r3, #18]
2000562a:	89bb      	ldrh	r3, [r7, #12]
2000562c:	4313      	orrs	r3, r2
2000562e:	81bb      	strh	r3, [r7, #12]
  }
  /* Write to TIMx CR2 */
  TIMx->CR2 = tmpcr2;
20005630:	687b      	ldr	r3, [r7, #4]
20005632:	89ba      	ldrh	r2, [r7, #12]
20005634:	809a      	strh	r2, [r3, #4]
  
  /* Write to TIMx CCMR1 */
  TIMx->CCMR1 = tmpccmrx;
20005636:	687b      	ldr	r3, [r7, #4]
20005638:	897a      	ldrh	r2, [r7, #10]
2000563a:	831a      	strh	r2, [r3, #24]
  
  /* Set the Capture Compare Register value */
  TIMx->CCR1 = TIM_OCInitStruct->TIM_Pulse;
2000563c:	683b      	ldr	r3, [r7, #0]
2000563e:	689a      	ldr	r2, [r3, #8]
20005640:	687b      	ldr	r3, [r7, #4]
20005642:	635a      	str	r2, [r3, #52]	@ 0x34
  
  /* Write to TIMx CCER */
  TIMx->CCER = tmpccer;
20005644:	687b      	ldr	r3, [r7, #4]
20005646:	89fa      	ldrh	r2, [r7, #14]
20005648:	841a      	strh	r2, [r3, #32]
}
2000564a:	bf00      	nop
2000564c:	3714      	adds	r7, #20
2000564e:	46bd      	mov	sp, r7
20005650:	f85d 7b04 	ldr.w	r7, [sp], #4
20005654:	4770      	bx	lr
20005656:	bf00      	nop
20005658:	40010000 	.word	0x40010000
2000565c:	40010400 	.word	0x40010400

20005660 <TIM_OC2Init>:
  * @param  TIM_OCInitStruct: pointer to a TIM_OCInitTypeDef structure that contains
  *         the configuration information for the specified TIM peripheral.
  * @retval None
  */
void TIM_OC2Init(TIM_TypeDef* TIMx, TIM_OCInitTypeDef* TIM_OCInitStruct)
{
20005660:	b480      	push	{r7}
20005662:	b085      	sub	sp, #20
20005664:	af00      	add	r7, sp, #0
20005666:	6078      	str	r0, [r7, #4]
20005668:	6039      	str	r1, [r7, #0]
  uint16_t tmpccmrx = 0, tmpccer = 0, tmpcr2 = 0;
2000566a:	2300      	movs	r3, #0
2000566c:	817b      	strh	r3, [r7, #10]
2000566e:	2300      	movs	r3, #0
20005670:	81fb      	strh	r3, [r7, #14]
20005672:	2300      	movs	r3, #0
20005674:	81bb      	strh	r3, [r7, #12]
  assert_param(IS_TIM_OC_MODE(TIM_OCInitStruct->TIM_OCMode));
  assert_param(IS_TIM_OUTPUT_STATE(TIM_OCInitStruct->TIM_OutputState));
  assert_param(IS_TIM_OC_POLARITY(TIM_OCInitStruct->TIM_OCPolarity));   

  /* Disable the Channel 2: Reset the CC2E Bit */
  TIMx->CCER &= (uint16_t)~TIM_CCER_CC2E;
20005676:	687b      	ldr	r3, [r7, #4]
20005678:	8c1b      	ldrh	r3, [r3, #32]
2000567a:	b29b      	uxth	r3, r3
2000567c:	f023 0310 	bic.w	r3, r3, #16
20005680:	b29a      	uxth	r2, r3
20005682:	687b      	ldr	r3, [r7, #4]
20005684:	841a      	strh	r2, [r3, #32]
  
  /* Get the TIMx CCER register value */  
  tmpccer = TIMx->CCER;
20005686:	687b      	ldr	r3, [r7, #4]
20005688:	8c1b      	ldrh	r3, [r3, #32]
2000568a:	81fb      	strh	r3, [r7, #14]
  /* Get the TIMx CR2 register value */
  tmpcr2 =  TIMx->CR2;
2000568c:	687b      	ldr	r3, [r7, #4]
2000568e:	889b      	ldrh	r3, [r3, #4]
20005690:	81bb      	strh	r3, [r7, #12]
  
  /* Get the TIMx CCMR1 register value */
  tmpccmrx = TIMx->CCMR1;
20005692:	687b      	ldr	r3, [r7, #4]
20005694:	8b1b      	ldrh	r3, [r3, #24]
20005696:	817b      	strh	r3, [r7, #10]
    
  /* Reset the Output Compare mode and Capture/Compare selection Bits */
  tmpccmrx &= (uint16_t)~TIM_CCMR1_OC2M;
20005698:	897b      	ldrh	r3, [r7, #10]
2000569a:	f423 43e0 	bic.w	r3, r3, #28672	@ 0x7000
2000569e:	817b      	strh	r3, [r7, #10]
  tmpccmrx &= (uint16_t)~TIM_CCMR1_CC2S;
200056a0:	897b      	ldrh	r3, [r7, #10]
200056a2:	f423 7340 	bic.w	r3, r3, #768	@ 0x300
200056a6:	817b      	strh	r3, [r7, #10]
  
  /* Select the Output Compare Mode */
  tmpccmrx |= (uint16_t)(TIM_OCInitStruct->TIM_OCMode << 8);
200056a8:	683b      	ldr	r3, [r7, #0]
200056aa:	881b      	ldrh	r3, [r3, #0]
200056ac:	021b      	lsls	r3, r3, #8
200056ae:	b29a      	uxth	r2, r3
200056b0:	897b      	ldrh	r3, [r7, #10]
200056b2:	4313      	orrs	r3, r2
200056b4:	817b      	strh	r3, [r7, #10]
  
  /* Reset the Output Polarity level */
  tmpccer &= (uint16_t)~TIM_CCER_CC2P;
200056b6:	89fb      	ldrh	r3, [r7, #14]
200056b8:	f023 0320 	bic.w	r3, r3, #32
200056bc:	81fb      	strh	r3, [r7, #14]
  /* Set the Output Compare Polarity */
  tmpccer |= (uint16_t)(TIM_OCInitStruct->TIM_OCPolarity << 4);
200056be:	683b      	ldr	r3, [r7, #0]
200056c0:	899b      	ldrh	r3, [r3, #12]
200056c2:	011b      	lsls	r3, r3, #4
200056c4:	b29a      	uxth	r2, r3
200056c6:	89fb      	ldrh	r3, [r7, #14]
200056c8:	4313      	orrs	r3, r2
200056ca:	81fb      	strh	r3, [r7, #14]
  
  /* Set the Output State */
  tmpccer |= (uint16_t)(TIM_OCInitStruct->TIM_OutputState << 4);
200056cc:	683b      	ldr	r3, [r7, #0]
200056ce:	885b      	ldrh	r3, [r3, #2]
200056d0:	011b      	lsls	r3, r3, #4
200056d2:	b29a      	uxth	r2, r3
200056d4:	89fb      	ldrh	r3, [r7, #14]
200056d6:	4313      	orrs	r3, r2
200056d8:	81fb      	strh	r3, [r7, #14]
    
  if((TIMx == TIM1) || (TIMx == TIM8))
200056da:	687b      	ldr	r3, [r7, #4]
200056dc:	4a22      	ldr	r2, [pc, #136]	@ (20005768 <TIM_OC2Init+0x108>)
200056de:	4293      	cmp	r3, r2
200056e0:	d003      	beq.n	200056ea <TIM_OC2Init+0x8a>
200056e2:	687b      	ldr	r3, [r7, #4]
200056e4:	4a21      	ldr	r2, [pc, #132]	@ (2000576c <TIM_OC2Init+0x10c>)
200056e6:	4293      	cmp	r3, r2
200056e8:	d12b      	bne.n	20005742 <TIM_OC2Init+0xe2>
    assert_param(IS_TIM_OCN_POLARITY(TIM_OCInitStruct->TIM_OCNPolarity));
    assert_param(IS_TIM_OCNIDLE_STATE(TIM_OCInitStruct->TIM_OCNIdleState));
    assert_param(IS_TIM_OCIDLE_STATE(TIM_OCInitStruct->TIM_OCIdleState));
    
    /* Reset the Output N Polarity level */
    tmpccer &= (uint16_t)~TIM_CCER_CC2NP;
200056ea:	89fb      	ldrh	r3, [r7, #14]
200056ec:	f023 0380 	bic.w	r3, r3, #128	@ 0x80
200056f0:	81fb      	strh	r3, [r7, #14]
    /* Set the Output N Polarity */
    tmpccer |= (uint16_t)(TIM_OCInitStruct->TIM_OCNPolarity << 4);
200056f2:	683b      	ldr	r3, [r7, #0]
200056f4:	89db      	ldrh	r3, [r3, #14]
200056f6:	011b      	lsls	r3, r3, #4
200056f8:	b29a      	uxth	r2, r3
200056fa:	89fb      	ldrh	r3, [r7, #14]
200056fc:	4313      	orrs	r3, r2
200056fe:	81fb      	strh	r3, [r7, #14]
    /* Reset the Output N State */
    tmpccer &= (uint16_t)~TIM_CCER_CC2NE;
20005700:	89fb      	ldrh	r3, [r7, #14]
20005702:	f023 0340 	bic.w	r3, r3, #64	@ 0x40
20005706:	81fb      	strh	r3, [r7, #14]
    
    /* Set the Output N State */
    tmpccer |= (uint16_t)(TIM_OCInitStruct->TIM_OutputNState << 4);
20005708:	683b      	ldr	r3, [r7, #0]
2000570a:	889b      	ldrh	r3, [r3, #4]
2000570c:	011b      	lsls	r3, r3, #4
2000570e:	b29a      	uxth	r2, r3
20005710:	89fb      	ldrh	r3, [r7, #14]
20005712:	4313      	orrs	r3, r2
20005714:	81fb      	strh	r3, [r7, #14]
    /* Reset the Output Compare and Output Compare N IDLE State */
    tmpcr2 &= (uint16_t)~TIM_CR2_OIS2;
20005716:	89bb      	ldrh	r3, [r7, #12]
20005718:	f423 6380 	bic.w	r3, r3, #1024	@ 0x400
2000571c:	81bb      	strh	r3, [r7, #12]
    tmpcr2 &= (uint16_t)~TIM_CR2_OIS2N;
2000571e:	89bb      	ldrh	r3, [r7, #12]
20005720:	f423 6300 	bic.w	r3, r3, #2048	@ 0x800
20005724:	81bb      	strh	r3, [r7, #12]
    /* Set the Output Idle state */
    tmpcr2 |= (uint16_t)(TIM_OCInitStruct->TIM_OCIdleState << 2);
20005726:	683b      	ldr	r3, [r7, #0]
20005728:	8a1b      	ldrh	r3, [r3, #16]
2000572a:	009b      	lsls	r3, r3, #2
2000572c:	b29a      	uxth	r2, r3
2000572e:	89bb      	ldrh	r3, [r7, #12]
20005730:	4313      	orrs	r3, r2
20005732:	81bb      	strh	r3, [r7, #12]
    /* Set the Output N Idle state */
    tmpcr2 |= (uint16_t)(TIM_OCInitStruct->TIM_OCNIdleState << 2);
20005734:	683b      	ldr	r3, [r7, #0]
20005736:	8a5b      	ldrh	r3, [r3, #18]
20005738:	009b      	lsls	r3, r3, #2
2000573a:	b29a      	uxth	r2, r3
2000573c:	89bb      	ldrh	r3, [r7, #12]
2000573e:	4313      	orrs	r3, r2
20005740:	81bb      	strh	r3, [r7, #12]
  }
  /* Write to TIMx CR2 */
  TIMx->CR2 = tmpcr2;
20005742:	687b      	ldr	r3, [r7, #4]
20005744:	89ba      	ldrh	r2, [r7, #12]
20005746:	809a      	strh	r2, [r3, #4]
  
  /* Write to TIMx CCMR1 */
  TIMx->CCMR1 = tmpccmrx;
20005748:	687b      	ldr	r3, [r7, #4]
2000574a:	897a      	ldrh	r2, [r7, #10]
2000574c:	831a      	strh	r2, [r3, #24]
  
  /* Set the Capture Compare Register value */
  TIMx->CCR2 = TIM_OCInitStruct->TIM_Pulse;
2000574e:	683b      	ldr	r3, [r7, #0]
20005750:	689a      	ldr	r2, [r3, #8]
20005752:	687b      	ldr	r3, [r7, #4]
20005754:	639a      	str	r2, [r3, #56]	@ 0x38
  
  /* Write to TIMx CCER */
  TIMx->CCER = tmpccer;
20005756:	687b      	ldr	r3, [r7, #4]
20005758:	89fa      	ldrh	r2, [r7, #14]
2000575a:	841a      	strh	r2, [r3, #32]
}
2000575c:	bf00      	nop
2000575e:	3714      	adds	r7, #20
20005760:	46bd      	mov	sp, r7
20005762:	f85d 7b04 	ldr.w	r7, [sp], #4
20005766:	4770      	bx	lr
20005768:	40010000 	.word	0x40010000
2000576c:	40010400 	.word	0x40010400

20005770 <TIM_OC3Init>:
  * @param  TIM_OCInitStruct: pointer to a TIM_OCInitTypeDef structure that contains
  *         the configuration information for the specified TIM peripheral.
  * @retval None
  */
void TIM_OC3Init(TIM_TypeDef* TIMx, TIM_OCInitTypeDef* TIM_OCInitStruct)
{
20005770:	b480      	push	{r7}
20005772:	b085      	sub	sp, #20
20005774:	af00      	add	r7, sp, #0
20005776:	6078      	str	r0, [r7, #4]
20005778:	6039      	str	r1, [r7, #0]
  uint16_t tmpccmrx = 0, tmpccer = 0, tmpcr2 = 0;
2000577a:	2300      	movs	r3, #0
2000577c:	817b      	strh	r3, [r7, #10]
2000577e:	2300      	movs	r3, #0
20005780:	81fb      	strh	r3, [r7, #14]
20005782:	2300      	movs	r3, #0
20005784:	81bb      	strh	r3, [r7, #12]
  assert_param(IS_TIM_OC_MODE(TIM_OCInitStruct->TIM_OCMode));
  assert_param(IS_TIM_OUTPUT_STATE(TIM_OCInitStruct->TIM_OutputState));
  assert_param(IS_TIM_OC_POLARITY(TIM_OCInitStruct->TIM_OCPolarity));   

  /* Disable the Channel 3: Reset the CC2E Bit */
  TIMx->CCER &= (uint16_t)~TIM_CCER_CC3E;
20005786:	687b      	ldr	r3, [r7, #4]
20005788:	8c1b      	ldrh	r3, [r3, #32]
2000578a:	b29b      	uxth	r3, r3
2000578c:	f423 7380 	bic.w	r3, r3, #256	@ 0x100
20005790:	b29a      	uxth	r2, r3
20005792:	687b      	ldr	r3, [r7, #4]
20005794:	841a      	strh	r2, [r3, #32]
  
  /* Get the TIMx CCER register value */
  tmpccer = TIMx->CCER;
20005796:	687b      	ldr	r3, [r7, #4]
20005798:	8c1b      	ldrh	r3, [r3, #32]
2000579a:	81fb      	strh	r3, [r7, #14]
  /* Get the TIMx CR2 register value */
  tmpcr2 =  TIMx->CR2;
2000579c:	687b      	ldr	r3, [r7, #4]
2000579e:	889b      	ldrh	r3, [r3, #4]
200057a0:	81bb      	strh	r3, [r7, #12]
  
  /* Get the TIMx CCMR2 register value */
  tmpccmrx = TIMx->CCMR2;
200057a2:	687b      	ldr	r3, [r7, #4]
200057a4:	8b9b      	ldrh	r3, [r3, #28]
200057a6:	817b      	strh	r3, [r7, #10]
    
  /* Reset the Output Compare mode and Capture/Compare selection Bits */
  tmpccmrx &= (uint16_t)~TIM_CCMR2_OC3M;
200057a8:	897b      	ldrh	r3, [r7, #10]
200057aa:	f023 0370 	bic.w	r3, r3, #112	@ 0x70
200057ae:	817b      	strh	r3, [r7, #10]
  tmpccmrx &= (uint16_t)~TIM_CCMR2_CC3S;  
200057b0:	897b      	ldrh	r3, [r7, #10]
200057b2:	f023 0303 	bic.w	r3, r3, #3
200057b6:	817b      	strh	r3, [r7, #10]
  /* Select the Output Compare Mode */
  tmpccmrx |= TIM_OCInitStruct->TIM_OCMode;
200057b8:	683b      	ldr	r3, [r7, #0]
200057ba:	881a      	ldrh	r2, [r3, #0]
200057bc:	897b      	ldrh	r3, [r7, #10]
200057be:	4313      	orrs	r3, r2
200057c0:	817b      	strh	r3, [r7, #10]
  
  /* Reset the Output Polarity level */
  tmpccer &= (uint16_t)~TIM_CCER_CC3P;
200057c2:	89fb      	ldrh	r3, [r7, #14]
200057c4:	f423 7300 	bic.w	r3, r3, #512	@ 0x200
200057c8:	81fb      	strh	r3, [r7, #14]
  /* Set the Output Compare Polarity */
  tmpccer |= (uint16_t)(TIM_OCInitStruct->TIM_OCPolarity << 8);
200057ca:	683b      	ldr	r3, [r7, #0]
200057cc:	899b      	ldrh	r3, [r3, #12]
200057ce:	021b      	lsls	r3, r3, #8
200057d0:	b29a      	uxth	r2, r3
200057d2:	89fb      	ldrh	r3, [r7, #14]
200057d4:	4313      	orrs	r3, r2
200057d6:	81fb      	strh	r3, [r7, #14]
  
  /* Set the Output State */
  tmpccer |= (uint16_t)(TIM_OCInitStruct->TIM_OutputState << 8);
200057d8:	683b      	ldr	r3, [r7, #0]
200057da:	885b      	ldrh	r3, [r3, #2]
200057dc:	021b      	lsls	r3, r3, #8
200057de:	b29a      	uxth	r2, r3
200057e0:	89fb      	ldrh	r3, [r7, #14]
200057e2:	4313      	orrs	r3, r2
200057e4:	81fb      	strh	r3, [r7, #14]
    
  if((TIMx == TIM1) || (TIMx == TIM8))
200057e6:	687b      	ldr	r3, [r7, #4]
200057e8:	4a22      	ldr	r2, [pc, #136]	@ (20005874 <TIM_OC3Init+0x104>)
200057ea:	4293      	cmp	r3, r2
200057ec:	d003      	beq.n	200057f6 <TIM_OC3Init+0x86>
200057ee:	687b      	ldr	r3, [r7, #4]
200057f0:	4a21      	ldr	r2, [pc, #132]	@ (20005878 <TIM_OC3Init+0x108>)
200057f2:	4293      	cmp	r3, r2
200057f4:	d12b      	bne.n	2000584e <TIM_OC3Init+0xde>
    assert_param(IS_TIM_OCN_POLARITY(TIM_OCInitStruct->TIM_OCNPolarity));
    assert_param(IS_TIM_OCNIDLE_STATE(TIM_OCInitStruct->TIM_OCNIdleState));
    assert_param(IS_TIM_OCIDLE_STATE(TIM_OCInitStruct->TIM_OCIdleState));
    
    /* Reset the Output N Polarity level */
    tmpccer &= (uint16_t)~TIM_CCER_CC3NP;
200057f6:	89fb      	ldrh	r3, [r7, #14]
200057f8:	f423 6300 	bic.w	r3, r3, #2048	@ 0x800
200057fc:	81fb      	strh	r3, [r7, #14]
    /* Set the Output N Polarity */
    tmpccer |= (uint16_t)(TIM_OCInitStruct->TIM_OCNPolarity << 8);
200057fe:	683b      	ldr	r3, [r7, #0]
20005800:	89db      	ldrh	r3, [r3, #14]
20005802:	021b      	lsls	r3, r3, #8
20005804:	b29a      	uxth	r2, r3
20005806:	89fb      	ldrh	r3, [r7, #14]
20005808:	4313      	orrs	r3, r2
2000580a:	81fb      	strh	r3, [r7, #14]
    /* Reset the Output N State */
    tmpccer &= (uint16_t)~TIM_CCER_CC3NE;
2000580c:	89fb      	ldrh	r3, [r7, #14]
2000580e:	f423 6380 	bic.w	r3, r3, #1024	@ 0x400
20005812:	81fb      	strh	r3, [r7, #14]
    
    /* Set the Output N State */
    tmpccer |= (uint16_t)(TIM_OCInitStruct->TIM_OutputNState << 8);
20005814:	683b      	ldr	r3, [r7, #0]
20005816:	889b      	ldrh	r3, [r3, #4]
20005818:	021b      	lsls	r3, r3, #8
2000581a:	b29a      	uxth	r2, r3
2000581c:	89fb      	ldrh	r3, [r7, #14]
2000581e:	4313      	orrs	r3, r2
20005820:	81fb      	strh	r3, [r7, #14]
    /* Reset the Output Compare and Output Compare N IDLE State */
    tmpcr2 &= (uint16_t)~TIM_CR2_OIS3;
20005822:	89bb      	ldrh	r3, [r7, #12]
20005824:	f423 5380 	bic.w	r3, r3, #4096	@ 0x1000
20005828:	81bb      	strh	r3, [r7, #12]
    tmpcr2 &= (uint16_t)~TIM_CR2_OIS3N;
2000582a:	89bb      	ldrh	r3, [r7, #12]
2000582c:	f423 5300 	bic.w	r3, r3, #8192	@ 0x2000
20005830:	81bb      	strh	r3, [r7, #12]
    /* Set the Output Idle state */
    tmpcr2 |= (uint16_t)(TIM_OCInitStruct->TIM_OCIdleState << 4);
20005832:	683b      	ldr	r3, [r7, #0]
20005834:	8a1b      	ldrh	r3, [r3, #16]
20005836:	011b      	lsls	r3, r3, #4
20005838:	b29a      	uxth	r2, r3
2000583a:	89bb      	ldrh	r3, [r7, #12]
2000583c:	4313      	orrs	r3, r2
2000583e:	81bb      	strh	r3, [r7, #12]
    /* Set the Output N Idle state */
    tmpcr2 |= (uint16_t)(TIM_OCInitStruct->TIM_OCNIdleState << 4);
20005840:	683b      	ldr	r3, [r7, #0]
20005842:	8a5b      	ldrh	r3, [r3, #18]
20005844:	011b      	lsls	r3, r3, #4
20005846:	b29a      	uxth	r2, r3
20005848:	89bb      	ldrh	r3, [r7, #12]
2000584a:	4313      	orrs	r3, r2
2000584c:	81bb      	strh	r3, [r7, #12]
  }
  /* Write to TIMx CR2 */
  TIMx->CR2 = tmpcr2;
2000584e:	687b      	ldr	r3, [r7, #4]
20005850:	89ba      	ldrh	r2, [r7, #12]
20005852:	809a      	strh	r2, [r3, #4]
  
  /* Write to TIMx CCMR2 */
  TIMx->CCMR2 = tmpccmrx;
20005854:	687b      	ldr	r3, [r7, #4]
20005856:	897a      	ldrh	r2, [r7, #10]
20005858:	839a      	strh	r2, [r3, #28]
  
  /* Set the Capture Compare Register value */
  TIMx->CCR3 = TIM_OCInitStruct->TIM_Pulse;
2000585a:	683b      	ldr	r3, [r7, #0]
2000585c:	689a      	ldr	r2, [r3, #8]
2000585e:	687b      	ldr	r3, [r7, #4]
20005860:	63da      	str	r2, [r3, #60]	@ 0x3c
  
  /* Write to TIMx CCER */
  TIMx->CCER = tmpccer;
20005862:	687b      	ldr	r3, [r7, #4]
20005864:	89fa      	ldrh	r2, [r7, #14]
20005866:	841a      	strh	r2, [r3, #32]
}
20005868:	bf00      	nop
2000586a:	3714      	adds	r7, #20
2000586c:	46bd      	mov	sp, r7
2000586e:	f85d 7b04 	ldr.w	r7, [sp], #4
20005872:	4770      	bx	lr
20005874:	40010000 	.word	0x40010000
20005878:	40010400 	.word	0x40010400

2000587c <TIM_OC4Init>:
  * @param  TIM_OCInitStruct: pointer to a TIM_OCInitTypeDef structure that contains
  *         the configuration information for the specified TIM peripheral.
  * @retval None
  */
void TIM_OC4Init(TIM_TypeDef* TIMx, TIM_OCInitTypeDef* TIM_OCInitStruct)
{
2000587c:	b480      	push	{r7}
2000587e:	b085      	sub	sp, #20
20005880:	af00      	add	r7, sp, #0
20005882:	6078      	str	r0, [r7, #4]
20005884:	6039      	str	r1, [r7, #0]
  uint16_t tmpccmrx = 0, tmpccer = 0, tmpcr2 = 0;
20005886:	2300      	movs	r3, #0
20005888:	81bb      	strh	r3, [r7, #12]
2000588a:	2300      	movs	r3, #0
2000588c:	817b      	strh	r3, [r7, #10]
2000588e:	2300      	movs	r3, #0
20005890:	81fb      	strh	r3, [r7, #14]
  assert_param(IS_TIM_OC_MODE(TIM_OCInitStruct->TIM_OCMode));
  assert_param(IS_TIM_OUTPUT_STATE(TIM_OCInitStruct->TIM_OutputState));
  assert_param(IS_TIM_OC_POLARITY(TIM_OCInitStruct->TIM_OCPolarity));   

  /* Disable the Channel 4: Reset the CC4E Bit */
  TIMx->CCER &= (uint16_t)~TIM_CCER_CC4E;
20005892:	687b      	ldr	r3, [r7, #4]
20005894:	8c1b      	ldrh	r3, [r3, #32]
20005896:	b29b      	uxth	r3, r3
20005898:	f423 5380 	bic.w	r3, r3, #4096	@ 0x1000
2000589c:	b29a      	uxth	r2, r3
2000589e:	687b      	ldr	r3, [r7, #4]
200058a0:	841a      	strh	r2, [r3, #32]
  
  /* Get the TIMx CCER register value */
  tmpccer = TIMx->CCER;
200058a2:	687b      	ldr	r3, [r7, #4]
200058a4:	8c1b      	ldrh	r3, [r3, #32]
200058a6:	817b      	strh	r3, [r7, #10]
  /* Get the TIMx CR2 register value */
  tmpcr2 =  TIMx->CR2;
200058a8:	687b      	ldr	r3, [r7, #4]
200058aa:	889b      	ldrh	r3, [r3, #4]
200058ac:	81fb      	strh	r3, [r7, #14]
  
  /* Get the TIMx CCMR2 register value */
  tmpccmrx = TIMx->CCMR2;
200058ae:	687b      	ldr	r3, [r7, #4]
200058b0:	8b9b      	ldrh	r3, [r3, #28]
200058b2:	81bb      	strh	r3, [r7, #12]
    
  /* Reset the Output Compare mode and Capture/Compare selection Bits */
  tmpccmrx &= (uint16_t)~TIM_CCMR2_OC4M;
200058b4:	89bb      	ldrh	r3, [r7, #12]
200058b6:	f423 43e0 	bic.w	r3, r3, #28672	@ 0x7000
200058ba:	81bb      	strh	r3, [r7, #12]
  tmpccmrx &= (uint16_t)~TIM_CCMR2_CC4S;
200058bc:	89bb      	ldrh	r3, [r7, #12]
200058be:	f423 7340 	bic.w	r3, r3, #768	@ 0x300
200058c2:	81bb      	strh	r3, [r7, #12]
  
  /* Select the Output Compare Mode */
  tmpccmrx |= (uint16_t)(TIM_OCInitStruct->TIM_OCMode << 8);
200058c4:	683b      	ldr	r3, [r7, #0]
200058c6:	881b      	ldrh	r3, [r3, #0]
200058c8:	021b      	lsls	r3, r3, #8
200058ca:	b29a      	uxth	r2, r3
200058cc:	89bb      	ldrh	r3, [r7, #12]
200058ce:	4313      	orrs	r3, r2
200058d0:	81bb      	strh	r3, [r7, #12]
  
  /* Reset the Output Polarity level */
  tmpccer &= (uint16_t)~TIM_CCER_CC4P;
200058d2:	897b      	ldrh	r3, [r7, #10]
200058d4:	f423 5300 	bic.w	r3, r3, #8192	@ 0x2000
200058d8:	817b      	strh	r3, [r7, #10]
  /* Set the Output Compare Polarity */
  tmpccer |= (uint16_t)(TIM_OCInitStruct->TIM_OCPolarity << 12);
200058da:	683b      	ldr	r3, [r7, #0]
200058dc:	899b      	ldrh	r3, [r3, #12]
200058de:	031b      	lsls	r3, r3, #12
200058e0:	b29a      	uxth	r2, r3
200058e2:	897b      	ldrh	r3, [r7, #10]
200058e4:	4313      	orrs	r3, r2
200058e6:	817b      	strh	r3, [r7, #10]
  
  /* Set the Output State */
  tmpccer |= (uint16_t)(TIM_OCInitStruct->TIM_OutputState << 12);
200058e8:	683b      	ldr	r3, [r7, #0]
200058ea:	885b      	ldrh	r3, [r3, #2]
200058ec:	031b      	lsls	r3, r3, #12
200058ee:	b29a      	uxth	r2, r3
200058f0:	897b      	ldrh	r3, [r7, #10]
200058f2:	4313      	orrs	r3, r2
200058f4:	817b      	strh	r3, [r7, #10]
  
  if((TIMx == TIM1) || (TIMx == TIM8))
200058f6:	687b      	ldr	r3, [r7, #4]
200058f8:	4a12      	ldr	r2, [pc, #72]	@ (20005944 <TIM_OC4Init+0xc8>)
200058fa:	4293      	cmp	r3, r2
200058fc:	d003      	beq.n	20005906 <TIM_OC4Init+0x8a>
200058fe:	687b      	ldr	r3, [r7, #4]
20005900:	4a11      	ldr	r2, [pc, #68]	@ (20005948 <TIM_OC4Init+0xcc>)
20005902:	4293      	cmp	r3, r2
20005904:	d10a      	bne.n	2000591c <TIM_OC4Init+0xa0>
  {
    assert_param(IS_TIM_OCIDLE_STATE(TIM_OCInitStruct->TIM_OCIdleState));
    /* Reset the Output Compare IDLE State */
    tmpcr2 &=(uint16_t) ~TIM_CR2_OIS4;
20005906:	89fb      	ldrh	r3, [r7, #14]
20005908:	f423 4380 	bic.w	r3, r3, #16384	@ 0x4000
2000590c:	81fb      	strh	r3, [r7, #14]
    /* Set the Output Idle state */
    tmpcr2 |= (uint16_t)(TIM_OCInitStruct->TIM_OCIdleState << 6);
2000590e:	683b      	ldr	r3, [r7, #0]
20005910:	8a1b      	ldrh	r3, [r3, #16]
20005912:	019b      	lsls	r3, r3, #6
20005914:	b29a      	uxth	r2, r3
20005916:	89fb      	ldrh	r3, [r7, #14]
20005918:	4313      	orrs	r3, r2
2000591a:	81fb      	strh	r3, [r7, #14]
  }
  /* Write to TIMx CR2 */
  TIMx->CR2 = tmpcr2;
2000591c:	687b      	ldr	r3, [r7, #4]
2000591e:	89fa      	ldrh	r2, [r7, #14]
20005920:	809a      	strh	r2, [r3, #4]
  
  /* Write to TIMx CCMR2 */  
  TIMx->CCMR2 = tmpccmrx;
20005922:	687b      	ldr	r3, [r7, #4]
20005924:	89ba      	ldrh	r2, [r7, #12]
20005926:	839a      	strh	r2, [r3, #28]
    
  /* Set the Capture Compare Register value */
  TIMx->CCR4 = TIM_OCInitStruct->TIM_Pulse;
20005928:	683b      	ldr	r3, [r7, #0]
2000592a:	689a      	ldr	r2, [r3, #8]
2000592c:	687b      	ldr	r3, [r7, #4]
2000592e:	641a      	str	r2, [r3, #64]	@ 0x40
  
  /* Write to TIMx CCER */
  TIMx->CCER = tmpccer;
20005930:	687b      	ldr	r3, [r7, #4]
20005932:	897a      	ldrh	r2, [r7, #10]
20005934:	841a      	strh	r2, [r3, #32]
}
20005936:	bf00      	nop
20005938:	3714      	adds	r7, #20
2000593a:	46bd      	mov	sp, r7
2000593c:	f85d 7b04 	ldr.w	r7, [sp], #4
20005940:	4770      	bx	lr
20005942:	bf00      	nop
20005944:	40010000 	.word	0x40010000
20005948:	40010400 	.word	0x40010400

2000594c <TIM_OCStructInit>:
  * @param  TIM_OCInitStruct: pointer to a TIM_OCInitTypeDef structure which will
  *         be initialized.
  * @retval None
  */
void TIM_OCStructInit(TIM_OCInitTypeDef* TIM_OCInitStruct)
{
2000594c:	b480      	push	{r7}
2000594e:	b083      	sub	sp, #12
20005950:	af00      	add	r7, sp, #0
20005952:	6078      	str	r0, [r7, #4]
  /* Set the default configuration */
  TIM_OCInitStruct->TIM_OCMode = TIM_OCMode_Timing;
20005954:	687b      	ldr	r3, [r7, #4]
20005956:	2200      	movs	r2, #0
20005958:	801a      	strh	r2, [r3, #0]
  TIM_OCInitStruct->TIM_OutputState = TIM_OutputState_Disable;
2000595a:	687b      	ldr	r3, [r7, #4]
2000595c:	2200      	movs	r2, #0
2000595e:	805a      	strh	r2, [r3, #2]
  TIM_OCInitStruct->TIM_OutputNState = TIM_OutputNState_Disable;
20005960:	687b      	ldr	r3, [r7, #4]
20005962:	2200      	movs	r2, #0
20005964:	809a      	strh	r2, [r3, #4]
  TIM_OCInitStruct->TIM_Pulse = 0x00000000;
20005966:	687b      	ldr	r3, [r7, #4]
20005968:	2200      	movs	r2, #0
2000596a:	609a      	str	r2, [r3, #8]
  TIM_OCInitStruct->TIM_OCPolarity = TIM_OCPolarity_High;
2000596c:	687b      	ldr	r3, [r7, #4]
2000596e:	2200      	movs	r2, #0
20005970:	819a      	strh	r2, [r3, #12]
  TIM_OCInitStruct->TIM_OCNPolarity = TIM_OCPolarity_High;
20005972:	687b      	ldr	r3, [r7, #4]
20005974:	2200      	movs	r2, #0
20005976:	81da      	strh	r2, [r3, #14]
  TIM_OCInitStruct->TIM_OCIdleState = TIM_OCIdleState_Reset;
20005978:	687b      	ldr	r3, [r7, #4]
2000597a:	2200      	movs	r2, #0
2000597c:	821a      	strh	r2, [r3, #16]
  TIM_OCInitStruct->TIM_OCNIdleState = TIM_OCNIdleState_Reset;
2000597e:	687b      	ldr	r3, [r7, #4]
20005980:	2200      	movs	r2, #0
20005982:	825a      	strh	r2, [r3, #18]
}
20005984:	bf00      	nop
20005986:	370c      	adds	r7, #12
20005988:	46bd      	mov	sp, r7
2000598a:	f85d 7b04 	ldr.w	r7, [sp], #4
2000598e:	4770      	bx	lr

20005990 <TIM_SelectOCxM>:
  *            @arg TIM_ForcedAction_Active
  *            @arg TIM_ForcedAction_InActive
  * @retval None
  */
void TIM_SelectOCxM(TIM_TypeDef* TIMx, uint16_t TIM_Channel, uint16_t TIM_OCMode)
{
20005990:	b480      	push	{r7}
20005992:	b085      	sub	sp, #20
20005994:	af00      	add	r7, sp, #0
20005996:	6078      	str	r0, [r7, #4]
20005998:	460b      	mov	r3, r1
2000599a:	807b      	strh	r3, [r7, #2]
2000599c:	4613      	mov	r3, r2
2000599e:	803b      	strh	r3, [r7, #0]
  uint32_t tmp = 0;
200059a0:	2300      	movs	r3, #0
200059a2:	60fb      	str	r3, [r7, #12]
  uint16_t tmp1 = 0;
200059a4:	2300      	movs	r3, #0
200059a6:	817b      	strh	r3, [r7, #10]
  /* Check the parameters */
  assert_param(IS_TIM_LIST1_PERIPH(TIMx));
  assert_param(IS_TIM_CHANNEL(TIM_Channel));
  assert_param(IS_TIM_OCM(TIM_OCMode));

  tmp = (uint32_t) TIMx;
200059a8:	687b      	ldr	r3, [r7, #4]
200059aa:	60fb      	str	r3, [r7, #12]
  tmp += CCMR_OFFSET;
200059ac:	68fb      	ldr	r3, [r7, #12]
200059ae:	3318      	adds	r3, #24
200059b0:	60fb      	str	r3, [r7, #12]

  tmp1 = CCER_CCE_SET << (uint16_t)TIM_Channel;
200059b2:	887b      	ldrh	r3, [r7, #2]
200059b4:	2201      	movs	r2, #1
200059b6:	fa02 f303 	lsl.w	r3, r2, r3
200059ba:	817b      	strh	r3, [r7, #10]

  /* Disable the Channel: Reset the CCxE Bit */
  TIMx->CCER &= (uint16_t) ~tmp1;
200059bc:	687b      	ldr	r3, [r7, #4]
200059be:	8c1b      	ldrh	r3, [r3, #32]
200059c0:	b29a      	uxth	r2, r3
200059c2:	897b      	ldrh	r3, [r7, #10]
200059c4:	43db      	mvns	r3, r3
200059c6:	b29b      	uxth	r3, r3
200059c8:	4013      	ands	r3, r2
200059ca:	b29a      	uxth	r2, r3
200059cc:	687b      	ldr	r3, [r7, #4]
200059ce:	841a      	strh	r2, [r3, #32]

  if((TIM_Channel == TIM_Channel_1) ||(TIM_Channel == TIM_Channel_3))
200059d0:	887b      	ldrh	r3, [r7, #2]
200059d2:	2b00      	cmp	r3, #0
200059d4:	d002      	beq.n	200059dc <TIM_SelectOCxM+0x4c>
200059d6:	887b      	ldrh	r3, [r7, #2]
200059d8:	2b08      	cmp	r3, #8
200059da:	d114      	bne.n	20005a06 <TIM_SelectOCxM+0x76>
  {
    tmp += (TIM_Channel>>1);
200059dc:	887b      	ldrh	r3, [r7, #2]
200059de:	085b      	lsrs	r3, r3, #1
200059e0:	b29b      	uxth	r3, r3
200059e2:	461a      	mov	r2, r3
200059e4:	68fb      	ldr	r3, [r7, #12]
200059e6:	4413      	add	r3, r2
200059e8:	60fb      	str	r3, [r7, #12]

    /* Reset the OCxM bits in the CCMRx register */
    *(__IO uint32_t *) tmp &= CCMR_OC13M_MASK;
200059ea:	68fb      	ldr	r3, [r7, #12]
200059ec:	6819      	ldr	r1, [r3, #0]
200059ee:	68fa      	ldr	r2, [r7, #12]
200059f0:	f64f 738f 	movw	r3, #65423	@ 0xff8f
200059f4:	400b      	ands	r3, r1
200059f6:	6013      	str	r3, [r2, #0]
   
    /* Configure the OCxM bits in the CCMRx register */
    *(__IO uint32_t *) tmp |= TIM_OCMode;
200059f8:	68fb      	ldr	r3, [r7, #12]
200059fa:	6819      	ldr	r1, [r3, #0]
200059fc:	883a      	ldrh	r2, [r7, #0]
200059fe:	68fb      	ldr	r3, [r7, #12]
20005a00:	430a      	orrs	r2, r1
20005a02:	601a      	str	r2, [r3, #0]
20005a04:	e019      	b.n	20005a3a <TIM_SelectOCxM+0xaa>
  }
  else
  {
    tmp += (uint16_t)(TIM_Channel - (uint16_t)4)>> (uint16_t)1;
20005a06:	887b      	ldrh	r3, [r7, #2]
20005a08:	3b04      	subs	r3, #4
20005a0a:	b29b      	uxth	r3, r3
20005a0c:	085b      	lsrs	r3, r3, #1
20005a0e:	b29b      	uxth	r3, r3
20005a10:	461a      	mov	r2, r3
20005a12:	68fb      	ldr	r3, [r7, #12]
20005a14:	4413      	add	r3, r2
20005a16:	60fb      	str	r3, [r7, #12]

    /* Reset the OCxM bits in the CCMRx register */
    *(__IO uint32_t *) tmp &= CCMR_OC24M_MASK;
20005a18:	68fb      	ldr	r3, [r7, #12]
20005a1a:	6819      	ldr	r1, [r3, #0]
20005a1c:	68fa      	ldr	r2, [r7, #12]
20005a1e:	f648 73ff 	movw	r3, #36863	@ 0x8fff
20005a22:	400b      	ands	r3, r1
20005a24:	6013      	str	r3, [r2, #0]
    
    /* Configure the OCxM bits in the CCMRx register */
    *(__IO uint32_t *) tmp |= (uint16_t)(TIM_OCMode << 8);
20005a26:	68fb      	ldr	r3, [r7, #12]
20005a28:	681a      	ldr	r2, [r3, #0]
20005a2a:	883b      	ldrh	r3, [r7, #0]
20005a2c:	021b      	lsls	r3, r3, #8
20005a2e:	b29b      	uxth	r3, r3
20005a30:	4619      	mov	r1, r3
20005a32:	68fb      	ldr	r3, [r7, #12]
20005a34:	430a      	orrs	r2, r1
20005a36:	601a      	str	r2, [r3, #0]
  }
}
20005a38:	bf00      	nop
20005a3a:	bf00      	nop
20005a3c:	3714      	adds	r7, #20
20005a3e:	46bd      	mov	sp, r7
20005a40:	f85d 7b04 	ldr.w	r7, [sp], #4
20005a44:	4770      	bx	lr

20005a46 <TIM_SetCompare1>:
  * @param  TIMx: where x can be 1 to 14 except 6 and 7, to select the TIM peripheral.
  * @param  Compare1: specifies the Capture Compare1 register new value.
  * @retval None
  */
void TIM_SetCompare1(TIM_TypeDef* TIMx, uint32_t Compare1)
{
20005a46:	b480      	push	{r7}
20005a48:	b083      	sub	sp, #12
20005a4a:	af00      	add	r7, sp, #0
20005a4c:	6078      	str	r0, [r7, #4]
20005a4e:	6039      	str	r1, [r7, #0]
  /* Check the parameters */
  assert_param(IS_TIM_LIST1_PERIPH(TIMx));

  /* Set the Capture Compare1 Register value */
  TIMx->CCR1 = Compare1;
20005a50:	687b      	ldr	r3, [r7, #4]
20005a52:	683a      	ldr	r2, [r7, #0]
20005a54:	635a      	str	r2, [r3, #52]	@ 0x34
}
20005a56:	bf00      	nop
20005a58:	370c      	adds	r7, #12
20005a5a:	46bd      	mov	sp, r7
20005a5c:	f85d 7b04 	ldr.w	r7, [sp], #4
20005a60:	4770      	bx	lr

20005a62 <TIM_SetCompare2>:
  *         peripheral.
  * @param  Compare2: specifies the Capture Compare2 register new value.
  * @retval None
  */
void TIM_SetCompare2(TIM_TypeDef* TIMx, uint32_t Compare2)
{
20005a62:	b480      	push	{r7}
20005a64:	b083      	sub	sp, #12
20005a66:	af00      	add	r7, sp, #0
20005a68:	6078      	str	r0, [r7, #4]
20005a6a:	6039      	str	r1, [r7, #0]
  /* Check the parameters */
  assert_param(IS_TIM_LIST2_PERIPH(TIMx));

  /* Set the Capture Compare2 Register value */
  TIMx->CCR2 = Compare2;
20005a6c:	687b      	ldr	r3, [r7, #4]
20005a6e:	683a      	ldr	r2, [r7, #0]
20005a70:	639a      	str	r2, [r3, #56]	@ 0x38
}
20005a72:	bf00      	nop
20005a74:	370c      	adds	r7, #12
20005a76:	46bd      	mov	sp, r7
20005a78:	f85d 7b04 	ldr.w	r7, [sp], #4
20005a7c:	4770      	bx	lr

20005a7e <TIM_SetCompare3>:
  * @param  TIMx: where x can be 1, 2, 3, 4, 5 or 8 to select the TIM peripheral.
  * @param  Compare3: specifies the Capture Compare3 register new value.
  * @retval None
  */
void TIM_SetCompare3(TIM_TypeDef* TIMx, uint32_t Compare3)
{
20005a7e:	b480      	push	{r7}
20005a80:	b083      	sub	sp, #12
20005a82:	af00      	add	r7, sp, #0
20005a84:	6078      	str	r0, [r7, #4]
20005a86:	6039      	str	r1, [r7, #0]
  /* Check the parameters */
  assert_param(IS_TIM_LIST3_PERIPH(TIMx));

  /* Set the Capture Compare3 Register value */
  TIMx->CCR3 = Compare3;
20005a88:	687b      	ldr	r3, [r7, #4]
20005a8a:	683a      	ldr	r2, [r7, #0]
20005a8c:	63da      	str	r2, [r3, #60]	@ 0x3c
}
20005a8e:	bf00      	nop
20005a90:	370c      	adds	r7, #12
20005a92:	46bd      	mov	sp, r7
20005a94:	f85d 7b04 	ldr.w	r7, [sp], #4
20005a98:	4770      	bx	lr

20005a9a <TIM_SetCompare4>:
  * @param  TIMx: where x can be 1, 2, 3, 4, 5 or 8 to select the TIM peripheral.
  * @param  Compare4: specifies the Capture Compare4 register new value.
  * @retval None
  */
void TIM_SetCompare4(TIM_TypeDef* TIMx, uint32_t Compare4)
{
20005a9a:	b480      	push	{r7}
20005a9c:	b083      	sub	sp, #12
20005a9e:	af00      	add	r7, sp, #0
20005aa0:	6078      	str	r0, [r7, #4]
20005aa2:	6039      	str	r1, [r7, #0]
  /* Check the parameters */
  assert_param(IS_TIM_LIST3_PERIPH(TIMx));

  /* Set the Capture Compare4 Register value */
  TIMx->CCR4 = Compare4;
20005aa4:	687b      	ldr	r3, [r7, #4]
20005aa6:	683a      	ldr	r2, [r7, #0]
20005aa8:	641a      	str	r2, [r3, #64]	@ 0x40
}
20005aaa:	bf00      	nop
20005aac:	370c      	adds	r7, #12
20005aae:	46bd      	mov	sp, r7
20005ab0:	f85d 7b04 	ldr.w	r7, [sp], #4
20005ab4:	4770      	bx	lr

20005ab6 <TIM_ForcedOC1Config>:
  *            @arg TIM_ForcedAction_Active: Force active level on OC1REF
  *            @arg TIM_ForcedAction_InActive: Force inactive level on OC1REF.
  * @retval None
  */
void TIM_ForcedOC1Config(TIM_TypeDef* TIMx, uint16_t TIM_ForcedAction)
{
20005ab6:	b480      	push	{r7}
20005ab8:	b085      	sub	sp, #20
20005aba:	af00      	add	r7, sp, #0
20005abc:	6078      	str	r0, [r7, #4]
20005abe:	460b      	mov	r3, r1
20005ac0:	807b      	strh	r3, [r7, #2]
  uint16_t tmpccmr1 = 0;
20005ac2:	2300      	movs	r3, #0
20005ac4:	81fb      	strh	r3, [r7, #14]

  /* Check the parameters */
  assert_param(IS_TIM_LIST1_PERIPH(TIMx));
  assert_param(IS_TIM_FORCED_ACTION(TIM_ForcedAction));
  tmpccmr1 = TIMx->CCMR1;
20005ac6:	687b      	ldr	r3, [r7, #4]
20005ac8:	8b1b      	ldrh	r3, [r3, #24]
20005aca:	81fb      	strh	r3, [r7, #14]

  /* Reset the OC1M Bits */
  tmpccmr1 &= (uint16_t)~TIM_CCMR1_OC1M;
20005acc:	89fb      	ldrh	r3, [r7, #14]
20005ace:	f023 0370 	bic.w	r3, r3, #112	@ 0x70
20005ad2:	81fb      	strh	r3, [r7, #14]

  /* Configure The Forced output Mode */
  tmpccmr1 |= TIM_ForcedAction;
20005ad4:	89fa      	ldrh	r2, [r7, #14]
20005ad6:	887b      	ldrh	r3, [r7, #2]
20005ad8:	4313      	orrs	r3, r2
20005ada:	81fb      	strh	r3, [r7, #14]

  /* Write to TIMx CCMR1 register */
  TIMx->CCMR1 = tmpccmr1;
20005adc:	687b      	ldr	r3, [r7, #4]
20005ade:	89fa      	ldrh	r2, [r7, #14]
20005ae0:	831a      	strh	r2, [r3, #24]
}
20005ae2:	bf00      	nop
20005ae4:	3714      	adds	r7, #20
20005ae6:	46bd      	mov	sp, r7
20005ae8:	f85d 7b04 	ldr.w	r7, [sp], #4
20005aec:	4770      	bx	lr

20005aee <TIM_ForcedOC2Config>:
  *            @arg TIM_ForcedAction_Active: Force active level on OC2REF
  *            @arg TIM_ForcedAction_InActive: Force inactive level on OC2REF.
  * @retval None
  */
void TIM_ForcedOC2Config(TIM_TypeDef* TIMx, uint16_t TIM_ForcedAction)
{
20005aee:	b480      	push	{r7}
20005af0:	b085      	sub	sp, #20
20005af2:	af00      	add	r7, sp, #0
20005af4:	6078      	str	r0, [r7, #4]
20005af6:	460b      	mov	r3, r1
20005af8:	807b      	strh	r3, [r7, #2]
  uint16_t tmpccmr1 = 0;
20005afa:	2300      	movs	r3, #0
20005afc:	81fb      	strh	r3, [r7, #14]

  /* Check the parameters */
  assert_param(IS_TIM_LIST2_PERIPH(TIMx));
  assert_param(IS_TIM_FORCED_ACTION(TIM_ForcedAction));
  tmpccmr1 = TIMx->CCMR1;
20005afe:	687b      	ldr	r3, [r7, #4]
20005b00:	8b1b      	ldrh	r3, [r3, #24]
20005b02:	81fb      	strh	r3, [r7, #14]

  /* Reset the OC2M Bits */
  tmpccmr1 &= (uint16_t)~TIM_CCMR1_OC2M;
20005b04:	89fb      	ldrh	r3, [r7, #14]
20005b06:	f423 43e0 	bic.w	r3, r3, #28672	@ 0x7000
20005b0a:	81fb      	strh	r3, [r7, #14]

  /* Configure The Forced output Mode */
  tmpccmr1 |= (uint16_t)(TIM_ForcedAction << 8);
20005b0c:	887b      	ldrh	r3, [r7, #2]
20005b0e:	021b      	lsls	r3, r3, #8
20005b10:	b29a      	uxth	r2, r3
20005b12:	89fb      	ldrh	r3, [r7, #14]
20005b14:	4313      	orrs	r3, r2
20005b16:	81fb      	strh	r3, [r7, #14]

  /* Write to TIMx CCMR1 register */
  TIMx->CCMR1 = tmpccmr1;
20005b18:	687b      	ldr	r3, [r7, #4]
20005b1a:	89fa      	ldrh	r2, [r7, #14]
20005b1c:	831a      	strh	r2, [r3, #24]
}
20005b1e:	bf00      	nop
20005b20:	3714      	adds	r7, #20
20005b22:	46bd      	mov	sp, r7
20005b24:	f85d 7b04 	ldr.w	r7, [sp], #4
20005b28:	4770      	bx	lr

20005b2a <TIM_ForcedOC3Config>:
  *            @arg TIM_ForcedAction_Active: Force active level on OC3REF
  *            @arg TIM_ForcedAction_InActive: Force inactive level on OC3REF.
  * @retval None
  */
void TIM_ForcedOC3Config(TIM_TypeDef* TIMx, uint16_t TIM_ForcedAction)
{
20005b2a:	b480      	push	{r7}
20005b2c:	b085      	sub	sp, #20
20005b2e:	af00      	add	r7, sp, #0
20005b30:	6078      	str	r0, [r7, #4]
20005b32:	460b      	mov	r3, r1
20005b34:	807b      	strh	r3, [r7, #2]
  uint16_t tmpccmr2 = 0;
20005b36:	2300      	movs	r3, #0
20005b38:	81fb      	strh	r3, [r7, #14]

  /* Check the parameters */
  assert_param(IS_TIM_LIST3_PERIPH(TIMx));
  assert_param(IS_TIM_FORCED_ACTION(TIM_ForcedAction));

  tmpccmr2 = TIMx->CCMR2;
20005b3a:	687b      	ldr	r3, [r7, #4]
20005b3c:	8b9b      	ldrh	r3, [r3, #28]
20005b3e:	81fb      	strh	r3, [r7, #14]

  /* Reset the OC1M Bits */
  tmpccmr2 &= (uint16_t)~TIM_CCMR2_OC3M;
20005b40:	89fb      	ldrh	r3, [r7, #14]
20005b42:	f023 0370 	bic.w	r3, r3, #112	@ 0x70
20005b46:	81fb      	strh	r3, [r7, #14]

  /* Configure The Forced output Mode */
  tmpccmr2 |= TIM_ForcedAction;
20005b48:	89fa      	ldrh	r2, [r7, #14]
20005b4a:	887b      	ldrh	r3, [r7, #2]
20005b4c:	4313      	orrs	r3, r2
20005b4e:	81fb      	strh	r3, [r7, #14]

  /* Write to TIMx CCMR2 register */
  TIMx->CCMR2 = tmpccmr2;
20005b50:	687b      	ldr	r3, [r7, #4]
20005b52:	89fa      	ldrh	r2, [r7, #14]
20005b54:	839a      	strh	r2, [r3, #28]
}
20005b56:	bf00      	nop
20005b58:	3714      	adds	r7, #20
20005b5a:	46bd      	mov	sp, r7
20005b5c:	f85d 7b04 	ldr.w	r7, [sp], #4
20005b60:	4770      	bx	lr

20005b62 <TIM_ForcedOC4Config>:
  *            @arg TIM_ForcedAction_Active: Force active level on OC4REF
  *            @arg TIM_ForcedAction_InActive: Force inactive level on OC4REF.
  * @retval None
  */
void TIM_ForcedOC4Config(TIM_TypeDef* TIMx, uint16_t TIM_ForcedAction)
{
20005b62:	b480      	push	{r7}
20005b64:	b085      	sub	sp, #20
20005b66:	af00      	add	r7, sp, #0
20005b68:	6078      	str	r0, [r7, #4]
20005b6a:	460b      	mov	r3, r1
20005b6c:	807b      	strh	r3, [r7, #2]
  uint16_t tmpccmr2 = 0;
20005b6e:	2300      	movs	r3, #0
20005b70:	81fb      	strh	r3, [r7, #14]

  /* Check the parameters */
  assert_param(IS_TIM_LIST3_PERIPH(TIMx));
  assert_param(IS_TIM_FORCED_ACTION(TIM_ForcedAction));
  tmpccmr2 = TIMx->CCMR2;
20005b72:	687b      	ldr	r3, [r7, #4]
20005b74:	8b9b      	ldrh	r3, [r3, #28]
20005b76:	81fb      	strh	r3, [r7, #14]

  /* Reset the OC2M Bits */
  tmpccmr2 &= (uint16_t)~TIM_CCMR2_OC4M;
20005b78:	89fb      	ldrh	r3, [r7, #14]
20005b7a:	f423 43e0 	bic.w	r3, r3, #28672	@ 0x7000
20005b7e:	81fb      	strh	r3, [r7, #14]

  /* Configure The Forced output Mode */
  tmpccmr2 |= (uint16_t)(TIM_ForcedAction << 8);
20005b80:	887b      	ldrh	r3, [r7, #2]
20005b82:	021b      	lsls	r3, r3, #8
20005b84:	b29a      	uxth	r2, r3
20005b86:	89fb      	ldrh	r3, [r7, #14]
20005b88:	4313      	orrs	r3, r2
20005b8a:	81fb      	strh	r3, [r7, #14]

  /* Write to TIMx CCMR2 register */
  TIMx->CCMR2 = tmpccmr2;
20005b8c:	687b      	ldr	r3, [r7, #4]
20005b8e:	89fa      	ldrh	r2, [r7, #14]
20005b90:	839a      	strh	r2, [r3, #28]
}
20005b92:	bf00      	nop
20005b94:	3714      	adds	r7, #20
20005b96:	46bd      	mov	sp, r7
20005b98:	f85d 7b04 	ldr.w	r7, [sp], #4
20005b9c:	4770      	bx	lr

20005b9e <TIM_OC1PreloadConfig>:
  *            @arg TIM_OCPreload_Enable
  *            @arg TIM_OCPreload_Disable
  * @retval None
  */
void TIM_OC1PreloadConfig(TIM_TypeDef* TIMx, uint16_t TIM_OCPreload)
{
20005b9e:	b480      	push	{r7}
20005ba0:	b085      	sub	sp, #20
20005ba2:	af00      	add	r7, sp, #0
20005ba4:	6078      	str	r0, [r7, #4]
20005ba6:	460b      	mov	r3, r1
20005ba8:	807b      	strh	r3, [r7, #2]
  uint16_t tmpccmr1 = 0;
20005baa:	2300      	movs	r3, #0
20005bac:	81fb      	strh	r3, [r7, #14]

  /* Check the parameters */
  assert_param(IS_TIM_LIST1_PERIPH(TIMx));
  assert_param(IS_TIM_OCPRELOAD_STATE(TIM_OCPreload));

  tmpccmr1 = TIMx->CCMR1;
20005bae:	687b      	ldr	r3, [r7, #4]
20005bb0:	8b1b      	ldrh	r3, [r3, #24]
20005bb2:	81fb      	strh	r3, [r7, #14]

  /* Reset the OC1PE Bit */
  tmpccmr1 &= (uint16_t)(~TIM_CCMR1_OC1PE);
20005bb4:	89fb      	ldrh	r3, [r7, #14]
20005bb6:	f023 0308 	bic.w	r3, r3, #8
20005bba:	81fb      	strh	r3, [r7, #14]

  /* Enable or Disable the Output Compare Preload feature */
  tmpccmr1 |= TIM_OCPreload;
20005bbc:	89fa      	ldrh	r2, [r7, #14]
20005bbe:	887b      	ldrh	r3, [r7, #2]
20005bc0:	4313      	orrs	r3, r2
20005bc2:	81fb      	strh	r3, [r7, #14]

  /* Write to TIMx CCMR1 register */
  TIMx->CCMR1 = tmpccmr1;
20005bc4:	687b      	ldr	r3, [r7, #4]
20005bc6:	89fa      	ldrh	r2, [r7, #14]
20005bc8:	831a      	strh	r2, [r3, #24]
}
20005bca:	bf00      	nop
20005bcc:	3714      	adds	r7, #20
20005bce:	46bd      	mov	sp, r7
20005bd0:	f85d 7b04 	ldr.w	r7, [sp], #4
20005bd4:	4770      	bx	lr

20005bd6 <TIM_OC2PreloadConfig>:
  *            @arg TIM_OCPreload_Enable
  *            @arg TIM_OCPreload_Disable
  * @retval None
  */
void TIM_OC2PreloadConfig(TIM_TypeDef* TIMx, uint16_t TIM_OCPreload)
{
20005bd6:	b480      	push	{r7}
20005bd8:	b085      	sub	sp, #20
20005bda:	af00      	add	r7, sp, #0
20005bdc:	6078      	str	r0, [r7, #4]
20005bde:	460b      	mov	r3, r1
20005be0:	807b      	strh	r3, [r7, #2]
  uint16_t tmpccmr1 = 0;
20005be2:	2300      	movs	r3, #0
20005be4:	81fb      	strh	r3, [r7, #14]

  /* Check the parameters */
  assert_param(IS_TIM_LIST2_PERIPH(TIMx));
  assert_param(IS_TIM_OCPRELOAD_STATE(TIM_OCPreload));

  tmpccmr1 = TIMx->CCMR1;
20005be6:	687b      	ldr	r3, [r7, #4]
20005be8:	8b1b      	ldrh	r3, [r3, #24]
20005bea:	81fb      	strh	r3, [r7, #14]

  /* Reset the OC2PE Bit */
  tmpccmr1 &= (uint16_t)(~TIM_CCMR1_OC2PE);
20005bec:	89fb      	ldrh	r3, [r7, #14]
20005bee:	f423 6300 	bic.w	r3, r3, #2048	@ 0x800
20005bf2:	81fb      	strh	r3, [r7, #14]

  /* Enable or Disable the Output Compare Preload feature */
  tmpccmr1 |= (uint16_t)(TIM_OCPreload << 8);
20005bf4:	887b      	ldrh	r3, [r7, #2]
20005bf6:	021b      	lsls	r3, r3, #8
20005bf8:	b29a      	uxth	r2, r3
20005bfa:	89fb      	ldrh	r3, [r7, #14]
20005bfc:	4313      	orrs	r3, r2
20005bfe:	81fb      	strh	r3, [r7, #14]

  /* Write to TIMx CCMR1 register */
  TIMx->CCMR1 = tmpccmr1;
20005c00:	687b      	ldr	r3, [r7, #4]
20005c02:	89fa      	ldrh	r2, [r7, #14]
20005c04:	831a      	strh	r2, [r3, #24]
}
20005c06:	bf00      	nop
20005c08:	3714      	adds	r7, #20
20005c0a:	46bd      	mov	sp, r7
20005c0c:	f85d 7b04 	ldr.w	r7, [sp], #4
20005c10:	4770      	bx	lr

20005c12 <TIM_OC3PreloadConfig>:
  *            @arg TIM_OCPreload_Enable
  *            @arg TIM_OCPreload_Disable
  * @retval None
  */
void TIM_OC3PreloadConfig(TIM_TypeDef* TIMx, uint16_t TIM_OCPreload)
{
20005c12:	b480      	push	{r7}
20005c14:	b085      	sub	sp, #20
20005c16:	af00      	add	r7, sp, #0
20005c18:	6078      	str	r0, [r7, #4]
20005c1a:	460b      	mov	r3, r1
20005c1c:	807b      	strh	r3, [r7, #2]
  uint16_t tmpccmr2 = 0;
20005c1e:	2300      	movs	r3, #0
20005c20:	81fb      	strh	r3, [r7, #14]

  /* Check the parameters */
  assert_param(IS_TIM_LIST3_PERIPH(TIMx));
  assert_param(IS_TIM_OCPRELOAD_STATE(TIM_OCPreload));

  tmpccmr2 = TIMx->CCMR2;
20005c22:	687b      	ldr	r3, [r7, #4]
20005c24:	8b9b      	ldrh	r3, [r3, #28]
20005c26:	81fb      	strh	r3, [r7, #14]

  /* Reset the OC3PE Bit */
  tmpccmr2 &= (uint16_t)(~TIM_CCMR2_OC3PE);
20005c28:	89fb      	ldrh	r3, [r7, #14]
20005c2a:	f023 0308 	bic.w	r3, r3, #8
20005c2e:	81fb      	strh	r3, [r7, #14]

  /* Enable or Disable the Output Compare Preload feature */
  tmpccmr2 |= TIM_OCPreload;
20005c30:	89fa      	ldrh	r2, [r7, #14]
20005c32:	887b      	ldrh	r3, [r7, #2]
20005c34:	4313      	orrs	r3, r2
20005c36:	81fb      	strh	r3, [r7, #14]

  /* Write to TIMx CCMR2 register */
  TIMx->CCMR2 = tmpccmr2;
20005c38:	687b      	ldr	r3, [r7, #4]
20005c3a:	89fa      	ldrh	r2, [r7, #14]
20005c3c:	839a      	strh	r2, [r3, #28]
}
20005c3e:	bf00      	nop
20005c40:	3714      	adds	r7, #20
20005c42:	46bd      	mov	sp, r7
20005c44:	f85d 7b04 	ldr.w	r7, [sp], #4
20005c48:	4770      	bx	lr

20005c4a <TIM_OC4PreloadConfig>:
  *            @arg TIM_OCPreload_Enable
  *            @arg TIM_OCPreload_Disable
  * @retval None
  */
void TIM_OC4PreloadConfig(TIM_TypeDef* TIMx, uint16_t TIM_OCPreload)
{
20005c4a:	b480      	push	{r7}
20005c4c:	b085      	sub	sp, #20
20005c4e:	af00      	add	r7, sp, #0
20005c50:	6078      	str	r0, [r7, #4]
20005c52:	460b      	mov	r3, r1
20005c54:	807b      	strh	r3, [r7, #2]
  uint16_t tmpccmr2 = 0;
20005c56:	2300      	movs	r3, #0
20005c58:	81fb      	strh	r3, [r7, #14]

  /* Check the parameters */
  assert_param(IS_TIM_LIST3_PERIPH(TIMx));
  assert_param(IS_TIM_OCPRELOAD_STATE(TIM_OCPreload));

  tmpccmr2 = TIMx->CCMR2;
20005c5a:	687b      	ldr	r3, [r7, #4]
20005c5c:	8b9b      	ldrh	r3, [r3, #28]
20005c5e:	81fb      	strh	r3, [r7, #14]

  /* Reset the OC4PE Bit */
  tmpccmr2 &= (uint16_t)(~TIM_CCMR2_OC4PE);
20005c60:	89fb      	ldrh	r3, [r7, #14]
20005c62:	f423 6300 	bic.w	r3, r3, #2048	@ 0x800
20005c66:	81fb      	strh	r3, [r7, #14]

  /* Enable or Disable the Output Compare Preload feature */
  tmpccmr2 |= (uint16_t)(TIM_OCPreload << 8);
20005c68:	887b      	ldrh	r3, [r7, #2]
20005c6a:	021b      	lsls	r3, r3, #8
20005c6c:	b29a      	uxth	r2, r3
20005c6e:	89fb      	ldrh	r3, [r7, #14]
20005c70:	4313      	orrs	r3, r2
20005c72:	81fb      	strh	r3, [r7, #14]

  /* Write to TIMx CCMR2 register */
  TIMx->CCMR2 = tmpccmr2;
20005c74:	687b      	ldr	r3, [r7, #4]
20005c76:	89fa      	ldrh	r2, [r7, #14]
20005c78:	839a      	strh	r2, [r3, #28]
}
20005c7a:	bf00      	nop
20005c7c:	3714      	adds	r7, #20
20005c7e:	46bd      	mov	sp, r7
20005c80:	f85d 7b04 	ldr.w	r7, [sp], #4
20005c84:	4770      	bx	lr

20005c86 <TIM_OC1FastConfig>:
  *            @arg TIM_OCFast_Enable: TIM output compare fast enable
  *            @arg TIM_OCFast_Disable: TIM output compare fast disable
  * @retval None
  */
void TIM_OC1FastConfig(TIM_TypeDef* TIMx, uint16_t TIM_OCFast)
{
20005c86:	b480      	push	{r7}
20005c88:	b085      	sub	sp, #20
20005c8a:	af00      	add	r7, sp, #0
20005c8c:	6078      	str	r0, [r7, #4]
20005c8e:	460b      	mov	r3, r1
20005c90:	807b      	strh	r3, [r7, #2]
  uint16_t tmpccmr1 = 0;
20005c92:	2300      	movs	r3, #0
20005c94:	81fb      	strh	r3, [r7, #14]
  /* Check the parameters */
  assert_param(IS_TIM_LIST1_PERIPH(TIMx));
  assert_param(IS_TIM_OCFAST_STATE(TIM_OCFast));

  /* Get the TIMx CCMR1 register value */
  tmpccmr1 = TIMx->CCMR1;
20005c96:	687b      	ldr	r3, [r7, #4]
20005c98:	8b1b      	ldrh	r3, [r3, #24]
20005c9a:	81fb      	strh	r3, [r7, #14]

  /* Reset the OC1FE Bit */
  tmpccmr1 &= (uint16_t)~TIM_CCMR1_OC1FE;
20005c9c:	89fb      	ldrh	r3, [r7, #14]
20005c9e:	f023 0304 	bic.w	r3, r3, #4
20005ca2:	81fb      	strh	r3, [r7, #14]

  /* Enable or Disable the Output Compare Fast Bit */
  tmpccmr1 |= TIM_OCFast;
20005ca4:	89fa      	ldrh	r2, [r7, #14]
20005ca6:	887b      	ldrh	r3, [r7, #2]
20005ca8:	4313      	orrs	r3, r2
20005caa:	81fb      	strh	r3, [r7, #14]

  /* Write to TIMx CCMR1 */
  TIMx->CCMR1 = tmpccmr1;
20005cac:	687b      	ldr	r3, [r7, #4]
20005cae:	89fa      	ldrh	r2, [r7, #14]
20005cb0:	831a      	strh	r2, [r3, #24]
}
20005cb2:	bf00      	nop
20005cb4:	3714      	adds	r7, #20
20005cb6:	46bd      	mov	sp, r7
20005cb8:	f85d 7b04 	ldr.w	r7, [sp], #4
20005cbc:	4770      	bx	lr

20005cbe <TIM_OC2FastConfig>:
  *            @arg TIM_OCFast_Enable: TIM output compare fast enable
  *            @arg TIM_OCFast_Disable: TIM output compare fast disable
  * @retval None
  */
void TIM_OC2FastConfig(TIM_TypeDef* TIMx, uint16_t TIM_OCFast)
{
20005cbe:	b480      	push	{r7}
20005cc0:	b085      	sub	sp, #20
20005cc2:	af00      	add	r7, sp, #0
20005cc4:	6078      	str	r0, [r7, #4]
20005cc6:	460b      	mov	r3, r1
20005cc8:	807b      	strh	r3, [r7, #2]
  uint16_t tmpccmr1 = 0;
20005cca:	2300      	movs	r3, #0
20005ccc:	81fb      	strh	r3, [r7, #14]
  /* Check the parameters */
  assert_param(IS_TIM_LIST2_PERIPH(TIMx));
  assert_param(IS_TIM_OCFAST_STATE(TIM_OCFast));

  /* Get the TIMx CCMR1 register value */
  tmpccmr1 = TIMx->CCMR1;
20005cce:	687b      	ldr	r3, [r7, #4]
20005cd0:	8b1b      	ldrh	r3, [r3, #24]
20005cd2:	81fb      	strh	r3, [r7, #14]

  /* Reset the OC2FE Bit */
  tmpccmr1 &= (uint16_t)(~TIM_CCMR1_OC2FE);
20005cd4:	89fb      	ldrh	r3, [r7, #14]
20005cd6:	f423 6380 	bic.w	r3, r3, #1024	@ 0x400
20005cda:	81fb      	strh	r3, [r7, #14]

  /* Enable or Disable the Output Compare Fast Bit */
  tmpccmr1 |= (uint16_t)(TIM_OCFast << 8);
20005cdc:	887b      	ldrh	r3, [r7, #2]
20005cde:	021b      	lsls	r3, r3, #8
20005ce0:	b29a      	uxth	r2, r3
20005ce2:	89fb      	ldrh	r3, [r7, #14]
20005ce4:	4313      	orrs	r3, r2
20005ce6:	81fb      	strh	r3, [r7, #14]

  /* Write to TIMx CCMR1 */
  TIMx->CCMR1 = tmpccmr1;
20005ce8:	687b      	ldr	r3, [r7, #4]
20005cea:	89fa      	ldrh	r2, [r7, #14]
20005cec:	831a      	strh	r2, [r3, #24]
}
20005cee:	bf00      	nop
20005cf0:	3714      	adds	r7, #20
20005cf2:	46bd      	mov	sp, r7
20005cf4:	f85d 7b04 	ldr.w	r7, [sp], #4
20005cf8:	4770      	bx	lr

20005cfa <TIM_OC3FastConfig>:
  *            @arg TIM_OCFast_Enable: TIM output compare fast enable
  *            @arg TIM_OCFast_Disable: TIM output compare fast disable
  * @retval None
  */
void TIM_OC3FastConfig(TIM_TypeDef* TIMx, uint16_t TIM_OCFast)
{
20005cfa:	b480      	push	{r7}
20005cfc:	b085      	sub	sp, #20
20005cfe:	af00      	add	r7, sp, #0
20005d00:	6078      	str	r0, [r7, #4]
20005d02:	460b      	mov	r3, r1
20005d04:	807b      	strh	r3, [r7, #2]
  uint16_t tmpccmr2 = 0;
20005d06:	2300      	movs	r3, #0
20005d08:	81fb      	strh	r3, [r7, #14]
  /* Check the parameters */
  assert_param(IS_TIM_LIST3_PERIPH(TIMx));
  assert_param(IS_TIM_OCFAST_STATE(TIM_OCFast));

  /* Get the TIMx CCMR2 register value */
  tmpccmr2 = TIMx->CCMR2;
20005d0a:	687b      	ldr	r3, [r7, #4]
20005d0c:	8b9b      	ldrh	r3, [r3, #28]
20005d0e:	81fb      	strh	r3, [r7, #14]

  /* Reset the OC3FE Bit */
  tmpccmr2 &= (uint16_t)~TIM_CCMR2_OC3FE;
20005d10:	89fb      	ldrh	r3, [r7, #14]
20005d12:	f023 0304 	bic.w	r3, r3, #4
20005d16:	81fb      	strh	r3, [r7, #14]

  /* Enable or Disable the Output Compare Fast Bit */
  tmpccmr2 |= TIM_OCFast;
20005d18:	89fa      	ldrh	r2, [r7, #14]
20005d1a:	887b      	ldrh	r3, [r7, #2]
20005d1c:	4313      	orrs	r3, r2
20005d1e:	81fb      	strh	r3, [r7, #14]

  /* Write to TIMx CCMR2 */
  TIMx->CCMR2 = tmpccmr2;
20005d20:	687b      	ldr	r3, [r7, #4]
20005d22:	89fa      	ldrh	r2, [r7, #14]
20005d24:	839a      	strh	r2, [r3, #28]
}
20005d26:	bf00      	nop
20005d28:	3714      	adds	r7, #20
20005d2a:	46bd      	mov	sp, r7
20005d2c:	f85d 7b04 	ldr.w	r7, [sp], #4
20005d30:	4770      	bx	lr

20005d32 <TIM_OC4FastConfig>:
  *            @arg TIM_OCFast_Enable: TIM output compare fast enable
  *            @arg TIM_OCFast_Disable: TIM output compare fast disable
  * @retval None
  */
void TIM_OC4FastConfig(TIM_TypeDef* TIMx, uint16_t TIM_OCFast)
{
20005d32:	b480      	push	{r7}
20005d34:	b085      	sub	sp, #20
20005d36:	af00      	add	r7, sp, #0
20005d38:	6078      	str	r0, [r7, #4]
20005d3a:	460b      	mov	r3, r1
20005d3c:	807b      	strh	r3, [r7, #2]
  uint16_t tmpccmr2 = 0;
20005d3e:	2300      	movs	r3, #0
20005d40:	81fb      	strh	r3, [r7, #14]
  /* Check the parameters */
  assert_param(IS_TIM_LIST3_PERIPH(TIMx));
  assert_param(IS_TIM_OCFAST_STATE(TIM_OCFast));

  /* Get the TIMx CCMR2 register value */
  tmpccmr2 = TIMx->CCMR2;
20005d42:	687b      	ldr	r3, [r7, #4]
20005d44:	8b9b      	ldrh	r3, [r3, #28]
20005d46:	81fb      	strh	r3, [r7, #14]

  /* Reset the OC4FE Bit */
  tmpccmr2 &= (uint16_t)(~TIM_CCMR2_OC4FE);
20005d48:	89fb      	ldrh	r3, [r7, #14]
20005d4a:	f423 6380 	bic.w	r3, r3, #1024	@ 0x400
20005d4e:	81fb      	strh	r3, [r7, #14]

  /* Enable or Disable the Output Compare Fast Bit */
  tmpccmr2 |= (uint16_t)(TIM_OCFast << 8);
20005d50:	887b      	ldrh	r3, [r7, #2]
20005d52:	021b      	lsls	r3, r3, #8
20005d54:	b29a      	uxth	r2, r3
20005d56:	89fb      	ldrh	r3, [r7, #14]
20005d58:	4313      	orrs	r3, r2
20005d5a:	81fb      	strh	r3, [r7, #14]

  /* Write to TIMx CCMR2 */
  TIMx->CCMR2 = tmpccmr2;
20005d5c:	687b      	ldr	r3, [r7, #4]
20005d5e:	89fa      	ldrh	r2, [r7, #14]
20005d60:	839a      	strh	r2, [r3, #28]
}
20005d62:	bf00      	nop
20005d64:	3714      	adds	r7, #20
20005d66:	46bd      	mov	sp, r7
20005d68:	f85d 7b04 	ldr.w	r7, [sp], #4
20005d6c:	4770      	bx	lr

20005d6e <TIM_ClearOC1Ref>:
  *            @arg TIM_OCClear_Enable: TIM Output clear enable
  *            @arg TIM_OCClear_Disable: TIM Output clear disable
  * @retval None
  */
void TIM_ClearOC1Ref(TIM_TypeDef* TIMx, uint16_t TIM_OCClear)
{
20005d6e:	b480      	push	{r7}
20005d70:	b085      	sub	sp, #20
20005d72:	af00      	add	r7, sp, #0
20005d74:	6078      	str	r0, [r7, #4]
20005d76:	460b      	mov	r3, r1
20005d78:	807b      	strh	r3, [r7, #2]
  uint16_t tmpccmr1 = 0;
20005d7a:	2300      	movs	r3, #0
20005d7c:	81fb      	strh	r3, [r7, #14]

  /* Check the parameters */
  assert_param(IS_TIM_LIST1_PERIPH(TIMx));
  assert_param(IS_TIM_OCCLEAR_STATE(TIM_OCClear));

  tmpccmr1 = TIMx->CCMR1;
20005d7e:	687b      	ldr	r3, [r7, #4]
20005d80:	8b1b      	ldrh	r3, [r3, #24]
20005d82:	81fb      	strh	r3, [r7, #14]

  /* Reset the OC1CE Bit */
  tmpccmr1 &= (uint16_t)~TIM_CCMR1_OC1CE;
20005d84:	89fb      	ldrh	r3, [r7, #14]
20005d86:	f023 0380 	bic.w	r3, r3, #128	@ 0x80
20005d8a:	81fb      	strh	r3, [r7, #14]

  /* Enable or Disable the Output Compare Clear Bit */
  tmpccmr1 |= TIM_OCClear;
20005d8c:	89fa      	ldrh	r2, [r7, #14]
20005d8e:	887b      	ldrh	r3, [r7, #2]
20005d90:	4313      	orrs	r3, r2
20005d92:	81fb      	strh	r3, [r7, #14]

  /* Write to TIMx CCMR1 register */
  TIMx->CCMR1 = tmpccmr1;
20005d94:	687b      	ldr	r3, [r7, #4]
20005d96:	89fa      	ldrh	r2, [r7, #14]
20005d98:	831a      	strh	r2, [r3, #24]
}
20005d9a:	bf00      	nop
20005d9c:	3714      	adds	r7, #20
20005d9e:	46bd      	mov	sp, r7
20005da0:	f85d 7b04 	ldr.w	r7, [sp], #4
20005da4:	4770      	bx	lr

20005da6 <TIM_ClearOC2Ref>:
  *            @arg TIM_OCClear_Enable: TIM Output clear enable
  *            @arg TIM_OCClear_Disable: TIM Output clear disable
  * @retval None
  */
void TIM_ClearOC2Ref(TIM_TypeDef* TIMx, uint16_t TIM_OCClear)
{
20005da6:	b480      	push	{r7}
20005da8:	b085      	sub	sp, #20
20005daa:	af00      	add	r7, sp, #0
20005dac:	6078      	str	r0, [r7, #4]
20005dae:	460b      	mov	r3, r1
20005db0:	807b      	strh	r3, [r7, #2]
  uint16_t tmpccmr1 = 0;
20005db2:	2300      	movs	r3, #0
20005db4:	81fb      	strh	r3, [r7, #14]

  /* Check the parameters */
  assert_param(IS_TIM_LIST2_PERIPH(TIMx));
  assert_param(IS_TIM_OCCLEAR_STATE(TIM_OCClear));

  tmpccmr1 = TIMx->CCMR1;
20005db6:	687b      	ldr	r3, [r7, #4]
20005db8:	8b1b      	ldrh	r3, [r3, #24]
20005dba:	81fb      	strh	r3, [r7, #14]

  /* Reset the OC2CE Bit */
  tmpccmr1 &= (uint16_t)~TIM_CCMR1_OC2CE;
20005dbc:	89fb      	ldrh	r3, [r7, #14]
20005dbe:	f3c3 030e 	ubfx	r3, r3, #0, #15
20005dc2:	81fb      	strh	r3, [r7, #14]

  /* Enable or Disable the Output Compare Clear Bit */
  tmpccmr1 |= (uint16_t)(TIM_OCClear << 8);
20005dc4:	887b      	ldrh	r3, [r7, #2]
20005dc6:	021b      	lsls	r3, r3, #8
20005dc8:	b29a      	uxth	r2, r3
20005dca:	89fb      	ldrh	r3, [r7, #14]
20005dcc:	4313      	orrs	r3, r2
20005dce:	81fb      	strh	r3, [r7, #14]

  /* Write to TIMx CCMR1 register */
  TIMx->CCMR1 = tmpccmr1;
20005dd0:	687b      	ldr	r3, [r7, #4]
20005dd2:	89fa      	ldrh	r2, [r7, #14]
20005dd4:	831a      	strh	r2, [r3, #24]
}
20005dd6:	bf00      	nop
20005dd8:	3714      	adds	r7, #20
20005dda:	46bd      	mov	sp, r7
20005ddc:	f85d 7b04 	ldr.w	r7, [sp], #4
20005de0:	4770      	bx	lr

20005de2 <TIM_ClearOC3Ref>:
  *            @arg TIM_OCClear_Enable: TIM Output clear enable
  *            @arg TIM_OCClear_Disable: TIM Output clear disable
  * @retval None
  */
void TIM_ClearOC3Ref(TIM_TypeDef* TIMx, uint16_t TIM_OCClear)
{
20005de2:	b480      	push	{r7}
20005de4:	b085      	sub	sp, #20
20005de6:	af00      	add	r7, sp, #0
20005de8:	6078      	str	r0, [r7, #4]
20005dea:	460b      	mov	r3, r1
20005dec:	807b      	strh	r3, [r7, #2]
  uint16_t tmpccmr2 = 0;
20005dee:	2300      	movs	r3, #0
20005df0:	81fb      	strh	r3, [r7, #14]

  /* Check the parameters */
  assert_param(IS_TIM_LIST3_PERIPH(TIMx));
  assert_param(IS_TIM_OCCLEAR_STATE(TIM_OCClear));

  tmpccmr2 = TIMx->CCMR2;
20005df2:	687b      	ldr	r3, [r7, #4]
20005df4:	8b9b      	ldrh	r3, [r3, #28]
20005df6:	81fb      	strh	r3, [r7, #14]

  /* Reset the OC3CE Bit */
  tmpccmr2 &= (uint16_t)~TIM_CCMR2_OC3CE;
20005df8:	89fb      	ldrh	r3, [r7, #14]
20005dfa:	f023 0380 	bic.w	r3, r3, #128	@ 0x80
20005dfe:	81fb      	strh	r3, [r7, #14]

  /* Enable or Disable the Output Compare Clear Bit */
  tmpccmr2 |= TIM_OCClear;
20005e00:	89fa      	ldrh	r2, [r7, #14]
20005e02:	887b      	ldrh	r3, [r7, #2]
20005e04:	4313      	orrs	r3, r2
20005e06:	81fb      	strh	r3, [r7, #14]

  /* Write to TIMx CCMR2 register */
  TIMx->CCMR2 = tmpccmr2;
20005e08:	687b      	ldr	r3, [r7, #4]
20005e0a:	89fa      	ldrh	r2, [r7, #14]
20005e0c:	839a      	strh	r2, [r3, #28]
}
20005e0e:	bf00      	nop
20005e10:	3714      	adds	r7, #20
20005e12:	46bd      	mov	sp, r7
20005e14:	f85d 7b04 	ldr.w	r7, [sp], #4
20005e18:	4770      	bx	lr

20005e1a <TIM_ClearOC4Ref>:
  *            @arg TIM_OCClear_Enable: TIM Output clear enable
  *            @arg TIM_OCClear_Disable: TIM Output clear disable
  * @retval None
  */
void TIM_ClearOC4Ref(TIM_TypeDef* TIMx, uint16_t TIM_OCClear)
{
20005e1a:	b480      	push	{r7}
20005e1c:	b085      	sub	sp, #20
20005e1e:	af00      	add	r7, sp, #0
20005e20:	6078      	str	r0, [r7, #4]
20005e22:	460b      	mov	r3, r1
20005e24:	807b      	strh	r3, [r7, #2]
  uint16_t tmpccmr2 = 0;
20005e26:	2300      	movs	r3, #0
20005e28:	81fb      	strh	r3, [r7, #14]

  /* Check the parameters */
  assert_param(IS_TIM_LIST3_PERIPH(TIMx));
  assert_param(IS_TIM_OCCLEAR_STATE(TIM_OCClear));

  tmpccmr2 = TIMx->CCMR2;
20005e2a:	687b      	ldr	r3, [r7, #4]
20005e2c:	8b9b      	ldrh	r3, [r3, #28]
20005e2e:	81fb      	strh	r3, [r7, #14]

  /* Reset the OC4CE Bit */
  tmpccmr2 &= (uint16_t)~TIM_CCMR2_OC4CE;
20005e30:	89fb      	ldrh	r3, [r7, #14]
20005e32:	f3c3 030e 	ubfx	r3, r3, #0, #15
20005e36:	81fb      	strh	r3, [r7, #14]

  /* Enable or Disable the Output Compare Clear Bit */
  tmpccmr2 |= (uint16_t)(TIM_OCClear << 8);
20005e38:	887b      	ldrh	r3, [r7, #2]
20005e3a:	021b      	lsls	r3, r3, #8
20005e3c:	b29a      	uxth	r2, r3
20005e3e:	89fb      	ldrh	r3, [r7, #14]
20005e40:	4313      	orrs	r3, r2
20005e42:	81fb      	strh	r3, [r7, #14]

  /* Write to TIMx CCMR2 register */
  TIMx->CCMR2 = tmpccmr2;
20005e44:	687b      	ldr	r3, [r7, #4]
20005e46:	89fa      	ldrh	r2, [r7, #14]
20005e48:	839a      	strh	r2, [r3, #28]
}
20005e4a:	bf00      	nop
20005e4c:	3714      	adds	r7, #20
20005e4e:	46bd      	mov	sp, r7
20005e50:	f85d 7b04 	ldr.w	r7, [sp], #4
20005e54:	4770      	bx	lr

20005e56 <TIM_OC1PolarityConfig>:
  *            @arg TIM_OCPolarity_High: Output Compare active high
  *            @arg TIM_OCPolarity_Low: Output Compare active low
  * @retval None
  */
void TIM_OC1PolarityConfig(TIM_TypeDef* TIMx, uint16_t TIM_OCPolarity)
{
20005e56:	b480      	push	{r7}
20005e58:	b085      	sub	sp, #20
20005e5a:	af00      	add	r7, sp, #0
20005e5c:	6078      	str	r0, [r7, #4]
20005e5e:	460b      	mov	r3, r1
20005e60:	807b      	strh	r3, [r7, #2]
  uint16_t tmpccer = 0;
20005e62:	2300      	movs	r3, #0
20005e64:	81fb      	strh	r3, [r7, #14]

  /* Check the parameters */
  assert_param(IS_TIM_LIST1_PERIPH(TIMx));
  assert_param(IS_TIM_OC_POLARITY(TIM_OCPolarity));

  tmpccer = TIMx->CCER;
20005e66:	687b      	ldr	r3, [r7, #4]
20005e68:	8c1b      	ldrh	r3, [r3, #32]
20005e6a:	81fb      	strh	r3, [r7, #14]

  /* Set or Reset the CC1P Bit */
  tmpccer &= (uint16_t)(~TIM_CCER_CC1P);
20005e6c:	89fb      	ldrh	r3, [r7, #14]
20005e6e:	f023 0302 	bic.w	r3, r3, #2
20005e72:	81fb      	strh	r3, [r7, #14]
  tmpccer |= TIM_OCPolarity;
20005e74:	89fa      	ldrh	r2, [r7, #14]
20005e76:	887b      	ldrh	r3, [r7, #2]
20005e78:	4313      	orrs	r3, r2
20005e7a:	81fb      	strh	r3, [r7, #14]

  /* Write to TIMx CCER register */
  TIMx->CCER = tmpccer;
20005e7c:	687b      	ldr	r3, [r7, #4]
20005e7e:	89fa      	ldrh	r2, [r7, #14]
20005e80:	841a      	strh	r2, [r3, #32]
}
20005e82:	bf00      	nop
20005e84:	3714      	adds	r7, #20
20005e86:	46bd      	mov	sp, r7
20005e88:	f85d 7b04 	ldr.w	r7, [sp], #4
20005e8c:	4770      	bx	lr

20005e8e <TIM_OC1NPolarityConfig>:
  *            @arg TIM_OCNPolarity_High: Output Compare active high
  *            @arg TIM_OCNPolarity_Low: Output Compare active low
  * @retval None
  */
void TIM_OC1NPolarityConfig(TIM_TypeDef* TIMx, uint16_t TIM_OCNPolarity)
{
20005e8e:	b480      	push	{r7}
20005e90:	b085      	sub	sp, #20
20005e92:	af00      	add	r7, sp, #0
20005e94:	6078      	str	r0, [r7, #4]
20005e96:	460b      	mov	r3, r1
20005e98:	807b      	strh	r3, [r7, #2]
  uint16_t tmpccer = 0;
20005e9a:	2300      	movs	r3, #0
20005e9c:	81fb      	strh	r3, [r7, #14]
  /* Check the parameters */
  assert_param(IS_TIM_LIST4_PERIPH(TIMx));
  assert_param(IS_TIM_OCN_POLARITY(TIM_OCNPolarity));
   
  tmpccer = TIMx->CCER;
20005e9e:	687b      	ldr	r3, [r7, #4]
20005ea0:	8c1b      	ldrh	r3, [r3, #32]
20005ea2:	81fb      	strh	r3, [r7, #14]

  /* Set or Reset the CC1NP Bit */
  tmpccer &= (uint16_t)~TIM_CCER_CC1NP;
20005ea4:	89fb      	ldrh	r3, [r7, #14]
20005ea6:	f023 0308 	bic.w	r3, r3, #8
20005eaa:	81fb      	strh	r3, [r7, #14]
  tmpccer |= TIM_OCNPolarity;
20005eac:	89fa      	ldrh	r2, [r7, #14]
20005eae:	887b      	ldrh	r3, [r7, #2]
20005eb0:	4313      	orrs	r3, r2
20005eb2:	81fb      	strh	r3, [r7, #14]

  /* Write to TIMx CCER register */
  TIMx->CCER = tmpccer;
20005eb4:	687b      	ldr	r3, [r7, #4]
20005eb6:	89fa      	ldrh	r2, [r7, #14]
20005eb8:	841a      	strh	r2, [r3, #32]
}
20005eba:	bf00      	nop
20005ebc:	3714      	adds	r7, #20
20005ebe:	46bd      	mov	sp, r7
20005ec0:	f85d 7b04 	ldr.w	r7, [sp], #4
20005ec4:	4770      	bx	lr

20005ec6 <TIM_OC2PolarityConfig>:
  *            @arg TIM_OCPolarity_High: Output Compare active high
  *            @arg TIM_OCPolarity_Low: Output Compare active low
  * @retval None
  */
void TIM_OC2PolarityConfig(TIM_TypeDef* TIMx, uint16_t TIM_OCPolarity)
{
20005ec6:	b480      	push	{r7}
20005ec8:	b085      	sub	sp, #20
20005eca:	af00      	add	r7, sp, #0
20005ecc:	6078      	str	r0, [r7, #4]
20005ece:	460b      	mov	r3, r1
20005ed0:	807b      	strh	r3, [r7, #2]
  uint16_t tmpccer = 0;
20005ed2:	2300      	movs	r3, #0
20005ed4:	81fb      	strh	r3, [r7, #14]

  /* Check the parameters */
  assert_param(IS_TIM_LIST2_PERIPH(TIMx));
  assert_param(IS_TIM_OC_POLARITY(TIM_OCPolarity));

  tmpccer = TIMx->CCER;
20005ed6:	687b      	ldr	r3, [r7, #4]
20005ed8:	8c1b      	ldrh	r3, [r3, #32]
20005eda:	81fb      	strh	r3, [r7, #14]

  /* Set or Reset the CC2P Bit */
  tmpccer &= (uint16_t)(~TIM_CCER_CC2P);
20005edc:	89fb      	ldrh	r3, [r7, #14]
20005ede:	f023 0320 	bic.w	r3, r3, #32
20005ee2:	81fb      	strh	r3, [r7, #14]
  tmpccer |= (uint16_t)(TIM_OCPolarity << 4);
20005ee4:	887b      	ldrh	r3, [r7, #2]
20005ee6:	011b      	lsls	r3, r3, #4
20005ee8:	b29a      	uxth	r2, r3
20005eea:	89fb      	ldrh	r3, [r7, #14]
20005eec:	4313      	orrs	r3, r2
20005eee:	81fb      	strh	r3, [r7, #14]

  /* Write to TIMx CCER register */
  TIMx->CCER = tmpccer;
20005ef0:	687b      	ldr	r3, [r7, #4]
20005ef2:	89fa      	ldrh	r2, [r7, #14]
20005ef4:	841a      	strh	r2, [r3, #32]
}
20005ef6:	bf00      	nop
20005ef8:	3714      	adds	r7, #20
20005efa:	46bd      	mov	sp, r7
20005efc:	f85d 7b04 	ldr.w	r7, [sp], #4
20005f00:	4770      	bx	lr

20005f02 <TIM_OC2NPolarityConfig>:
  *            @arg TIM_OCNPolarity_High: Output Compare active high
  *            @arg TIM_OCNPolarity_Low: Output Compare active low
  * @retval None
  */
void TIM_OC2NPolarityConfig(TIM_TypeDef* TIMx, uint16_t TIM_OCNPolarity)
{
20005f02:	b480      	push	{r7}
20005f04:	b085      	sub	sp, #20
20005f06:	af00      	add	r7, sp, #0
20005f08:	6078      	str	r0, [r7, #4]
20005f0a:	460b      	mov	r3, r1
20005f0c:	807b      	strh	r3, [r7, #2]
  uint16_t tmpccer = 0;
20005f0e:	2300      	movs	r3, #0
20005f10:	81fb      	strh	r3, [r7, #14]

  /* Check the parameters */
  assert_param(IS_TIM_LIST4_PERIPH(TIMx));
  assert_param(IS_TIM_OCN_POLARITY(TIM_OCNPolarity));
  
  tmpccer = TIMx->CCER;
20005f12:	687b      	ldr	r3, [r7, #4]
20005f14:	8c1b      	ldrh	r3, [r3, #32]
20005f16:	81fb      	strh	r3, [r7, #14]

  /* Set or Reset the CC2NP Bit */
  tmpccer &= (uint16_t)~TIM_CCER_CC2NP;
20005f18:	89fb      	ldrh	r3, [r7, #14]
20005f1a:	f023 0380 	bic.w	r3, r3, #128	@ 0x80
20005f1e:	81fb      	strh	r3, [r7, #14]
  tmpccer |= (uint16_t)(TIM_OCNPolarity << 4);
20005f20:	887b      	ldrh	r3, [r7, #2]
20005f22:	011b      	lsls	r3, r3, #4
20005f24:	b29a      	uxth	r2, r3
20005f26:	89fb      	ldrh	r3, [r7, #14]
20005f28:	4313      	orrs	r3, r2
20005f2a:	81fb      	strh	r3, [r7, #14]

  /* Write to TIMx CCER register */
  TIMx->CCER = tmpccer;
20005f2c:	687b      	ldr	r3, [r7, #4]
20005f2e:	89fa      	ldrh	r2, [r7, #14]
20005f30:	841a      	strh	r2, [r3, #32]
}
20005f32:	bf00      	nop
20005f34:	3714      	adds	r7, #20
20005f36:	46bd      	mov	sp, r7
20005f38:	f85d 7b04 	ldr.w	r7, [sp], #4
20005f3c:	4770      	bx	lr

20005f3e <TIM_OC3PolarityConfig>:
  *            @arg TIM_OCPolarity_High: Output Compare active high
  *            @arg TIM_OCPolarity_Low: Output Compare active low
  * @retval None
  */
void TIM_OC3PolarityConfig(TIM_TypeDef* TIMx, uint16_t TIM_OCPolarity)
{
20005f3e:	b480      	push	{r7}
20005f40:	b085      	sub	sp, #20
20005f42:	af00      	add	r7, sp, #0
20005f44:	6078      	str	r0, [r7, #4]
20005f46:	460b      	mov	r3, r1
20005f48:	807b      	strh	r3, [r7, #2]
  uint16_t tmpccer = 0;
20005f4a:	2300      	movs	r3, #0
20005f4c:	81fb      	strh	r3, [r7, #14]

  /* Check the parameters */
  assert_param(IS_TIM_LIST3_PERIPH(TIMx));
  assert_param(IS_TIM_OC_POLARITY(TIM_OCPolarity));

  tmpccer = TIMx->CCER;
20005f4e:	687b      	ldr	r3, [r7, #4]
20005f50:	8c1b      	ldrh	r3, [r3, #32]
20005f52:	81fb      	strh	r3, [r7, #14]

  /* Set or Reset the CC3P Bit */
  tmpccer &= (uint16_t)~TIM_CCER_CC3P;
20005f54:	89fb      	ldrh	r3, [r7, #14]
20005f56:	f423 7300 	bic.w	r3, r3, #512	@ 0x200
20005f5a:	81fb      	strh	r3, [r7, #14]
  tmpccer |= (uint16_t)(TIM_OCPolarity << 8);
20005f5c:	887b      	ldrh	r3, [r7, #2]
20005f5e:	021b      	lsls	r3, r3, #8
20005f60:	b29a      	uxth	r2, r3
20005f62:	89fb      	ldrh	r3, [r7, #14]
20005f64:	4313      	orrs	r3, r2
20005f66:	81fb      	strh	r3, [r7, #14]

  /* Write to TIMx CCER register */
  TIMx->CCER = tmpccer;
20005f68:	687b      	ldr	r3, [r7, #4]
20005f6a:	89fa      	ldrh	r2, [r7, #14]
20005f6c:	841a      	strh	r2, [r3, #32]
}
20005f6e:	bf00      	nop
20005f70:	3714      	adds	r7, #20
20005f72:	46bd      	mov	sp, r7
20005f74:	f85d 7b04 	ldr.w	r7, [sp], #4
20005f78:	4770      	bx	lr

20005f7a <TIM_OC3NPolarityConfig>:
  *            @arg TIM_OCNPolarity_High: Output Compare active high
  *            @arg TIM_OCNPolarity_Low: Output Compare active low
  * @retval None
  */
void TIM_OC3NPolarityConfig(TIM_TypeDef* TIMx, uint16_t TIM_OCNPolarity)
{
20005f7a:	b480      	push	{r7}
20005f7c:	b085      	sub	sp, #20
20005f7e:	af00      	add	r7, sp, #0
20005f80:	6078      	str	r0, [r7, #4]
20005f82:	460b      	mov	r3, r1
20005f84:	807b      	strh	r3, [r7, #2]
  uint16_t tmpccer = 0;
20005f86:	2300      	movs	r3, #0
20005f88:	81fb      	strh	r3, [r7, #14]
 
  /* Check the parameters */
  assert_param(IS_TIM_LIST4_PERIPH(TIMx));
  assert_param(IS_TIM_OCN_POLARITY(TIM_OCNPolarity));
    
  tmpccer = TIMx->CCER;
20005f8a:	687b      	ldr	r3, [r7, #4]
20005f8c:	8c1b      	ldrh	r3, [r3, #32]
20005f8e:	81fb      	strh	r3, [r7, #14]

  /* Set or Reset the CC3NP Bit */
  tmpccer &= (uint16_t)~TIM_CCER_CC3NP;
20005f90:	89fb      	ldrh	r3, [r7, #14]
20005f92:	f423 6300 	bic.w	r3, r3, #2048	@ 0x800
20005f96:	81fb      	strh	r3, [r7, #14]
  tmpccer |= (uint16_t)(TIM_OCNPolarity << 8);
20005f98:	887b      	ldrh	r3, [r7, #2]
20005f9a:	021b      	lsls	r3, r3, #8
20005f9c:	b29a      	uxth	r2, r3
20005f9e:	89fb      	ldrh	r3, [r7, #14]
20005fa0:	4313      	orrs	r3, r2
20005fa2:	81fb      	strh	r3, [r7, #14]

  /* Write to TIMx CCER register */
  TIMx->CCER = tmpccer;
20005fa4:	687b      	ldr	r3, [r7, #4]
20005fa6:	89fa      	ldrh	r2, [r7, #14]
20005fa8:	841a      	strh	r2, [r3, #32]
}
20005faa:	bf00      	nop
20005fac:	3714      	adds	r7, #20
20005fae:	46bd      	mov	sp, r7
20005fb0:	f85d 7b04 	ldr.w	r7, [sp], #4
20005fb4:	4770      	bx	lr

20005fb6 <TIM_OC4PolarityConfig>:
  *            @arg TIM_OCPolarity_High: Output Compare active high
  *            @arg TIM_OCPolarity_Low: Output Compare active low
  * @retval None
  */
void TIM_OC4PolarityConfig(TIM_TypeDef* TIMx, uint16_t TIM_OCPolarity)
{
20005fb6:	b480      	push	{r7}
20005fb8:	b085      	sub	sp, #20
20005fba:	af00      	add	r7, sp, #0
20005fbc:	6078      	str	r0, [r7, #4]
20005fbe:	460b      	mov	r3, r1
20005fc0:	807b      	strh	r3, [r7, #2]
  uint16_t tmpccer = 0;
20005fc2:	2300      	movs	r3, #0
20005fc4:	81fb      	strh	r3, [r7, #14]

  /* Check the parameters */
  assert_param(IS_TIM_LIST3_PERIPH(TIMx));
  assert_param(IS_TIM_OC_POLARITY(TIM_OCPolarity));

  tmpccer = TIMx->CCER;
20005fc6:	687b      	ldr	r3, [r7, #4]
20005fc8:	8c1b      	ldrh	r3, [r3, #32]
20005fca:	81fb      	strh	r3, [r7, #14]

  /* Set or Reset the CC4P Bit */
  tmpccer &= (uint16_t)~TIM_CCER_CC4P;
20005fcc:	89fb      	ldrh	r3, [r7, #14]
20005fce:	f423 5300 	bic.w	r3, r3, #8192	@ 0x2000
20005fd2:	81fb      	strh	r3, [r7, #14]
  tmpccer |= (uint16_t)(TIM_OCPolarity << 12);
20005fd4:	887b      	ldrh	r3, [r7, #2]
20005fd6:	031b      	lsls	r3, r3, #12
20005fd8:	b29a      	uxth	r2, r3
20005fda:	89fb      	ldrh	r3, [r7, #14]
20005fdc:	4313      	orrs	r3, r2
20005fde:	81fb      	strh	r3, [r7, #14]

  /* Write to TIMx CCER register */
  TIMx->CCER = tmpccer;
20005fe0:	687b      	ldr	r3, [r7, #4]
20005fe2:	89fa      	ldrh	r2, [r7, #14]
20005fe4:	841a      	strh	r2, [r3, #32]
}
20005fe6:	bf00      	nop
20005fe8:	3714      	adds	r7, #20
20005fea:	46bd      	mov	sp, r7
20005fec:	f85d 7b04 	ldr.w	r7, [sp], #4
20005ff0:	4770      	bx	lr

20005ff2 <TIM_CCxCmd>:
  * @param  TIM_CCx: specifies the TIM Channel CCxE bit new state.
  *          This parameter can be: TIM_CCx_Enable or TIM_CCx_Disable. 
  * @retval None
  */
void TIM_CCxCmd(TIM_TypeDef* TIMx, uint16_t TIM_Channel, uint16_t TIM_CCx)
{
20005ff2:	b480      	push	{r7}
20005ff4:	b085      	sub	sp, #20
20005ff6:	af00      	add	r7, sp, #0
20005ff8:	6078      	str	r0, [r7, #4]
20005ffa:	460b      	mov	r3, r1
20005ffc:	807b      	strh	r3, [r7, #2]
20005ffe:	4613      	mov	r3, r2
20006000:	803b      	strh	r3, [r7, #0]
  uint16_t tmp = 0;
20006002:	2300      	movs	r3, #0
20006004:	81fb      	strh	r3, [r7, #14]
  /* Check the parameters */
  assert_param(IS_TIM_LIST1_PERIPH(TIMx)); 
  assert_param(IS_TIM_CHANNEL(TIM_Channel));
  assert_param(IS_TIM_CCX(TIM_CCx));

  tmp = CCER_CCE_SET << TIM_Channel;
20006006:	887b      	ldrh	r3, [r7, #2]
20006008:	2201      	movs	r2, #1
2000600a:	fa02 f303 	lsl.w	r3, r2, r3
2000600e:	81fb      	strh	r3, [r7, #14]

  /* Reset the CCxE Bit */
  TIMx->CCER &= (uint16_t)~ tmp;
20006010:	687b      	ldr	r3, [r7, #4]
20006012:	8c1b      	ldrh	r3, [r3, #32]
20006014:	b29a      	uxth	r2, r3
20006016:	89fb      	ldrh	r3, [r7, #14]
20006018:	43db      	mvns	r3, r3
2000601a:	b29b      	uxth	r3, r3
2000601c:	4013      	ands	r3, r2
2000601e:	b29a      	uxth	r2, r3
20006020:	687b      	ldr	r3, [r7, #4]
20006022:	841a      	strh	r2, [r3, #32]

  /* Set or reset the CCxE Bit */ 
  TIMx->CCER |=  (uint16_t)(TIM_CCx << TIM_Channel);
20006024:	687b      	ldr	r3, [r7, #4]
20006026:	8c1b      	ldrh	r3, [r3, #32]
20006028:	b29a      	uxth	r2, r3
2000602a:	8839      	ldrh	r1, [r7, #0]
2000602c:	887b      	ldrh	r3, [r7, #2]
2000602e:	fa01 f303 	lsl.w	r3, r1, r3
20006032:	b29b      	uxth	r3, r3
20006034:	4313      	orrs	r3, r2
20006036:	b29a      	uxth	r2, r3
20006038:	687b      	ldr	r3, [r7, #4]
2000603a:	841a      	strh	r2, [r3, #32]
}
2000603c:	bf00      	nop
2000603e:	3714      	adds	r7, #20
20006040:	46bd      	mov	sp, r7
20006042:	f85d 7b04 	ldr.w	r7, [sp], #4
20006046:	4770      	bx	lr

20006048 <TIM_CCxNCmd>:
  * @param  TIM_CCxN: specifies the TIM Channel CCxNE bit new state.
  *          This parameter can be: TIM_CCxN_Enable or TIM_CCxN_Disable. 
  * @retval None
  */
void TIM_CCxNCmd(TIM_TypeDef* TIMx, uint16_t TIM_Channel, uint16_t TIM_CCxN)
{
20006048:	b480      	push	{r7}
2000604a:	b085      	sub	sp, #20
2000604c:	af00      	add	r7, sp, #0
2000604e:	6078      	str	r0, [r7, #4]
20006050:	460b      	mov	r3, r1
20006052:	807b      	strh	r3, [r7, #2]
20006054:	4613      	mov	r3, r2
20006056:	803b      	strh	r3, [r7, #0]
  uint16_t tmp = 0;
20006058:	2300      	movs	r3, #0
2000605a:	81fb      	strh	r3, [r7, #14]
  /* Check the parameters */
  assert_param(IS_TIM_LIST4_PERIPH(TIMx));
  assert_param(IS_TIM_COMPLEMENTARY_CHANNEL(TIM_Channel));
  assert_param(IS_TIM_CCXN(TIM_CCxN));

  tmp = CCER_CCNE_SET << TIM_Channel;
2000605c:	887b      	ldrh	r3, [r7, #2]
2000605e:	2204      	movs	r2, #4
20006060:	fa02 f303 	lsl.w	r3, r2, r3
20006064:	81fb      	strh	r3, [r7, #14]

  /* Reset the CCxNE Bit */
  TIMx->CCER &= (uint16_t) ~tmp;
20006066:	687b      	ldr	r3, [r7, #4]
20006068:	8c1b      	ldrh	r3, [r3, #32]
2000606a:	b29a      	uxth	r2, r3
2000606c:	89fb      	ldrh	r3, [r7, #14]
2000606e:	43db      	mvns	r3, r3
20006070:	b29b      	uxth	r3, r3
20006072:	4013      	ands	r3, r2
20006074:	b29a      	uxth	r2, r3
20006076:	687b      	ldr	r3, [r7, #4]
20006078:	841a      	strh	r2, [r3, #32]

  /* Set or reset the CCxNE Bit */ 
  TIMx->CCER |=  (uint16_t)(TIM_CCxN << TIM_Channel);
2000607a:	687b      	ldr	r3, [r7, #4]
2000607c:	8c1b      	ldrh	r3, [r3, #32]
2000607e:	b29a      	uxth	r2, r3
20006080:	8839      	ldrh	r1, [r7, #0]
20006082:	887b      	ldrh	r3, [r7, #2]
20006084:	fa01 f303 	lsl.w	r3, r1, r3
20006088:	b29b      	uxth	r3, r3
2000608a:	4313      	orrs	r3, r2
2000608c:	b29a      	uxth	r2, r3
2000608e:	687b      	ldr	r3, [r7, #4]
20006090:	841a      	strh	r2, [r3, #32]
}
20006092:	bf00      	nop
20006094:	3714      	adds	r7, #20
20006096:	46bd      	mov	sp, r7
20006098:	f85d 7b04 	ldr.w	r7, [sp], #4
2000609c:	4770      	bx	lr

2000609e <TIM_ICInit>:
  * @param  TIM_ICInitStruct: pointer to a TIM_ICInitTypeDef structure that contains
  *         the configuration information for the specified TIM peripheral.
  * @retval None
  */
void TIM_ICInit(TIM_TypeDef* TIMx, TIM_ICInitTypeDef* TIM_ICInitStruct)
{
2000609e:	b580      	push	{r7, lr}
200060a0:	b082      	sub	sp, #8
200060a2:	af00      	add	r7, sp, #0
200060a4:	6078      	str	r0, [r7, #4]
200060a6:	6039      	str	r1, [r7, #0]
  assert_param(IS_TIM_IC_POLARITY(TIM_ICInitStruct->TIM_ICPolarity));
  assert_param(IS_TIM_IC_SELECTION(TIM_ICInitStruct->TIM_ICSelection));
  assert_param(IS_TIM_IC_PRESCALER(TIM_ICInitStruct->TIM_ICPrescaler));
  assert_param(IS_TIM_IC_FILTER(TIM_ICInitStruct->TIM_ICFilter));
  
  if (TIM_ICInitStruct->TIM_Channel == TIM_Channel_1)
200060a8:	683b      	ldr	r3, [r7, #0]
200060aa:	881b      	ldrh	r3, [r3, #0]
200060ac:	2b00      	cmp	r3, #0
200060ae:	d10f      	bne.n	200060d0 <TIM_ICInit+0x32>
  {
    /* TI1 Configuration */
    TI1_Config(TIMx, TIM_ICInitStruct->TIM_ICPolarity,
200060b0:	683b      	ldr	r3, [r7, #0]
200060b2:	8859      	ldrh	r1, [r3, #2]
200060b4:	683b      	ldr	r3, [r7, #0]
200060b6:	889a      	ldrh	r2, [r3, #4]
200060b8:	683b      	ldr	r3, [r7, #0]
200060ba:	891b      	ldrh	r3, [r3, #8]
200060bc:	6878      	ldr	r0, [r7, #4]
200060be:	f000 fcb7 	bl	20006a30 <TI1_Config>
               TIM_ICInitStruct->TIM_ICSelection,
               TIM_ICInitStruct->TIM_ICFilter);
    /* Set the Input Capture Prescaler value */
    TIM_SetIC1Prescaler(TIMx, TIM_ICInitStruct->TIM_ICPrescaler);
200060c2:	683b      	ldr	r3, [r7, #0]
200060c4:	88db      	ldrh	r3, [r3, #6]
200060c6:	4619      	mov	r1, r3
200060c8:	6878      	ldr	r0, [r7, #4]
200060ca:	f000 f8e1 	bl	20006290 <TIM_SetIC1Prescaler>
               TIM_ICInitStruct->TIM_ICSelection,
               TIM_ICInitStruct->TIM_ICFilter);
    /* Set the Input Capture Prescaler value */
    TIM_SetIC4Prescaler(TIMx, TIM_ICInitStruct->TIM_ICPrescaler);
  }
}
200060ce:	e036      	b.n	2000613e <TIM_ICInit+0xa0>
  else if (TIM_ICInitStruct->TIM_Channel == TIM_Channel_2)
200060d0:	683b      	ldr	r3, [r7, #0]
200060d2:	881b      	ldrh	r3, [r3, #0]
200060d4:	2b04      	cmp	r3, #4
200060d6:	d10f      	bne.n	200060f8 <TIM_ICInit+0x5a>
    TI2_Config(TIMx, TIM_ICInitStruct->TIM_ICPolarity,
200060d8:	683b      	ldr	r3, [r7, #0]
200060da:	8859      	ldrh	r1, [r3, #2]
200060dc:	683b      	ldr	r3, [r7, #0]
200060de:	889a      	ldrh	r2, [r3, #4]
200060e0:	683b      	ldr	r3, [r7, #0]
200060e2:	891b      	ldrh	r3, [r3, #8]
200060e4:	6878      	ldr	r0, [r7, #4]
200060e6:	f000 fce6 	bl	20006ab6 <TI2_Config>
    TIM_SetIC2Prescaler(TIMx, TIM_ICInitStruct->TIM_ICPrescaler);
200060ea:	683b      	ldr	r3, [r7, #0]
200060ec:	88db      	ldrh	r3, [r3, #6]
200060ee:	4619      	mov	r1, r3
200060f0:	6878      	ldr	r0, [r7, #4]
200060f2:	f000 f8e9 	bl	200062c8 <TIM_SetIC2Prescaler>
}
200060f6:	e022      	b.n	2000613e <TIM_ICInit+0xa0>
  else if (TIM_ICInitStruct->TIM_Channel == TIM_Channel_3)
200060f8:	683b      	ldr	r3, [r7, #0]
200060fa:	881b      	ldrh	r3, [r3, #0]
200060fc:	2b08      	cmp	r3, #8
200060fe:	d10f      	bne.n	20006120 <TIM_ICInit+0x82>
    TI3_Config(TIMx,  TIM_ICInitStruct->TIM_ICPolarity,
20006100:	683b      	ldr	r3, [r7, #0]
20006102:	8859      	ldrh	r1, [r3, #2]
20006104:	683b      	ldr	r3, [r7, #0]
20006106:	889a      	ldrh	r2, [r3, #4]
20006108:	683b      	ldr	r3, [r7, #0]
2000610a:	891b      	ldrh	r3, [r3, #8]
2000610c:	6878      	ldr	r0, [r7, #4]
2000610e:	f000 fd1f 	bl	20006b50 <TI3_Config>
    TIM_SetIC3Prescaler(TIMx, TIM_ICInitStruct->TIM_ICPrescaler);
20006112:	683b      	ldr	r3, [r7, #0]
20006114:	88db      	ldrh	r3, [r3, #6]
20006116:	4619      	mov	r1, r3
20006118:	6878      	ldr	r0, [r7, #4]
2000611a:	f000 f8f3 	bl	20006304 <TIM_SetIC3Prescaler>
}
2000611e:	e00e      	b.n	2000613e <TIM_ICInit+0xa0>
    TI4_Config(TIMx, TIM_ICInitStruct->TIM_ICPolarity,
20006120:	683b      	ldr	r3, [r7, #0]
20006122:	8859      	ldrh	r1, [r3, #2]
20006124:	683b      	ldr	r3, [r7, #0]
20006126:	889a      	ldrh	r2, [r3, #4]
20006128:	683b      	ldr	r3, [r7, #0]
2000612a:	891b      	ldrh	r3, [r3, #8]
2000612c:	6878      	ldr	r0, [r7, #4]
2000612e:	f000 fd57 	bl	20006be0 <TI4_Config>
    TIM_SetIC4Prescaler(TIMx, TIM_ICInitStruct->TIM_ICPrescaler);
20006132:	683b      	ldr	r3, [r7, #0]
20006134:	88db      	ldrh	r3, [r3, #6]
20006136:	4619      	mov	r1, r3
20006138:	6878      	ldr	r0, [r7, #4]
2000613a:	f000 f8ff 	bl	2000633c <TIM_SetIC4Prescaler>
}
2000613e:	bf00      	nop
20006140:	3708      	adds	r7, #8
20006142:	46bd      	mov	sp, r7
20006144:	bd80      	pop	{r7, pc}

20006146 <TIM_ICStructInit>:
  * @param  TIM_ICInitStruct: pointer to a TIM_ICInitTypeDef structure which will
  *         be initialized.
  * @retval None
  */
void TIM_ICStructInit(TIM_ICInitTypeDef* TIM_ICInitStruct)
{
20006146:	b480      	push	{r7}
20006148:	b083      	sub	sp, #12
2000614a:	af00      	add	r7, sp, #0
2000614c:	6078      	str	r0, [r7, #4]
  /* Set the default configuration */
  TIM_ICInitStruct->TIM_Channel = TIM_Channel_1;
2000614e:	687b      	ldr	r3, [r7, #4]
20006150:	2200      	movs	r2, #0
20006152:	801a      	strh	r2, [r3, #0]
  TIM_ICInitStruct->TIM_ICPolarity = TIM_ICPolarity_Rising;
20006154:	687b      	ldr	r3, [r7, #4]
20006156:	2200      	movs	r2, #0
20006158:	805a      	strh	r2, [r3, #2]
  TIM_ICInitStruct->TIM_ICSelection = TIM_ICSelection_DirectTI;
2000615a:	687b      	ldr	r3, [r7, #4]
2000615c:	2201      	movs	r2, #1
2000615e:	809a      	strh	r2, [r3, #4]
  TIM_ICInitStruct->TIM_ICPrescaler = TIM_ICPSC_DIV1;
20006160:	687b      	ldr	r3, [r7, #4]
20006162:	2200      	movs	r2, #0
20006164:	80da      	strh	r2, [r3, #6]
  TIM_ICInitStruct->TIM_ICFilter = 0x00;
20006166:	687b      	ldr	r3, [r7, #4]
20006168:	2200      	movs	r2, #0
2000616a:	811a      	strh	r2, [r3, #8]
}
2000616c:	bf00      	nop
2000616e:	370c      	adds	r7, #12
20006170:	46bd      	mov	sp, r7
20006172:	f85d 7b04 	ldr.w	r7, [sp], #4
20006176:	4770      	bx	lr

20006178 <TIM_PWMIConfig>:
  * @param  TIM_ICInitStruct: pointer to a TIM_ICInitTypeDef structure that contains
  *         the configuration information for the specified TIM peripheral.
  * @retval None
  */
void TIM_PWMIConfig(TIM_TypeDef* TIMx, TIM_ICInitTypeDef* TIM_ICInitStruct)
{
20006178:	b580      	push	{r7, lr}
2000617a:	b084      	sub	sp, #16
2000617c:	af00      	add	r7, sp, #0
2000617e:	6078      	str	r0, [r7, #4]
20006180:	6039      	str	r1, [r7, #0]
  uint16_t icoppositepolarity = TIM_ICPolarity_Rising;
20006182:	2300      	movs	r3, #0
20006184:	81fb      	strh	r3, [r7, #14]
  uint16_t icoppositeselection = TIM_ICSelection_DirectTI;
20006186:	2301      	movs	r3, #1
20006188:	81bb      	strh	r3, [r7, #12]

  /* Check the parameters */
  assert_param(IS_TIM_LIST2_PERIPH(TIMx));

  /* Select the Opposite Input Polarity */
  if (TIM_ICInitStruct->TIM_ICPolarity == TIM_ICPolarity_Rising)
2000618a:	683b      	ldr	r3, [r7, #0]
2000618c:	885b      	ldrh	r3, [r3, #2]
2000618e:	2b00      	cmp	r3, #0
20006190:	d102      	bne.n	20006198 <TIM_PWMIConfig+0x20>
  {
    icoppositepolarity = TIM_ICPolarity_Falling;
20006192:	2302      	movs	r3, #2
20006194:	81fb      	strh	r3, [r7, #14]
20006196:	e001      	b.n	2000619c <TIM_PWMIConfig+0x24>
  }
  else
  {
    icoppositepolarity = TIM_ICPolarity_Rising;
20006198:	2300      	movs	r3, #0
2000619a:	81fb      	strh	r3, [r7, #14]
  }
  /* Select the Opposite Input */
  if (TIM_ICInitStruct->TIM_ICSelection == TIM_ICSelection_DirectTI)
2000619c:	683b      	ldr	r3, [r7, #0]
2000619e:	889b      	ldrh	r3, [r3, #4]
200061a0:	2b01      	cmp	r3, #1
200061a2:	d102      	bne.n	200061aa <TIM_PWMIConfig+0x32>
  {
    icoppositeselection = TIM_ICSelection_IndirectTI;
200061a4:	2302      	movs	r3, #2
200061a6:	81bb      	strh	r3, [r7, #12]
200061a8:	e001      	b.n	200061ae <TIM_PWMIConfig+0x36>
  }
  else
  {
    icoppositeselection = TIM_ICSelection_DirectTI;
200061aa:	2301      	movs	r3, #1
200061ac:	81bb      	strh	r3, [r7, #12]
  }
  if (TIM_ICInitStruct->TIM_Channel == TIM_Channel_1)
200061ae:	683b      	ldr	r3, [r7, #0]
200061b0:	881b      	ldrh	r3, [r3, #0]
200061b2:	2b00      	cmp	r3, #0
200061b4:	d11c      	bne.n	200061f0 <TIM_PWMIConfig+0x78>
  {
    /* TI1 Configuration */
    TI1_Config(TIMx, TIM_ICInitStruct->TIM_ICPolarity, TIM_ICInitStruct->TIM_ICSelection,
200061b6:	683b      	ldr	r3, [r7, #0]
200061b8:	8859      	ldrh	r1, [r3, #2]
200061ba:	683b      	ldr	r3, [r7, #0]
200061bc:	889a      	ldrh	r2, [r3, #4]
200061be:	683b      	ldr	r3, [r7, #0]
200061c0:	891b      	ldrh	r3, [r3, #8]
200061c2:	6878      	ldr	r0, [r7, #4]
200061c4:	f000 fc34 	bl	20006a30 <TI1_Config>
               TIM_ICInitStruct->TIM_ICFilter);
    /* Set the Input Capture Prescaler value */
    TIM_SetIC1Prescaler(TIMx, TIM_ICInitStruct->TIM_ICPrescaler);
200061c8:	683b      	ldr	r3, [r7, #0]
200061ca:	88db      	ldrh	r3, [r3, #6]
200061cc:	4619      	mov	r1, r3
200061ce:	6878      	ldr	r0, [r7, #4]
200061d0:	f000 f85e 	bl	20006290 <TIM_SetIC1Prescaler>
    /* TI2 Configuration */
    TI2_Config(TIMx, icoppositepolarity, icoppositeselection, TIM_ICInitStruct->TIM_ICFilter);
200061d4:	683b      	ldr	r3, [r7, #0]
200061d6:	891b      	ldrh	r3, [r3, #8]
200061d8:	89ba      	ldrh	r2, [r7, #12]
200061da:	89f9      	ldrh	r1, [r7, #14]
200061dc:	6878      	ldr	r0, [r7, #4]
200061de:	f000 fc6a 	bl	20006ab6 <TI2_Config>
    /* Set the Input Capture Prescaler value */
    TIM_SetIC2Prescaler(TIMx, TIM_ICInitStruct->TIM_ICPrescaler);
200061e2:	683b      	ldr	r3, [r7, #0]
200061e4:	88db      	ldrh	r3, [r3, #6]
200061e6:	4619      	mov	r1, r3
200061e8:	6878      	ldr	r0, [r7, #4]
200061ea:	f000 f86d 	bl	200062c8 <TIM_SetIC2Prescaler>
    /* TI1 Configuration */
    TI1_Config(TIMx, icoppositepolarity, icoppositeselection, TIM_ICInitStruct->TIM_ICFilter);
    /* Set the Input Capture Prescaler value */
    TIM_SetIC1Prescaler(TIMx, TIM_ICInitStruct->TIM_ICPrescaler);
  }
}
200061ee:	e01b      	b.n	20006228 <TIM_PWMIConfig+0xb0>
    TI2_Config(TIMx, TIM_ICInitStruct->TIM_ICPolarity, TIM_ICInitStruct->TIM_ICSelection,
200061f0:	683b      	ldr	r3, [r7, #0]
200061f2:	8859      	ldrh	r1, [r3, #2]
200061f4:	683b      	ldr	r3, [r7, #0]
200061f6:	889a      	ldrh	r2, [r3, #4]
200061f8:	683b      	ldr	r3, [r7, #0]
200061fa:	891b      	ldrh	r3, [r3, #8]
200061fc:	6878      	ldr	r0, [r7, #4]
200061fe:	f000 fc5a 	bl	20006ab6 <TI2_Config>
    TIM_SetIC2Prescaler(TIMx, TIM_ICInitStruct->TIM_ICPrescaler);
20006202:	683b      	ldr	r3, [r7, #0]
20006204:	88db      	ldrh	r3, [r3, #6]
20006206:	4619      	mov	r1, r3
20006208:	6878      	ldr	r0, [r7, #4]
2000620a:	f000 f85d 	bl	200062c8 <TIM_SetIC2Prescaler>
    TI1_Config(TIMx, icoppositepolarity, icoppositeselection, TIM_ICInitStruct->TIM_ICFilter);
2000620e:	683b      	ldr	r3, [r7, #0]
20006210:	891b      	ldrh	r3, [r3, #8]
20006212:	89ba      	ldrh	r2, [r7, #12]
20006214:	89f9      	ldrh	r1, [r7, #14]
20006216:	6878      	ldr	r0, [r7, #4]
20006218:	f000 fc0a 	bl	20006a30 <TI1_Config>
    TIM_SetIC1Prescaler(TIMx, TIM_ICInitStruct->TIM_ICPrescaler);
2000621c:	683b      	ldr	r3, [r7, #0]
2000621e:	88db      	ldrh	r3, [r3, #6]
20006220:	4619      	mov	r1, r3
20006222:	6878      	ldr	r0, [r7, #4]
20006224:	f000 f834 	bl	20006290 <TIM_SetIC1Prescaler>
}
20006228:	bf00      	nop
2000622a:	3710      	adds	r7, #16
2000622c:	46bd      	mov	sp, r7
2000622e:	bd80      	pop	{r7, pc}

20006230 <TIM_GetCapture1>:
  * @brief  Gets the TIMx Input Capture 1 value.
  * @param  TIMx: where x can be 1 to 14 except 6 and 7, to select the TIM peripheral.
  * @retval Capture Compare 1 Register value.
  */
uint32_t TIM_GetCapture1(TIM_TypeDef* TIMx)
{
20006230:	b480      	push	{r7}
20006232:	b083      	sub	sp, #12
20006234:	af00      	add	r7, sp, #0
20006236:	6078      	str	r0, [r7, #4]
  /* Check the parameters */
  assert_param(IS_TIM_LIST1_PERIPH(TIMx));

  /* Get the Capture 1 Register value */
  return TIMx->CCR1;
20006238:	687b      	ldr	r3, [r7, #4]
2000623a:	6b5b      	ldr	r3, [r3, #52]	@ 0x34
}
2000623c:	4618      	mov	r0, r3
2000623e:	370c      	adds	r7, #12
20006240:	46bd      	mov	sp, r7
20006242:	f85d 7b04 	ldr.w	r7, [sp], #4
20006246:	4770      	bx	lr

20006248 <TIM_GetCapture2>:
  * @param  TIMx: where x can be 1, 2, 3, 4, 5, 8, 9 or 12 to select the TIM 
  *         peripheral.
  * @retval Capture Compare 2 Register value.
  */
uint32_t TIM_GetCapture2(TIM_TypeDef* TIMx)
{
20006248:	b480      	push	{r7}
2000624a:	b083      	sub	sp, #12
2000624c:	af00      	add	r7, sp, #0
2000624e:	6078      	str	r0, [r7, #4]
  /* Check the parameters */
  assert_param(IS_TIM_LIST2_PERIPH(TIMx));

  /* Get the Capture 2 Register value */
  return TIMx->CCR2;
20006250:	687b      	ldr	r3, [r7, #4]
20006252:	6b9b      	ldr	r3, [r3, #56]	@ 0x38
}
20006254:	4618      	mov	r0, r3
20006256:	370c      	adds	r7, #12
20006258:	46bd      	mov	sp, r7
2000625a:	f85d 7b04 	ldr.w	r7, [sp], #4
2000625e:	4770      	bx	lr

20006260 <TIM_GetCapture3>:
  * @brief  Gets the TIMx Input Capture 3 value.
  * @param  TIMx: where x can be 1, 2, 3, 4, 5 or 8 to select the TIM peripheral.
  * @retval Capture Compare 3 Register value.
  */
uint32_t TIM_GetCapture3(TIM_TypeDef* TIMx)
{
20006260:	b480      	push	{r7}
20006262:	b083      	sub	sp, #12
20006264:	af00      	add	r7, sp, #0
20006266:	6078      	str	r0, [r7, #4]
  /* Check the parameters */
  assert_param(IS_TIM_LIST3_PERIPH(TIMx)); 

  /* Get the Capture 3 Register value */
  return TIMx->CCR3;
20006268:	687b      	ldr	r3, [r7, #4]
2000626a:	6bdb      	ldr	r3, [r3, #60]	@ 0x3c
}
2000626c:	4618      	mov	r0, r3
2000626e:	370c      	adds	r7, #12
20006270:	46bd      	mov	sp, r7
20006272:	f85d 7b04 	ldr.w	r7, [sp], #4
20006276:	4770      	bx	lr

20006278 <TIM_GetCapture4>:
  * @brief  Gets the TIMx Input Capture 4 value.
  * @param  TIMx: where x can be 1, 2, 3, 4, 5 or 8 to select the TIM peripheral.
  * @retval Capture Compare 4 Register value.
  */
uint32_t TIM_GetCapture4(TIM_TypeDef* TIMx)
{
20006278:	b480      	push	{r7}
2000627a:	b083      	sub	sp, #12
2000627c:	af00      	add	r7, sp, #0
2000627e:	6078      	str	r0, [r7, #4]
  /* Check the parameters */
  assert_param(IS_TIM_LIST3_PERIPH(TIMx));

  /* Get the Capture 4 Register value */
  return TIMx->CCR4;
20006280:	687b      	ldr	r3, [r7, #4]
20006282:	6c1b      	ldr	r3, [r3, #64]	@ 0x40
}
20006284:	4618      	mov	r0, r3
20006286:	370c      	adds	r7, #12
20006288:	46bd      	mov	sp, r7
2000628a:	f85d 7b04 	ldr.w	r7, [sp], #4
2000628e:	4770      	bx	lr

20006290 <TIM_SetIC1Prescaler>:
  *            @arg TIM_ICPSC_DIV4: capture is done once every 4 events
  *            @arg TIM_ICPSC_DIV8: capture is done once every 8 events
  * @retval None
  */
void TIM_SetIC1Prescaler(TIM_TypeDef* TIMx, uint16_t TIM_ICPSC)
{
20006290:	b480      	push	{r7}
20006292:	b083      	sub	sp, #12
20006294:	af00      	add	r7, sp, #0
20006296:	6078      	str	r0, [r7, #4]
20006298:	460b      	mov	r3, r1
2000629a:	807b      	strh	r3, [r7, #2]
  /* Check the parameters */
  assert_param(IS_TIM_LIST1_PERIPH(TIMx));
  assert_param(IS_TIM_IC_PRESCALER(TIM_ICPSC));

  /* Reset the IC1PSC Bits */
  TIMx->CCMR1 &= (uint16_t)~TIM_CCMR1_IC1PSC;
2000629c:	687b      	ldr	r3, [r7, #4]
2000629e:	8b1b      	ldrh	r3, [r3, #24]
200062a0:	b29b      	uxth	r3, r3
200062a2:	f023 030c 	bic.w	r3, r3, #12
200062a6:	b29a      	uxth	r2, r3
200062a8:	687b      	ldr	r3, [r7, #4]
200062aa:	831a      	strh	r2, [r3, #24]

  /* Set the IC1PSC value */
  TIMx->CCMR1 |= TIM_ICPSC;
200062ac:	687b      	ldr	r3, [r7, #4]
200062ae:	8b1b      	ldrh	r3, [r3, #24]
200062b0:	b29a      	uxth	r2, r3
200062b2:	887b      	ldrh	r3, [r7, #2]
200062b4:	4313      	orrs	r3, r2
200062b6:	b29a      	uxth	r2, r3
200062b8:	687b      	ldr	r3, [r7, #4]
200062ba:	831a      	strh	r2, [r3, #24]
}
200062bc:	bf00      	nop
200062be:	370c      	adds	r7, #12
200062c0:	46bd      	mov	sp, r7
200062c2:	f85d 7b04 	ldr.w	r7, [sp], #4
200062c6:	4770      	bx	lr

200062c8 <TIM_SetIC2Prescaler>:
  *            @arg TIM_ICPSC_DIV4: capture is done once every 4 events
  *            @arg TIM_ICPSC_DIV8: capture is done once every 8 events
  * @retval None
  */
void TIM_SetIC2Prescaler(TIM_TypeDef* TIMx, uint16_t TIM_ICPSC)
{
200062c8:	b480      	push	{r7}
200062ca:	b083      	sub	sp, #12
200062cc:	af00      	add	r7, sp, #0
200062ce:	6078      	str	r0, [r7, #4]
200062d0:	460b      	mov	r3, r1
200062d2:	807b      	strh	r3, [r7, #2]
  /* Check the parameters */
  assert_param(IS_TIM_LIST2_PERIPH(TIMx));
  assert_param(IS_TIM_IC_PRESCALER(TIM_ICPSC));

  /* Reset the IC2PSC Bits */
  TIMx->CCMR1 &= (uint16_t)~TIM_CCMR1_IC2PSC;
200062d4:	687b      	ldr	r3, [r7, #4]
200062d6:	8b1b      	ldrh	r3, [r3, #24]
200062d8:	b29b      	uxth	r3, r3
200062da:	f423 6340 	bic.w	r3, r3, #3072	@ 0xc00
200062de:	b29a      	uxth	r2, r3
200062e0:	687b      	ldr	r3, [r7, #4]
200062e2:	831a      	strh	r2, [r3, #24]

  /* Set the IC2PSC value */
  TIMx->CCMR1 |= (uint16_t)(TIM_ICPSC << 8);
200062e4:	687b      	ldr	r3, [r7, #4]
200062e6:	8b1b      	ldrh	r3, [r3, #24]
200062e8:	b29a      	uxth	r2, r3
200062ea:	887b      	ldrh	r3, [r7, #2]
200062ec:	021b      	lsls	r3, r3, #8
200062ee:	b29b      	uxth	r3, r3
200062f0:	4313      	orrs	r3, r2
200062f2:	b29a      	uxth	r2, r3
200062f4:	687b      	ldr	r3, [r7, #4]
200062f6:	831a      	strh	r2, [r3, #24]
}
200062f8:	bf00      	nop
200062fa:	370c      	adds	r7, #12
200062fc:	46bd      	mov	sp, r7
200062fe:	f85d 7b04 	ldr.w	r7, [sp], #4
20006302:	4770      	bx	lr

20006304 <TIM_SetIC3Prescaler>:
  *            @arg TIM_ICPSC_DIV4: capture is done once every 4 events
  *            @arg TIM_ICPSC_DIV8: capture is done once every 8 events
  * @retval None
  */
void TIM_SetIC3Prescaler(TIM_TypeDef* TIMx, uint16_t TIM_ICPSC)
{
20006304:	b480      	push	{r7}
20006306:	b083      	sub	sp, #12
20006308:	af00      	add	r7, sp, #0
2000630a:	6078      	str	r0, [r7, #4]
2000630c:	460b      	mov	r3, r1
2000630e:	807b      	strh	r3, [r7, #2]
  /* Check the parameters */
  assert_param(IS_TIM_LIST3_PERIPH(TIMx));
  assert_param(IS_TIM_IC_PRESCALER(TIM_ICPSC));

  /* Reset the IC3PSC Bits */
  TIMx->CCMR2 &= (uint16_t)~TIM_CCMR2_IC3PSC;
20006310:	687b      	ldr	r3, [r7, #4]
20006312:	8b9b      	ldrh	r3, [r3, #28]
20006314:	b29b      	uxth	r3, r3
20006316:	f023 030c 	bic.w	r3, r3, #12
2000631a:	b29a      	uxth	r2, r3
2000631c:	687b      	ldr	r3, [r7, #4]
2000631e:	839a      	strh	r2, [r3, #28]

  /* Set the IC3PSC value */
  TIMx->CCMR2 |= TIM_ICPSC;
20006320:	687b      	ldr	r3, [r7, #4]
20006322:	8b9b      	ldrh	r3, [r3, #28]
20006324:	b29a      	uxth	r2, r3
20006326:	887b      	ldrh	r3, [r7, #2]
20006328:	4313      	orrs	r3, r2
2000632a:	b29a      	uxth	r2, r3
2000632c:	687b      	ldr	r3, [r7, #4]
2000632e:	839a      	strh	r2, [r3, #28]
}
20006330:	bf00      	nop
20006332:	370c      	adds	r7, #12
20006334:	46bd      	mov	sp, r7
20006336:	f85d 7b04 	ldr.w	r7, [sp], #4
2000633a:	4770      	bx	lr

2000633c <TIM_SetIC4Prescaler>:
  *            @arg TIM_ICPSC_DIV4: capture is done once every 4 events
  *            @arg TIM_ICPSC_DIV8: capture is done once every 8 events
  * @retval None
  */
void TIM_SetIC4Prescaler(TIM_TypeDef* TIMx, uint16_t TIM_ICPSC)
{  
2000633c:	b480      	push	{r7}
2000633e:	b083      	sub	sp, #12
20006340:	af00      	add	r7, sp, #0
20006342:	6078      	str	r0, [r7, #4]
20006344:	460b      	mov	r3, r1
20006346:	807b      	strh	r3, [r7, #2]
  /* Check the parameters */
  assert_param(IS_TIM_LIST3_PERIPH(TIMx));
  assert_param(IS_TIM_IC_PRESCALER(TIM_ICPSC));

  /* Reset the IC4PSC Bits */
  TIMx->CCMR2 &= (uint16_t)~TIM_CCMR2_IC4PSC;
20006348:	687b      	ldr	r3, [r7, #4]
2000634a:	8b9b      	ldrh	r3, [r3, #28]
2000634c:	b29b      	uxth	r3, r3
2000634e:	f423 6340 	bic.w	r3, r3, #3072	@ 0xc00
20006352:	b29a      	uxth	r2, r3
20006354:	687b      	ldr	r3, [r7, #4]
20006356:	839a      	strh	r2, [r3, #28]

  /* Set the IC4PSC value */
  TIMx->CCMR2 |= (uint16_t)(TIM_ICPSC << 8);
20006358:	687b      	ldr	r3, [r7, #4]
2000635a:	8b9b      	ldrh	r3, [r3, #28]
2000635c:	b29a      	uxth	r2, r3
2000635e:	887b      	ldrh	r3, [r7, #2]
20006360:	021b      	lsls	r3, r3, #8
20006362:	b29b      	uxth	r3, r3
20006364:	4313      	orrs	r3, r2
20006366:	b29a      	uxth	r2, r3
20006368:	687b      	ldr	r3, [r7, #4]
2000636a:	839a      	strh	r2, [r3, #28]
}
2000636c:	bf00      	nop
2000636e:	370c      	adds	r7, #12
20006370:	46bd      	mov	sp, r7
20006372:	f85d 7b04 	ldr.w	r7, [sp], #4
20006376:	4770      	bx	lr

20006378 <TIM_BDTRConfig>:
  * @param  TIM_BDTRInitStruct: pointer to a TIM_BDTRInitTypeDef structure that
  *         contains the BDTR Register configuration  information for the TIM peripheral.
  * @retval None
  */
void TIM_BDTRConfig(TIM_TypeDef* TIMx, TIM_BDTRInitTypeDef *TIM_BDTRInitStruct)
{
20006378:	b480      	push	{r7}
2000637a:	b083      	sub	sp, #12
2000637c:	af00      	add	r7, sp, #0
2000637e:	6078      	str	r0, [r7, #4]
20006380:	6039      	str	r1, [r7, #0]
  assert_param(IS_TIM_BREAK_POLARITY(TIM_BDTRInitStruct->TIM_BreakPolarity));
  assert_param(IS_TIM_AUTOMATIC_OUTPUT_STATE(TIM_BDTRInitStruct->TIM_AutomaticOutput));

  /* Set the Lock level, the Break enable Bit and the Polarity, the OSSR State,
     the OSSI State, the dead time value and the Automatic Output Enable Bit */
  TIMx->BDTR = (uint32_t)TIM_BDTRInitStruct->TIM_OSSRState | TIM_BDTRInitStruct->TIM_OSSIState |
20006382:	683b      	ldr	r3, [r7, #0]
20006384:	881a      	ldrh	r2, [r3, #0]
20006386:	683b      	ldr	r3, [r7, #0]
20006388:	885b      	ldrh	r3, [r3, #2]
2000638a:	4313      	orrs	r3, r2
2000638c:	b29a      	uxth	r2, r3
             TIM_BDTRInitStruct->TIM_LOCKLevel | TIM_BDTRInitStruct->TIM_DeadTime |
2000638e:	683b      	ldr	r3, [r7, #0]
20006390:	889b      	ldrh	r3, [r3, #4]
  TIMx->BDTR = (uint32_t)TIM_BDTRInitStruct->TIM_OSSRState | TIM_BDTRInitStruct->TIM_OSSIState |
20006392:	4313      	orrs	r3, r2
20006394:	b29a      	uxth	r2, r3
             TIM_BDTRInitStruct->TIM_LOCKLevel | TIM_BDTRInitStruct->TIM_DeadTime |
20006396:	683b      	ldr	r3, [r7, #0]
20006398:	88db      	ldrh	r3, [r3, #6]
  TIMx->BDTR = (uint32_t)TIM_BDTRInitStruct->TIM_OSSRState | TIM_BDTRInitStruct->TIM_OSSIState |
2000639a:	4313      	orrs	r3, r2
2000639c:	b29a      	uxth	r2, r3
             TIM_BDTRInitStruct->TIM_Break | TIM_BDTRInitStruct->TIM_BreakPolarity |
2000639e:	683b      	ldr	r3, [r7, #0]
200063a0:	891b      	ldrh	r3, [r3, #8]
  TIMx->BDTR = (uint32_t)TIM_BDTRInitStruct->TIM_OSSRState | TIM_BDTRInitStruct->TIM_OSSIState |
200063a2:	4313      	orrs	r3, r2
200063a4:	b29a      	uxth	r2, r3
             TIM_BDTRInitStruct->TIM_Break | TIM_BDTRInitStruct->TIM_BreakPolarity |
200063a6:	683b      	ldr	r3, [r7, #0]
200063a8:	895b      	ldrh	r3, [r3, #10]
  TIMx->BDTR = (uint32_t)TIM_BDTRInitStruct->TIM_OSSRState | TIM_BDTRInitStruct->TIM_OSSIState |
200063aa:	4313      	orrs	r3, r2
200063ac:	b29a      	uxth	r2, r3
             TIM_BDTRInitStruct->TIM_AutomaticOutput;
200063ae:	683b      	ldr	r3, [r7, #0]
200063b0:	899b      	ldrh	r3, [r3, #12]
  TIMx->BDTR = (uint32_t)TIM_BDTRInitStruct->TIM_OSSRState | TIM_BDTRInitStruct->TIM_OSSIState |
200063b2:	4313      	orrs	r3, r2
200063b4:	b29a      	uxth	r2, r3
200063b6:	687b      	ldr	r3, [r7, #4]
200063b8:	f8a3 2044 	strh.w	r2, [r3, #68]	@ 0x44
}
200063bc:	bf00      	nop
200063be:	370c      	adds	r7, #12
200063c0:	46bd      	mov	sp, r7
200063c2:	f85d 7b04 	ldr.w	r7, [sp], #4
200063c6:	4770      	bx	lr

200063c8 <TIM_BDTRStructInit>:
  * @param  TIM_BDTRInitStruct: pointer to a TIM_BDTRInitTypeDef structure which
  *         will be initialized.
  * @retval None
  */
void TIM_BDTRStructInit(TIM_BDTRInitTypeDef* TIM_BDTRInitStruct)
{
200063c8:	b480      	push	{r7}
200063ca:	b083      	sub	sp, #12
200063cc:	af00      	add	r7, sp, #0
200063ce:	6078      	str	r0, [r7, #4]
  /* Set the default configuration */
  TIM_BDTRInitStruct->TIM_OSSRState = TIM_OSSRState_Disable;
200063d0:	687b      	ldr	r3, [r7, #4]
200063d2:	2200      	movs	r2, #0
200063d4:	801a      	strh	r2, [r3, #0]
  TIM_BDTRInitStruct->TIM_OSSIState = TIM_OSSIState_Disable;
200063d6:	687b      	ldr	r3, [r7, #4]
200063d8:	2200      	movs	r2, #0
200063da:	805a      	strh	r2, [r3, #2]
  TIM_BDTRInitStruct->TIM_LOCKLevel = TIM_LOCKLevel_OFF;
200063dc:	687b      	ldr	r3, [r7, #4]
200063de:	2200      	movs	r2, #0
200063e0:	809a      	strh	r2, [r3, #4]
  TIM_BDTRInitStruct->TIM_DeadTime = 0x00;
200063e2:	687b      	ldr	r3, [r7, #4]
200063e4:	2200      	movs	r2, #0
200063e6:	80da      	strh	r2, [r3, #6]
  TIM_BDTRInitStruct->TIM_Break = TIM_Break_Disable;
200063e8:	687b      	ldr	r3, [r7, #4]
200063ea:	2200      	movs	r2, #0
200063ec:	811a      	strh	r2, [r3, #8]
  TIM_BDTRInitStruct->TIM_BreakPolarity = TIM_BreakPolarity_Low;
200063ee:	687b      	ldr	r3, [r7, #4]
200063f0:	2200      	movs	r2, #0
200063f2:	815a      	strh	r2, [r3, #10]
  TIM_BDTRInitStruct->TIM_AutomaticOutput = TIM_AutomaticOutput_Disable;
200063f4:	687b      	ldr	r3, [r7, #4]
200063f6:	2200      	movs	r2, #0
200063f8:	819a      	strh	r2, [r3, #12]
}
200063fa:	bf00      	nop
200063fc:	370c      	adds	r7, #12
200063fe:	46bd      	mov	sp, r7
20006400:	f85d 7b04 	ldr.w	r7, [sp], #4
20006404:	4770      	bx	lr

20006406 <TIM_CtrlPWMOutputs>:
  * @param  NewState: new state of the TIM peripheral Main Outputs.
  *          This parameter can be: ENABLE or DISABLE.
  * @retval None
  */
void TIM_CtrlPWMOutputs(TIM_TypeDef* TIMx, FunctionalState NewState)
{
20006406:	b480      	push	{r7}
20006408:	b083      	sub	sp, #12
2000640a:	af00      	add	r7, sp, #0
2000640c:	6078      	str	r0, [r7, #4]
2000640e:	460b      	mov	r3, r1
20006410:	70fb      	strb	r3, [r7, #3]
  /* Check the parameters */
  assert_param(IS_TIM_LIST4_PERIPH(TIMx));
  assert_param(IS_FUNCTIONAL_STATE(NewState));

  if (NewState != DISABLE)
20006412:	78fb      	ldrb	r3, [r7, #3]
20006414:	2b00      	cmp	r3, #0
20006416:	d00c      	beq.n	20006432 <TIM_CtrlPWMOutputs+0x2c>
  {
    /* Enable the TIM Main Output */
    TIMx->BDTR |= TIM_BDTR_MOE;
20006418:	687b      	ldr	r3, [r7, #4]
2000641a:	f8b3 3044 	ldrh.w	r3, [r3, #68]	@ 0x44
2000641e:	b29b      	uxth	r3, r3
20006420:	ea6f 4343 	mvn.w	r3, r3, lsl #17
20006424:	ea6f 4353 	mvn.w	r3, r3, lsr #17
20006428:	b29a      	uxth	r2, r3
2000642a:	687b      	ldr	r3, [r7, #4]
2000642c:	f8a3 2044 	strh.w	r2, [r3, #68]	@ 0x44
  else
  {
    /* Disable the TIM Main Output */
    TIMx->BDTR &= (uint16_t)~TIM_BDTR_MOE;
  }  
}
20006430:	e009      	b.n	20006446 <TIM_CtrlPWMOutputs+0x40>
    TIMx->BDTR &= (uint16_t)~TIM_BDTR_MOE;
20006432:	687b      	ldr	r3, [r7, #4]
20006434:	f8b3 3044 	ldrh.w	r3, [r3, #68]	@ 0x44
20006438:	b29b      	uxth	r3, r3
2000643a:	f3c3 030e 	ubfx	r3, r3, #0, #15
2000643e:	b29a      	uxth	r2, r3
20006440:	687b      	ldr	r3, [r7, #4]
20006442:	f8a3 2044 	strh.w	r2, [r3, #68]	@ 0x44
}
20006446:	bf00      	nop
20006448:	370c      	adds	r7, #12
2000644a:	46bd      	mov	sp, r7
2000644c:	f85d 7b04 	ldr.w	r7, [sp], #4
20006450:	4770      	bx	lr

20006452 <TIM_SelectCOM>:
  * @param  NewState: new state of the Commutation event.
  *          This parameter can be: ENABLE or DISABLE.
  * @retval None
  */
void TIM_SelectCOM(TIM_TypeDef* TIMx, FunctionalState NewState)
{
20006452:	b480      	push	{r7}
20006454:	b083      	sub	sp, #12
20006456:	af00      	add	r7, sp, #0
20006458:	6078      	str	r0, [r7, #4]
2000645a:	460b      	mov	r3, r1
2000645c:	70fb      	strb	r3, [r7, #3]
  /* Check the parameters */
  assert_param(IS_TIM_LIST4_PERIPH(TIMx));
  assert_param(IS_FUNCTIONAL_STATE(NewState));

  if (NewState != DISABLE)
2000645e:	78fb      	ldrb	r3, [r7, #3]
20006460:	2b00      	cmp	r3, #0
20006462:	d008      	beq.n	20006476 <TIM_SelectCOM+0x24>
  {
    /* Set the COM Bit */
    TIMx->CR2 |= TIM_CR2_CCUS;
20006464:	687b      	ldr	r3, [r7, #4]
20006466:	889b      	ldrh	r3, [r3, #4]
20006468:	b29b      	uxth	r3, r3
2000646a:	f043 0304 	orr.w	r3, r3, #4
2000646e:	b29a      	uxth	r2, r3
20006470:	687b      	ldr	r3, [r7, #4]
20006472:	809a      	strh	r2, [r3, #4]
  else
  {
    /* Reset the COM Bit */
    TIMx->CR2 &= (uint16_t)~TIM_CR2_CCUS;
  }
}
20006474:	e007      	b.n	20006486 <TIM_SelectCOM+0x34>
    TIMx->CR2 &= (uint16_t)~TIM_CR2_CCUS;
20006476:	687b      	ldr	r3, [r7, #4]
20006478:	889b      	ldrh	r3, [r3, #4]
2000647a:	b29b      	uxth	r3, r3
2000647c:	f023 0304 	bic.w	r3, r3, #4
20006480:	b29a      	uxth	r2, r3
20006482:	687b      	ldr	r3, [r7, #4]
20006484:	809a      	strh	r2, [r3, #4]
}
20006486:	bf00      	nop
20006488:	370c      	adds	r7, #12
2000648a:	46bd      	mov	sp, r7
2000648c:	f85d 7b04 	ldr.w	r7, [sp], #4
20006490:	4770      	bx	lr

20006492 <TIM_CCPreloadControl>:
  * @param  NewState: new state of the Capture Compare Preload Control bit
  *          This parameter can be: ENABLE or DISABLE.
  * @retval None
  */
void TIM_CCPreloadControl(TIM_TypeDef* TIMx, FunctionalState NewState)
{ 
20006492:	b480      	push	{r7}
20006494:	b083      	sub	sp, #12
20006496:	af00      	add	r7, sp, #0
20006498:	6078      	str	r0, [r7, #4]
2000649a:	460b      	mov	r3, r1
2000649c:	70fb      	strb	r3, [r7, #3]
  /* Check the parameters */
  assert_param(IS_TIM_LIST4_PERIPH(TIMx));
  assert_param(IS_FUNCTIONAL_STATE(NewState));
  if (NewState != DISABLE)
2000649e:	78fb      	ldrb	r3, [r7, #3]
200064a0:	2b00      	cmp	r3, #0
200064a2:	d008      	beq.n	200064b6 <TIM_CCPreloadControl+0x24>
  {
    /* Set the CCPC Bit */
    TIMx->CR2 |= TIM_CR2_CCPC;
200064a4:	687b      	ldr	r3, [r7, #4]
200064a6:	889b      	ldrh	r3, [r3, #4]
200064a8:	b29b      	uxth	r3, r3
200064aa:	f043 0301 	orr.w	r3, r3, #1
200064ae:	b29a      	uxth	r2, r3
200064b0:	687b      	ldr	r3, [r7, #4]
200064b2:	809a      	strh	r2, [r3, #4]
  else
  {
    /* Reset the CCPC Bit */
    TIMx->CR2 &= (uint16_t)~TIM_CR2_CCPC;
  }
}
200064b4:	e007      	b.n	200064c6 <TIM_CCPreloadControl+0x34>
    TIMx->CR2 &= (uint16_t)~TIM_CR2_CCPC;
200064b6:	687b      	ldr	r3, [r7, #4]
200064b8:	889b      	ldrh	r3, [r3, #4]
200064ba:	b29b      	uxth	r3, r3
200064bc:	f023 0301 	bic.w	r3, r3, #1
200064c0:	b29a      	uxth	r2, r3
200064c2:	687b      	ldr	r3, [r7, #4]
200064c4:	809a      	strh	r2, [r3, #4]
}
200064c6:	bf00      	nop
200064c8:	370c      	adds	r7, #12
200064ca:	46bd      	mov	sp, r7
200064cc:	f85d 7b04 	ldr.w	r7, [sp], #4
200064d0:	4770      	bx	lr

200064d2 <TIM_ITConfig>:
  * @param  NewState: new state of the TIM interrupts.
  *          This parameter can be: ENABLE or DISABLE.
  * @retval None
  */
void TIM_ITConfig(TIM_TypeDef* TIMx, uint16_t TIM_IT, FunctionalState NewState)
{  
200064d2:	b480      	push	{r7}
200064d4:	b083      	sub	sp, #12
200064d6:	af00      	add	r7, sp, #0
200064d8:	6078      	str	r0, [r7, #4]
200064da:	460b      	mov	r3, r1
200064dc:	807b      	strh	r3, [r7, #2]
200064de:	4613      	mov	r3, r2
200064e0:	707b      	strb	r3, [r7, #1]
  /* Check the parameters */
  assert_param(IS_TIM_ALL_PERIPH(TIMx));
  assert_param(IS_TIM_IT(TIM_IT));
  assert_param(IS_FUNCTIONAL_STATE(NewState));
  
  if (NewState != DISABLE)
200064e2:	787b      	ldrb	r3, [r7, #1]
200064e4:	2b00      	cmp	r3, #0
200064e6:	d008      	beq.n	200064fa <TIM_ITConfig+0x28>
  {
    /* Enable the Interrupt sources */
    TIMx->DIER |= TIM_IT;
200064e8:	687b      	ldr	r3, [r7, #4]
200064ea:	899b      	ldrh	r3, [r3, #12]
200064ec:	b29a      	uxth	r2, r3
200064ee:	887b      	ldrh	r3, [r7, #2]
200064f0:	4313      	orrs	r3, r2
200064f2:	b29a      	uxth	r2, r3
200064f4:	687b      	ldr	r3, [r7, #4]
200064f6:	819a      	strh	r2, [r3, #12]
  else
  {
    /* Disable the Interrupt sources */
    TIMx->DIER &= (uint16_t)~TIM_IT;
  }
}
200064f8:	e009      	b.n	2000650e <TIM_ITConfig+0x3c>
    TIMx->DIER &= (uint16_t)~TIM_IT;
200064fa:	687b      	ldr	r3, [r7, #4]
200064fc:	899b      	ldrh	r3, [r3, #12]
200064fe:	b29a      	uxth	r2, r3
20006500:	887b      	ldrh	r3, [r7, #2]
20006502:	43db      	mvns	r3, r3
20006504:	b29b      	uxth	r3, r3
20006506:	4013      	ands	r3, r2
20006508:	b29a      	uxth	r2, r3
2000650a:	687b      	ldr	r3, [r7, #4]
2000650c:	819a      	strh	r2, [r3, #12]
}
2000650e:	bf00      	nop
20006510:	370c      	adds	r7, #12
20006512:	46bd      	mov	sp, r7
20006514:	f85d 7b04 	ldr.w	r7, [sp], #4
20006518:	4770      	bx	lr

2000651a <TIM_GenerateEvent>:
  * @note   TIM_EventSource_COM and TIM_EventSource_Break are used only with TIM1 and TIM8.
  *        
  * @retval None
  */
void TIM_GenerateEvent(TIM_TypeDef* TIMx, uint16_t TIM_EventSource)
{ 
2000651a:	b480      	push	{r7}
2000651c:	b083      	sub	sp, #12
2000651e:	af00      	add	r7, sp, #0
20006520:	6078      	str	r0, [r7, #4]
20006522:	460b      	mov	r3, r1
20006524:	807b      	strh	r3, [r7, #2]
  /* Check the parameters */
  assert_param(IS_TIM_ALL_PERIPH(TIMx));
  assert_param(IS_TIM_EVENT_SOURCE(TIM_EventSource));
 
  /* Set the event sources */
  TIMx->EGR = TIM_EventSource;
20006526:	687b      	ldr	r3, [r7, #4]
20006528:	887a      	ldrh	r2, [r7, #2]
2000652a:	829a      	strh	r2, [r3, #20]
}
2000652c:	bf00      	nop
2000652e:	370c      	adds	r7, #12
20006530:	46bd      	mov	sp, r7
20006532:	f85d 7b04 	ldr.w	r7, [sp], #4
20006536:	4770      	bx	lr

20006538 <TIM_GetFlagStatus>:
  * @note   TIM_FLAG_COM and TIM_FLAG_Break are used only with TIM1 and TIM8.    
  *
  * @retval The new state of TIM_FLAG (SET or RESET).
  */
FlagStatus TIM_GetFlagStatus(TIM_TypeDef* TIMx, uint16_t TIM_FLAG)
{ 
20006538:	b480      	push	{r7}
2000653a:	b085      	sub	sp, #20
2000653c:	af00      	add	r7, sp, #0
2000653e:	6078      	str	r0, [r7, #4]
20006540:	460b      	mov	r3, r1
20006542:	807b      	strh	r3, [r7, #2]
  ITStatus bitstatus = RESET;  
20006544:	2300      	movs	r3, #0
20006546:	73fb      	strb	r3, [r7, #15]
  /* Check the parameters */
  assert_param(IS_TIM_ALL_PERIPH(TIMx));
  assert_param(IS_TIM_GET_FLAG(TIM_FLAG));

  
  if ((TIMx->SR & TIM_FLAG) != (uint16_t)RESET)
20006548:	687b      	ldr	r3, [r7, #4]
2000654a:	8a1b      	ldrh	r3, [r3, #16]
2000654c:	b29a      	uxth	r2, r3
2000654e:	887b      	ldrh	r3, [r7, #2]
20006550:	4013      	ands	r3, r2
20006552:	b29b      	uxth	r3, r3
20006554:	2b00      	cmp	r3, #0
20006556:	d002      	beq.n	2000655e <TIM_GetFlagStatus+0x26>
  {
    bitstatus = SET;
20006558:	2301      	movs	r3, #1
2000655a:	73fb      	strb	r3, [r7, #15]
2000655c:	e001      	b.n	20006562 <TIM_GetFlagStatus+0x2a>
  }
  else
  {
    bitstatus = RESET;
2000655e:	2300      	movs	r3, #0
20006560:	73fb      	strb	r3, [r7, #15]
  }
  return bitstatus;
20006562:	7bfb      	ldrb	r3, [r7, #15]
}
20006564:	4618      	mov	r0, r3
20006566:	3714      	adds	r7, #20
20006568:	46bd      	mov	sp, r7
2000656a:	f85d 7b04 	ldr.w	r7, [sp], #4
2000656e:	4770      	bx	lr

20006570 <TIM_ClearFlag>:
  * @note   TIM_FLAG_COM and TIM_FLAG_Break are used only with TIM1 and TIM8.
  *    
  * @retval None
  */
void TIM_ClearFlag(TIM_TypeDef* TIMx, uint16_t TIM_FLAG)
{  
20006570:	b480      	push	{r7}
20006572:	b083      	sub	sp, #12
20006574:	af00      	add	r7, sp, #0
20006576:	6078      	str	r0, [r7, #4]
20006578:	460b      	mov	r3, r1
2000657a:	807b      	strh	r3, [r7, #2]
  /* Check the parameters */
  assert_param(IS_TIM_ALL_PERIPH(TIMx));
   
  /* Clear the flags */
  TIMx->SR = (uint16_t)~TIM_FLAG;
2000657c:	887b      	ldrh	r3, [r7, #2]
2000657e:	43db      	mvns	r3, r3
20006580:	b29a      	uxth	r2, r3
20006582:	687b      	ldr	r3, [r7, #4]
20006584:	821a      	strh	r2, [r3, #16]
}
20006586:	bf00      	nop
20006588:	370c      	adds	r7, #12
2000658a:	46bd      	mov	sp, r7
2000658c:	f85d 7b04 	ldr.w	r7, [sp], #4
20006590:	4770      	bx	lr

20006592 <TIM_GetITStatus>:
  * @note   TIM_IT_COM and TIM_IT_Break are used only with TIM1 and TIM8.
  *     
  * @retval The new state of the TIM_IT(SET or RESET).
  */
ITStatus TIM_GetITStatus(TIM_TypeDef* TIMx, uint16_t TIM_IT)
{
20006592:	b480      	push	{r7}
20006594:	b085      	sub	sp, #20
20006596:	af00      	add	r7, sp, #0
20006598:	6078      	str	r0, [r7, #4]
2000659a:	460b      	mov	r3, r1
2000659c:	807b      	strh	r3, [r7, #2]
  ITStatus bitstatus = RESET;  
2000659e:	2300      	movs	r3, #0
200065a0:	73fb      	strb	r3, [r7, #15]
  uint16_t itstatus = 0x0, itenable = 0x0;
200065a2:	2300      	movs	r3, #0
200065a4:	81bb      	strh	r3, [r7, #12]
200065a6:	2300      	movs	r3, #0
200065a8:	817b      	strh	r3, [r7, #10]
  /* Check the parameters */
  assert_param(IS_TIM_ALL_PERIPH(TIMx));
  assert_param(IS_TIM_GET_IT(TIM_IT));
   
  itstatus = TIMx->SR & TIM_IT;
200065aa:	687b      	ldr	r3, [r7, #4]
200065ac:	8a1b      	ldrh	r3, [r3, #16]
200065ae:	b29a      	uxth	r2, r3
200065b0:	887b      	ldrh	r3, [r7, #2]
200065b2:	4013      	ands	r3, r2
200065b4:	81bb      	strh	r3, [r7, #12]
  
  itenable = TIMx->DIER & TIM_IT;
200065b6:	687b      	ldr	r3, [r7, #4]
200065b8:	899b      	ldrh	r3, [r3, #12]
200065ba:	b29a      	uxth	r2, r3
200065bc:	887b      	ldrh	r3, [r7, #2]
200065be:	4013      	ands	r3, r2
200065c0:	817b      	strh	r3, [r7, #10]
  if ((itstatus != (uint16_t)RESET) && (itenable != (uint16_t)RESET))
200065c2:	89bb      	ldrh	r3, [r7, #12]
200065c4:	2b00      	cmp	r3, #0
200065c6:	d005      	beq.n	200065d4 <TIM_GetITStatus+0x42>
200065c8:	897b      	ldrh	r3, [r7, #10]
200065ca:	2b00      	cmp	r3, #0
200065cc:	d002      	beq.n	200065d4 <TIM_GetITStatus+0x42>
  {
    bitstatus = SET;
200065ce:	2301      	movs	r3, #1
200065d0:	73fb      	strb	r3, [r7, #15]
200065d2:	e001      	b.n	200065d8 <TIM_GetITStatus+0x46>
  }
  else
  {
    bitstatus = RESET;
200065d4:	2300      	movs	r3, #0
200065d6:	73fb      	strb	r3, [r7, #15]
  }
  return bitstatus;
200065d8:	7bfb      	ldrb	r3, [r7, #15]
}
200065da:	4618      	mov	r0, r3
200065dc:	3714      	adds	r7, #20
200065de:	46bd      	mov	sp, r7
200065e0:	f85d 7b04 	ldr.w	r7, [sp], #4
200065e4:	4770      	bx	lr

200065e6 <TIM_ClearITPendingBit>:
  * @note   TIM_IT_COM and TIM_IT_Break are used only with TIM1 and TIM8.
  *      
  * @retval None
  */
void TIM_ClearITPendingBit(TIM_TypeDef* TIMx, uint16_t TIM_IT)
{
200065e6:	b480      	push	{r7}
200065e8:	b083      	sub	sp, #12
200065ea:	af00      	add	r7, sp, #0
200065ec:	6078      	str	r0, [r7, #4]
200065ee:	460b      	mov	r3, r1
200065f0:	807b      	strh	r3, [r7, #2]
  /* Check the parameters */
  assert_param(IS_TIM_ALL_PERIPH(TIMx));

  /* Clear the IT pending Bit */
  TIMx->SR = (uint16_t)~TIM_IT;
200065f2:	887b      	ldrh	r3, [r7, #2]
200065f4:	43db      	mvns	r3, r3
200065f6:	b29a      	uxth	r2, r3
200065f8:	687b      	ldr	r3, [r7, #4]
200065fa:	821a      	strh	r2, [r3, #16]
}
200065fc:	bf00      	nop
200065fe:	370c      	adds	r7, #12
20006600:	46bd      	mov	sp, r7
20006602:	f85d 7b04 	ldr.w	r7, [sp], #4
20006606:	4770      	bx	lr

20006608 <TIM_DMAConfig>:
  * @param  TIM_DMABurstLength: DMA Burst length. This parameter can be one value
  *         between: TIM_DMABurstLength_1Transfer and TIM_DMABurstLength_18Transfers.
  * @retval None
  */
void TIM_DMAConfig(TIM_TypeDef* TIMx, uint16_t TIM_DMABase, uint16_t TIM_DMABurstLength)
{
20006608:	b480      	push	{r7}
2000660a:	b083      	sub	sp, #12
2000660c:	af00      	add	r7, sp, #0
2000660e:	6078      	str	r0, [r7, #4]
20006610:	460b      	mov	r3, r1
20006612:	807b      	strh	r3, [r7, #2]
20006614:	4613      	mov	r3, r2
20006616:	803b      	strh	r3, [r7, #0]
  assert_param(IS_TIM_LIST3_PERIPH(TIMx));
  assert_param(IS_TIM_DMA_BASE(TIM_DMABase)); 
  assert_param(IS_TIM_DMA_LENGTH(TIM_DMABurstLength));

  /* Set the DMA Base and the DMA Burst Length */
  TIMx->DCR = TIM_DMABase | TIM_DMABurstLength;
20006618:	887a      	ldrh	r2, [r7, #2]
2000661a:	883b      	ldrh	r3, [r7, #0]
2000661c:	4313      	orrs	r3, r2
2000661e:	b29a      	uxth	r2, r3
20006620:	687b      	ldr	r3, [r7, #4]
20006622:	f8a3 2048 	strh.w	r2, [r3, #72]	@ 0x48
}
20006626:	bf00      	nop
20006628:	370c      	adds	r7, #12
2000662a:	46bd      	mov	sp, r7
2000662c:	f85d 7b04 	ldr.w	r7, [sp], #4
20006630:	4770      	bx	lr

20006632 <TIM_DMACmd>:
  * @param  NewState: new state of the DMA Request sources.
  *          This parameter can be: ENABLE or DISABLE.
  * @retval None
  */
void TIM_DMACmd(TIM_TypeDef* TIMx, uint16_t TIM_DMASource, FunctionalState NewState)
{ 
20006632:	b480      	push	{r7}
20006634:	b083      	sub	sp, #12
20006636:	af00      	add	r7, sp, #0
20006638:	6078      	str	r0, [r7, #4]
2000663a:	460b      	mov	r3, r1
2000663c:	807b      	strh	r3, [r7, #2]
2000663e:	4613      	mov	r3, r2
20006640:	707b      	strb	r3, [r7, #1]
  /* Check the parameters */
  assert_param(IS_TIM_LIST5_PERIPH(TIMx)); 
  assert_param(IS_TIM_DMA_SOURCE(TIM_DMASource));
  assert_param(IS_FUNCTIONAL_STATE(NewState));
  
  if (NewState != DISABLE)
20006642:	787b      	ldrb	r3, [r7, #1]
20006644:	2b00      	cmp	r3, #0
20006646:	d008      	beq.n	2000665a <TIM_DMACmd+0x28>
  {
    /* Enable the DMA sources */
    TIMx->DIER |= TIM_DMASource; 
20006648:	687b      	ldr	r3, [r7, #4]
2000664a:	899b      	ldrh	r3, [r3, #12]
2000664c:	b29a      	uxth	r2, r3
2000664e:	887b      	ldrh	r3, [r7, #2]
20006650:	4313      	orrs	r3, r2
20006652:	b29a      	uxth	r2, r3
20006654:	687b      	ldr	r3, [r7, #4]
20006656:	819a      	strh	r2, [r3, #12]
  else
  {
    /* Disable the DMA sources */
    TIMx->DIER &= (uint16_t)~TIM_DMASource;
  }
}
20006658:	e009      	b.n	2000666e <TIM_DMACmd+0x3c>
    TIMx->DIER &= (uint16_t)~TIM_DMASource;
2000665a:	687b      	ldr	r3, [r7, #4]
2000665c:	899b      	ldrh	r3, [r3, #12]
2000665e:	b29a      	uxth	r2, r3
20006660:	887b      	ldrh	r3, [r7, #2]
20006662:	43db      	mvns	r3, r3
20006664:	b29b      	uxth	r3, r3
20006666:	4013      	ands	r3, r2
20006668:	b29a      	uxth	r2, r3
2000666a:	687b      	ldr	r3, [r7, #4]
2000666c:	819a      	strh	r2, [r3, #12]
}
2000666e:	bf00      	nop
20006670:	370c      	adds	r7, #12
20006672:	46bd      	mov	sp, r7
20006674:	f85d 7b04 	ldr.w	r7, [sp], #4
20006678:	4770      	bx	lr

2000667a <TIM_SelectCCDMA>:
  * @param  NewState: new state of the Capture Compare DMA source
  *          This parameter can be: ENABLE or DISABLE.
  * @retval None
  */
void TIM_SelectCCDMA(TIM_TypeDef* TIMx, FunctionalState NewState)
{
2000667a:	b480      	push	{r7}
2000667c:	b083      	sub	sp, #12
2000667e:	af00      	add	r7, sp, #0
20006680:	6078      	str	r0, [r7, #4]
20006682:	460b      	mov	r3, r1
20006684:	70fb      	strb	r3, [r7, #3]
  /* Check the parameters */
  assert_param(IS_TIM_LIST3_PERIPH(TIMx));
  assert_param(IS_FUNCTIONAL_STATE(NewState));

  if (NewState != DISABLE)
20006686:	78fb      	ldrb	r3, [r7, #3]
20006688:	2b00      	cmp	r3, #0
2000668a:	d008      	beq.n	2000669e <TIM_SelectCCDMA+0x24>
  {
    /* Set the CCDS Bit */
    TIMx->CR2 |= TIM_CR2_CCDS;
2000668c:	687b      	ldr	r3, [r7, #4]
2000668e:	889b      	ldrh	r3, [r3, #4]
20006690:	b29b      	uxth	r3, r3
20006692:	f043 0308 	orr.w	r3, r3, #8
20006696:	b29a      	uxth	r2, r3
20006698:	687b      	ldr	r3, [r7, #4]
2000669a:	809a      	strh	r2, [r3, #4]
  else
  {
    /* Reset the CCDS Bit */
    TIMx->CR2 &= (uint16_t)~TIM_CR2_CCDS;
  }
}
2000669c:	e007      	b.n	200066ae <TIM_SelectCCDMA+0x34>
    TIMx->CR2 &= (uint16_t)~TIM_CR2_CCDS;
2000669e:	687b      	ldr	r3, [r7, #4]
200066a0:	889b      	ldrh	r3, [r3, #4]
200066a2:	b29b      	uxth	r3, r3
200066a4:	f023 0308 	bic.w	r3, r3, #8
200066a8:	b29a      	uxth	r2, r3
200066aa:	687b      	ldr	r3, [r7, #4]
200066ac:	809a      	strh	r2, [r3, #4]
}
200066ae:	bf00      	nop
200066b0:	370c      	adds	r7, #12
200066b2:	46bd      	mov	sp, r7
200066b4:	f85d 7b04 	ldr.w	r7, [sp], #4
200066b8:	4770      	bx	lr

200066ba <TIM_InternalClockConfig>:
  * @param  TIMx: where x can be 1, 2, 3, 4, 5, 8, 9 or 12 to select the TIM 
  *         peripheral.
  * @retval None
  */
void TIM_InternalClockConfig(TIM_TypeDef* TIMx)
{
200066ba:	b480      	push	{r7}
200066bc:	b083      	sub	sp, #12
200066be:	af00      	add	r7, sp, #0
200066c0:	6078      	str	r0, [r7, #4]
  /* Check the parameters */
  assert_param(IS_TIM_LIST2_PERIPH(TIMx));

  /* Disable slave mode to clock the prescaler directly with the internal clock */
  TIMx->SMCR &=  (uint16_t)~TIM_SMCR_SMS;
200066c2:	687b      	ldr	r3, [r7, #4]
200066c4:	891b      	ldrh	r3, [r3, #8]
200066c6:	b29b      	uxth	r3, r3
200066c8:	f023 0307 	bic.w	r3, r3, #7
200066cc:	b29a      	uxth	r2, r3
200066ce:	687b      	ldr	r3, [r7, #4]
200066d0:	811a      	strh	r2, [r3, #8]
}
200066d2:	bf00      	nop
200066d4:	370c      	adds	r7, #12
200066d6:	46bd      	mov	sp, r7
200066d8:	f85d 7b04 	ldr.w	r7, [sp], #4
200066dc:	4770      	bx	lr

200066de <TIM_ITRxExternalClockConfig>:
  *            @arg TIM_TS_ITR2: Internal Trigger 2
  *            @arg TIM_TS_ITR3: Internal Trigger 3
  * @retval None
  */
void TIM_ITRxExternalClockConfig(TIM_TypeDef* TIMx, uint16_t TIM_InputTriggerSource)
{
200066de:	b580      	push	{r7, lr}
200066e0:	b082      	sub	sp, #8
200066e2:	af00      	add	r7, sp, #0
200066e4:	6078      	str	r0, [r7, #4]
200066e6:	460b      	mov	r3, r1
200066e8:	807b      	strh	r3, [r7, #2]
  /* Check the parameters */
  assert_param(IS_TIM_LIST2_PERIPH(TIMx));
  assert_param(IS_TIM_INTERNAL_TRIGGER_SELECTION(TIM_InputTriggerSource));

  /* Select the Internal Trigger */
  TIM_SelectInputTrigger(TIMx, TIM_InputTriggerSource);
200066ea:	887b      	ldrh	r3, [r7, #2]
200066ec:	4619      	mov	r1, r3
200066ee:	6878      	ldr	r0, [r7, #4]
200066f0:	f000 f888 	bl	20006804 <TIM_SelectInputTrigger>

  /* Select the External clock mode1 */
  TIMx->SMCR |= TIM_SlaveMode_External1;
200066f4:	687b      	ldr	r3, [r7, #4]
200066f6:	891b      	ldrh	r3, [r3, #8]
200066f8:	b29b      	uxth	r3, r3
200066fa:	f043 0307 	orr.w	r3, r3, #7
200066fe:	b29a      	uxth	r2, r3
20006700:	687b      	ldr	r3, [r7, #4]
20006702:	811a      	strh	r2, [r3, #8]
}
20006704:	bf00      	nop
20006706:	3708      	adds	r7, #8
20006708:	46bd      	mov	sp, r7
2000670a:	bd80      	pop	{r7, pc}

2000670c <TIM_TIxExternalClockConfig>:
  *          This parameter must be a value between 0x0 and 0xF.
  * @retval None
  */
void TIM_TIxExternalClockConfig(TIM_TypeDef* TIMx, uint16_t TIM_TIxExternalCLKSource,
                                uint16_t TIM_ICPolarity, uint16_t ICFilter)
{
2000670c:	b580      	push	{r7, lr}
2000670e:	b084      	sub	sp, #16
20006710:	af00      	add	r7, sp, #0
20006712:	60f8      	str	r0, [r7, #12]
20006714:	4608      	mov	r0, r1
20006716:	4611      	mov	r1, r2
20006718:	461a      	mov	r2, r3
2000671a:	4603      	mov	r3, r0
2000671c:	817b      	strh	r3, [r7, #10]
2000671e:	460b      	mov	r3, r1
20006720:	813b      	strh	r3, [r7, #8]
20006722:	4613      	mov	r3, r2
20006724:	80fb      	strh	r3, [r7, #6]
  assert_param(IS_TIM_LIST1_PERIPH(TIMx));
  assert_param(IS_TIM_IC_POLARITY(TIM_ICPolarity));
  assert_param(IS_TIM_IC_FILTER(ICFilter));

  /* Configure the Timer Input Clock Source */
  if (TIM_TIxExternalCLKSource == TIM_TIxExternalCLK1Source_TI2)
20006726:	897b      	ldrh	r3, [r7, #10]
20006728:	2b60      	cmp	r3, #96	@ 0x60
2000672a:	d106      	bne.n	2000673a <TIM_TIxExternalClockConfig+0x2e>
  {
    TI2_Config(TIMx, TIM_ICPolarity, TIM_ICSelection_DirectTI, ICFilter);
2000672c:	88fb      	ldrh	r3, [r7, #6]
2000672e:	8939      	ldrh	r1, [r7, #8]
20006730:	2201      	movs	r2, #1
20006732:	68f8      	ldr	r0, [r7, #12]
20006734:	f000 f9bf 	bl	20006ab6 <TI2_Config>
20006738:	e005      	b.n	20006746 <TIM_TIxExternalClockConfig+0x3a>
  }
  else
  {
    TI1_Config(TIMx, TIM_ICPolarity, TIM_ICSelection_DirectTI, ICFilter);
2000673a:	88fb      	ldrh	r3, [r7, #6]
2000673c:	8939      	ldrh	r1, [r7, #8]
2000673e:	2201      	movs	r2, #1
20006740:	68f8      	ldr	r0, [r7, #12]
20006742:	f000 f975 	bl	20006a30 <TI1_Config>
  }
  /* Select the Trigger source */
  TIM_SelectInputTrigger(TIMx, TIM_TIxExternalCLKSource);
20006746:	897b      	ldrh	r3, [r7, #10]
20006748:	4619      	mov	r1, r3
2000674a:	68f8      	ldr	r0, [r7, #12]
2000674c:	f000 f85a 	bl	20006804 <TIM_SelectInputTrigger>
  /* Select the External clock mode1 */
  TIMx->SMCR |= TIM_SlaveMode_External1;
20006750:	68fb      	ldr	r3, [r7, #12]
20006752:	891b      	ldrh	r3, [r3, #8]
20006754:	b29b      	uxth	r3, r3
20006756:	f043 0307 	orr.w	r3, r3, #7
2000675a:	b29a      	uxth	r2, r3
2000675c:	68fb      	ldr	r3, [r7, #12]
2000675e:	811a      	strh	r2, [r3, #8]
}
20006760:	bf00      	nop
20006762:	3710      	adds	r7, #16
20006764:	46bd      	mov	sp, r7
20006766:	bd80      	pop	{r7, pc}

20006768 <TIM_ETRClockMode1Config>:
  *          This parameter must be a value between 0x00 and 0x0F
  * @retval None
  */
void TIM_ETRClockMode1Config(TIM_TypeDef* TIMx, uint16_t TIM_ExtTRGPrescaler,
                            uint16_t TIM_ExtTRGPolarity, uint16_t ExtTRGFilter)
{
20006768:	b580      	push	{r7, lr}
2000676a:	b086      	sub	sp, #24
2000676c:	af00      	add	r7, sp, #0
2000676e:	60f8      	str	r0, [r7, #12]
20006770:	4608      	mov	r0, r1
20006772:	4611      	mov	r1, r2
20006774:	461a      	mov	r2, r3
20006776:	4603      	mov	r3, r0
20006778:	817b      	strh	r3, [r7, #10]
2000677a:	460b      	mov	r3, r1
2000677c:	813b      	strh	r3, [r7, #8]
2000677e:	4613      	mov	r3, r2
20006780:	80fb      	strh	r3, [r7, #6]
  uint16_t tmpsmcr = 0;
20006782:	2300      	movs	r3, #0
20006784:	82fb      	strh	r3, [r7, #22]
  assert_param(IS_TIM_LIST3_PERIPH(TIMx));
  assert_param(IS_TIM_EXT_PRESCALER(TIM_ExtTRGPrescaler));
  assert_param(IS_TIM_EXT_POLARITY(TIM_ExtTRGPolarity));
  assert_param(IS_TIM_EXT_FILTER(ExtTRGFilter));
  /* Configure the ETR Clock source */
  TIM_ETRConfig(TIMx, TIM_ExtTRGPrescaler, TIM_ExtTRGPolarity, ExtTRGFilter);
20006786:	88fb      	ldrh	r3, [r7, #6]
20006788:	893a      	ldrh	r2, [r7, #8]
2000678a:	8979      	ldrh	r1, [r7, #10]
2000678c:	68f8      	ldr	r0, [r7, #12]
2000678e:	f000 f8a9 	bl	200068e4 <TIM_ETRConfig>
  
  /* Get the TIMx SMCR register value */
  tmpsmcr = TIMx->SMCR;
20006792:	68fb      	ldr	r3, [r7, #12]
20006794:	891b      	ldrh	r3, [r3, #8]
20006796:	82fb      	strh	r3, [r7, #22]

  /* Reset the SMS Bits */
  tmpsmcr &= (uint16_t)~TIM_SMCR_SMS;
20006798:	8afb      	ldrh	r3, [r7, #22]
2000679a:	f023 0307 	bic.w	r3, r3, #7
2000679e:	82fb      	strh	r3, [r7, #22]

  /* Select the External clock mode1 */
  tmpsmcr |= TIM_SlaveMode_External1;
200067a0:	8afb      	ldrh	r3, [r7, #22]
200067a2:	f043 0307 	orr.w	r3, r3, #7
200067a6:	82fb      	strh	r3, [r7, #22]

  /* Select the Trigger selection : ETRF */
  tmpsmcr &= (uint16_t)~TIM_SMCR_TS;
200067a8:	8afb      	ldrh	r3, [r7, #22]
200067aa:	f023 0370 	bic.w	r3, r3, #112	@ 0x70
200067ae:	82fb      	strh	r3, [r7, #22]
  tmpsmcr |= TIM_TS_ETRF;
200067b0:	8afb      	ldrh	r3, [r7, #22]
200067b2:	f043 0370 	orr.w	r3, r3, #112	@ 0x70
200067b6:	82fb      	strh	r3, [r7, #22]

  /* Write to TIMx SMCR */
  TIMx->SMCR = tmpsmcr;
200067b8:	68fb      	ldr	r3, [r7, #12]
200067ba:	8afa      	ldrh	r2, [r7, #22]
200067bc:	811a      	strh	r2, [r3, #8]
}
200067be:	bf00      	nop
200067c0:	3718      	adds	r7, #24
200067c2:	46bd      	mov	sp, r7
200067c4:	bd80      	pop	{r7, pc}

200067c6 <TIM_ETRClockMode2Config>:
  *          This parameter must be a value between 0x00 and 0x0F
  * @retval None
  */
void TIM_ETRClockMode2Config(TIM_TypeDef* TIMx, uint16_t TIM_ExtTRGPrescaler, 
                             uint16_t TIM_ExtTRGPolarity, uint16_t ExtTRGFilter)
{
200067c6:	b580      	push	{r7, lr}
200067c8:	b084      	sub	sp, #16
200067ca:	af00      	add	r7, sp, #0
200067cc:	60f8      	str	r0, [r7, #12]
200067ce:	4608      	mov	r0, r1
200067d0:	4611      	mov	r1, r2
200067d2:	461a      	mov	r2, r3
200067d4:	4603      	mov	r3, r0
200067d6:	817b      	strh	r3, [r7, #10]
200067d8:	460b      	mov	r3, r1
200067da:	813b      	strh	r3, [r7, #8]
200067dc:	4613      	mov	r3, r2
200067de:	80fb      	strh	r3, [r7, #6]
  assert_param(IS_TIM_EXT_PRESCALER(TIM_ExtTRGPrescaler));
  assert_param(IS_TIM_EXT_POLARITY(TIM_ExtTRGPolarity));
  assert_param(IS_TIM_EXT_FILTER(ExtTRGFilter));

  /* Configure the ETR Clock source */
  TIM_ETRConfig(TIMx, TIM_ExtTRGPrescaler, TIM_ExtTRGPolarity, ExtTRGFilter);
200067e0:	88fb      	ldrh	r3, [r7, #6]
200067e2:	893a      	ldrh	r2, [r7, #8]
200067e4:	8979      	ldrh	r1, [r7, #10]
200067e6:	68f8      	ldr	r0, [r7, #12]
200067e8:	f000 f87c 	bl	200068e4 <TIM_ETRConfig>

  /* Enable the External clock mode2 */
  TIMx->SMCR |= TIM_SMCR_ECE;
200067ec:	68fb      	ldr	r3, [r7, #12]
200067ee:	891b      	ldrh	r3, [r3, #8]
200067f0:	b29b      	uxth	r3, r3
200067f2:	f443 4380 	orr.w	r3, r3, #16384	@ 0x4000
200067f6:	b29a      	uxth	r2, r3
200067f8:	68fb      	ldr	r3, [r7, #12]
200067fa:	811a      	strh	r2, [r3, #8]
}
200067fc:	bf00      	nop
200067fe:	3710      	adds	r7, #16
20006800:	46bd      	mov	sp, r7
20006802:	bd80      	pop	{r7, pc}

20006804 <TIM_SelectInputTrigger>:
  *            @arg TIM_TS_TI2FP2: Filtered Timer Input 2
  *            @arg TIM_TS_ETRF: External Trigger input
  * @retval None
  */
void TIM_SelectInputTrigger(TIM_TypeDef* TIMx, uint16_t TIM_InputTriggerSource)
{
20006804:	b480      	push	{r7}
20006806:	b085      	sub	sp, #20
20006808:	af00      	add	r7, sp, #0
2000680a:	6078      	str	r0, [r7, #4]
2000680c:	460b      	mov	r3, r1
2000680e:	807b      	strh	r3, [r7, #2]
  uint16_t tmpsmcr = 0;
20006810:	2300      	movs	r3, #0
20006812:	81fb      	strh	r3, [r7, #14]
  /* Check the parameters */
  assert_param(IS_TIM_LIST1_PERIPH(TIMx)); 
  assert_param(IS_TIM_TRIGGER_SELECTION(TIM_InputTriggerSource));

  /* Get the TIMx SMCR register value */
  tmpsmcr = TIMx->SMCR;
20006814:	687b      	ldr	r3, [r7, #4]
20006816:	891b      	ldrh	r3, [r3, #8]
20006818:	81fb      	strh	r3, [r7, #14]

  /* Reset the TS Bits */
  tmpsmcr &= (uint16_t)~TIM_SMCR_TS;
2000681a:	89fb      	ldrh	r3, [r7, #14]
2000681c:	f023 0370 	bic.w	r3, r3, #112	@ 0x70
20006820:	81fb      	strh	r3, [r7, #14]

  /* Set the Input Trigger source */
  tmpsmcr |= TIM_InputTriggerSource;
20006822:	89fa      	ldrh	r2, [r7, #14]
20006824:	887b      	ldrh	r3, [r7, #2]
20006826:	4313      	orrs	r3, r2
20006828:	81fb      	strh	r3, [r7, #14]

  /* Write to TIMx SMCR */
  TIMx->SMCR = tmpsmcr;
2000682a:	687b      	ldr	r3, [r7, #4]
2000682c:	89fa      	ldrh	r2, [r7, #14]
2000682e:	811a      	strh	r2, [r3, #8]
}
20006830:	bf00      	nop
20006832:	3714      	adds	r7, #20
20006834:	46bd      	mov	sp, r7
20006836:	f85d 7b04 	ldr.w	r7, [sp], #4
2000683a:	4770      	bx	lr

2000683c <TIM_SelectOutputTrigger>:
  *            @arg TIM_TRGOSource_OC4Ref: OC4REF signal is used as the trigger output(TRGO)
  *
  * @retval None
  */
void TIM_SelectOutputTrigger(TIM_TypeDef* TIMx, uint16_t TIM_TRGOSource)
{
2000683c:	b480      	push	{r7}
2000683e:	b083      	sub	sp, #12
20006840:	af00      	add	r7, sp, #0
20006842:	6078      	str	r0, [r7, #4]
20006844:	460b      	mov	r3, r1
20006846:	807b      	strh	r3, [r7, #2]
  /* Check the parameters */
  assert_param(IS_TIM_LIST5_PERIPH(TIMx));
  assert_param(IS_TIM_TRGO_SOURCE(TIM_TRGOSource));

  /* Reset the MMS Bits */
  TIMx->CR2 &= (uint16_t)~TIM_CR2_MMS;
20006848:	687b      	ldr	r3, [r7, #4]
2000684a:	889b      	ldrh	r3, [r3, #4]
2000684c:	b29b      	uxth	r3, r3
2000684e:	f023 0370 	bic.w	r3, r3, #112	@ 0x70
20006852:	b29a      	uxth	r2, r3
20006854:	687b      	ldr	r3, [r7, #4]
20006856:	809a      	strh	r2, [r3, #4]
  /* Select the TRGO source */
  TIMx->CR2 |=  TIM_TRGOSource;
20006858:	687b      	ldr	r3, [r7, #4]
2000685a:	889b      	ldrh	r3, [r3, #4]
2000685c:	b29a      	uxth	r2, r3
2000685e:	887b      	ldrh	r3, [r7, #2]
20006860:	4313      	orrs	r3, r2
20006862:	b29a      	uxth	r2, r3
20006864:	687b      	ldr	r3, [r7, #4]
20006866:	809a      	strh	r2, [r3, #4]
}
20006868:	bf00      	nop
2000686a:	370c      	adds	r7, #12
2000686c:	46bd      	mov	sp, r7
2000686e:	f85d 7b04 	ldr.w	r7, [sp], #4
20006872:	4770      	bx	lr

20006874 <TIM_SelectSlaveMode>:
  *            @arg TIM_SlaveMode_Trigger:   The counter starts at a rising edge of the trigger TRGI
  *            @arg TIM_SlaveMode_External1: Rising edges of the selected trigger (TRGI) clock the counter
  * @retval None
  */
void TIM_SelectSlaveMode(TIM_TypeDef* TIMx, uint16_t TIM_SlaveMode)
{
20006874:	b480      	push	{r7}
20006876:	b083      	sub	sp, #12
20006878:	af00      	add	r7, sp, #0
2000687a:	6078      	str	r0, [r7, #4]
2000687c:	460b      	mov	r3, r1
2000687e:	807b      	strh	r3, [r7, #2]
  /* Check the parameters */
  assert_param(IS_TIM_LIST2_PERIPH(TIMx));
  assert_param(IS_TIM_SLAVE_MODE(TIM_SlaveMode));

  /* Reset the SMS Bits */
  TIMx->SMCR &= (uint16_t)~TIM_SMCR_SMS;
20006880:	687b      	ldr	r3, [r7, #4]
20006882:	891b      	ldrh	r3, [r3, #8]
20006884:	b29b      	uxth	r3, r3
20006886:	f023 0307 	bic.w	r3, r3, #7
2000688a:	b29a      	uxth	r2, r3
2000688c:	687b      	ldr	r3, [r7, #4]
2000688e:	811a      	strh	r2, [r3, #8]

  /* Select the Slave Mode */
  TIMx->SMCR |= TIM_SlaveMode;
20006890:	687b      	ldr	r3, [r7, #4]
20006892:	891b      	ldrh	r3, [r3, #8]
20006894:	b29a      	uxth	r2, r3
20006896:	887b      	ldrh	r3, [r7, #2]
20006898:	4313      	orrs	r3, r2
2000689a:	b29a      	uxth	r2, r3
2000689c:	687b      	ldr	r3, [r7, #4]
2000689e:	811a      	strh	r2, [r3, #8]
}
200068a0:	bf00      	nop
200068a2:	370c      	adds	r7, #12
200068a4:	46bd      	mov	sp, r7
200068a6:	f85d 7b04 	ldr.w	r7, [sp], #4
200068aa:	4770      	bx	lr

200068ac <TIM_SelectMasterSlaveMode>:
  *                                             and its slaves (through TRGO)
  *            @arg TIM_MasterSlaveMode_Disable: No action
  * @retval None
  */
void TIM_SelectMasterSlaveMode(TIM_TypeDef* TIMx, uint16_t TIM_MasterSlaveMode)
{
200068ac:	b480      	push	{r7}
200068ae:	b083      	sub	sp, #12
200068b0:	af00      	add	r7, sp, #0
200068b2:	6078      	str	r0, [r7, #4]
200068b4:	460b      	mov	r3, r1
200068b6:	807b      	strh	r3, [r7, #2]
  /* Check the parameters */
  assert_param(IS_TIM_LIST2_PERIPH(TIMx));
  assert_param(IS_TIM_MSM_STATE(TIM_MasterSlaveMode));

  /* Reset the MSM Bit */
  TIMx->SMCR &= (uint16_t)~TIM_SMCR_MSM;
200068b8:	687b      	ldr	r3, [r7, #4]
200068ba:	891b      	ldrh	r3, [r3, #8]
200068bc:	b29b      	uxth	r3, r3
200068be:	f023 0380 	bic.w	r3, r3, #128	@ 0x80
200068c2:	b29a      	uxth	r2, r3
200068c4:	687b      	ldr	r3, [r7, #4]
200068c6:	811a      	strh	r2, [r3, #8]
  
  /* Set or Reset the MSM Bit */
  TIMx->SMCR |= TIM_MasterSlaveMode;
200068c8:	687b      	ldr	r3, [r7, #4]
200068ca:	891b      	ldrh	r3, [r3, #8]
200068cc:	b29a      	uxth	r2, r3
200068ce:	887b      	ldrh	r3, [r7, #2]
200068d0:	4313      	orrs	r3, r2
200068d2:	b29a      	uxth	r2, r3
200068d4:	687b      	ldr	r3, [r7, #4]
200068d6:	811a      	strh	r2, [r3, #8]
}
200068d8:	bf00      	nop
200068da:	370c      	adds	r7, #12
200068dc:	46bd      	mov	sp, r7
200068de:	f85d 7b04 	ldr.w	r7, [sp], #4
200068e2:	4770      	bx	lr

200068e4 <TIM_ETRConfig>:
  *          This parameter must be a value between 0x00 and 0x0F
  * @retval None
  */
void TIM_ETRConfig(TIM_TypeDef* TIMx, uint16_t TIM_ExtTRGPrescaler,
                   uint16_t TIM_ExtTRGPolarity, uint16_t ExtTRGFilter)
{
200068e4:	b480      	push	{r7}
200068e6:	b087      	sub	sp, #28
200068e8:	af00      	add	r7, sp, #0
200068ea:	60f8      	str	r0, [r7, #12]
200068ec:	4608      	mov	r0, r1
200068ee:	4611      	mov	r1, r2
200068f0:	461a      	mov	r2, r3
200068f2:	4603      	mov	r3, r0
200068f4:	817b      	strh	r3, [r7, #10]
200068f6:	460b      	mov	r3, r1
200068f8:	813b      	strh	r3, [r7, #8]
200068fa:	4613      	mov	r3, r2
200068fc:	80fb      	strh	r3, [r7, #6]
  uint16_t tmpsmcr = 0;
200068fe:	2300      	movs	r3, #0
20006900:	82fb      	strh	r3, [r7, #22]
  assert_param(IS_TIM_LIST3_PERIPH(TIMx));
  assert_param(IS_TIM_EXT_PRESCALER(TIM_ExtTRGPrescaler));
  assert_param(IS_TIM_EXT_POLARITY(TIM_ExtTRGPolarity));
  assert_param(IS_TIM_EXT_FILTER(ExtTRGFilter));

  tmpsmcr = TIMx->SMCR;
20006902:	68fb      	ldr	r3, [r7, #12]
20006904:	891b      	ldrh	r3, [r3, #8]
20006906:	82fb      	strh	r3, [r7, #22]

  /* Reset the ETR Bits */
  tmpsmcr &= SMCR_ETR_MASK;
20006908:	8afb      	ldrh	r3, [r7, #22]
2000690a:	b2db      	uxtb	r3, r3
2000690c:	82fb      	strh	r3, [r7, #22]

  /* Set the Prescaler, the Filter value and the Polarity */
  tmpsmcr |= (uint16_t)(TIM_ExtTRGPrescaler | (uint16_t)(TIM_ExtTRGPolarity | (uint16_t)(ExtTRGFilter << (uint16_t)8)));
2000690e:	88fb      	ldrh	r3, [r7, #6]
20006910:	021b      	lsls	r3, r3, #8
20006912:	b29a      	uxth	r2, r3
20006914:	893b      	ldrh	r3, [r7, #8]
20006916:	4313      	orrs	r3, r2
20006918:	b29a      	uxth	r2, r3
2000691a:	897b      	ldrh	r3, [r7, #10]
2000691c:	4313      	orrs	r3, r2
2000691e:	b29a      	uxth	r2, r3
20006920:	8afb      	ldrh	r3, [r7, #22]
20006922:	4313      	orrs	r3, r2
20006924:	82fb      	strh	r3, [r7, #22]

  /* Write to TIMx SMCR */
  TIMx->SMCR = tmpsmcr;
20006926:	68fb      	ldr	r3, [r7, #12]
20006928:	8afa      	ldrh	r2, [r7, #22]
2000692a:	811a      	strh	r2, [r3, #8]
}
2000692c:	bf00      	nop
2000692e:	371c      	adds	r7, #28
20006930:	46bd      	mov	sp, r7
20006932:	f85d 7b04 	ldr.w	r7, [sp], #4
20006936:	4770      	bx	lr

20006938 <TIM_EncoderInterfaceConfig>:
  *            @arg TIM_ICPolarity_Rising: IC Rising edge.
  * @retval None
  */
void TIM_EncoderInterfaceConfig(TIM_TypeDef* TIMx, uint16_t TIM_EncoderMode,
                                uint16_t TIM_IC1Polarity, uint16_t TIM_IC2Polarity)
{
20006938:	b480      	push	{r7}
2000693a:	b087      	sub	sp, #28
2000693c:	af00      	add	r7, sp, #0
2000693e:	60f8      	str	r0, [r7, #12]
20006940:	4608      	mov	r0, r1
20006942:	4611      	mov	r1, r2
20006944:	461a      	mov	r2, r3
20006946:	4603      	mov	r3, r0
20006948:	817b      	strh	r3, [r7, #10]
2000694a:	460b      	mov	r3, r1
2000694c:	813b      	strh	r3, [r7, #8]
2000694e:	4613      	mov	r3, r2
20006950:	80fb      	strh	r3, [r7, #6]
  uint16_t tmpsmcr = 0;
20006952:	2300      	movs	r3, #0
20006954:	82fb      	strh	r3, [r7, #22]
  uint16_t tmpccmr1 = 0;
20006956:	2300      	movs	r3, #0
20006958:	82bb      	strh	r3, [r7, #20]
  uint16_t tmpccer = 0;
2000695a:	2300      	movs	r3, #0
2000695c:	827b      	strh	r3, [r7, #18]
  assert_param(IS_TIM_ENCODER_MODE(TIM_EncoderMode));
  assert_param(IS_TIM_IC_POLARITY(TIM_IC1Polarity));
  assert_param(IS_TIM_IC_POLARITY(TIM_IC2Polarity));

  /* Get the TIMx SMCR register value */
  tmpsmcr = TIMx->SMCR;
2000695e:	68fb      	ldr	r3, [r7, #12]
20006960:	891b      	ldrh	r3, [r3, #8]
20006962:	82fb      	strh	r3, [r7, #22]

  /* Get the TIMx CCMR1 register value */
  tmpccmr1 = TIMx->CCMR1;
20006964:	68fb      	ldr	r3, [r7, #12]
20006966:	8b1b      	ldrh	r3, [r3, #24]
20006968:	82bb      	strh	r3, [r7, #20]

  /* Get the TIMx CCER register value */
  tmpccer = TIMx->CCER;
2000696a:	68fb      	ldr	r3, [r7, #12]
2000696c:	8c1b      	ldrh	r3, [r3, #32]
2000696e:	827b      	strh	r3, [r7, #18]

  /* Set the encoder Mode */
  tmpsmcr &= (uint16_t)~TIM_SMCR_SMS;
20006970:	8afb      	ldrh	r3, [r7, #22]
20006972:	f023 0307 	bic.w	r3, r3, #7
20006976:	82fb      	strh	r3, [r7, #22]
  tmpsmcr |= TIM_EncoderMode;
20006978:	8afa      	ldrh	r2, [r7, #22]
2000697a:	897b      	ldrh	r3, [r7, #10]
2000697c:	4313      	orrs	r3, r2
2000697e:	82fb      	strh	r3, [r7, #22]

  /* Select the Capture Compare 1 and the Capture Compare 2 as input */
  tmpccmr1 &= ((uint16_t)~TIM_CCMR1_CC1S) & ((uint16_t)~TIM_CCMR1_CC2S);
20006980:	8abb      	ldrh	r3, [r7, #20]
20006982:	f423 7340 	bic.w	r3, r3, #768	@ 0x300
20006986:	f023 0303 	bic.w	r3, r3, #3
2000698a:	82bb      	strh	r3, [r7, #20]
  tmpccmr1 |= TIM_CCMR1_CC1S_0 | TIM_CCMR1_CC2S_0;
2000698c:	8abb      	ldrh	r3, [r7, #20]
2000698e:	f443 7380 	orr.w	r3, r3, #256	@ 0x100
20006992:	f043 0301 	orr.w	r3, r3, #1
20006996:	82bb      	strh	r3, [r7, #20]

  /* Set the TI1 and the TI2 Polarities */
  tmpccer &= ((uint16_t)~TIM_CCER_CC1P) & ((uint16_t)~TIM_CCER_CC2P);
20006998:	8a7b      	ldrh	r3, [r7, #18]
2000699a:	f023 0322 	bic.w	r3, r3, #34	@ 0x22
2000699e:	827b      	strh	r3, [r7, #18]
  tmpccer |= (uint16_t)(TIM_IC1Polarity | (uint16_t)(TIM_IC2Polarity << (uint16_t)4));
200069a0:	88fb      	ldrh	r3, [r7, #6]
200069a2:	011b      	lsls	r3, r3, #4
200069a4:	b29a      	uxth	r2, r3
200069a6:	893b      	ldrh	r3, [r7, #8]
200069a8:	4313      	orrs	r3, r2
200069aa:	b29a      	uxth	r2, r3
200069ac:	8a7b      	ldrh	r3, [r7, #18]
200069ae:	4313      	orrs	r3, r2
200069b0:	827b      	strh	r3, [r7, #18]

  /* Write to TIMx SMCR */
  TIMx->SMCR = tmpsmcr;
200069b2:	68fb      	ldr	r3, [r7, #12]
200069b4:	8afa      	ldrh	r2, [r7, #22]
200069b6:	811a      	strh	r2, [r3, #8]

  /* Write to TIMx CCMR1 */
  TIMx->CCMR1 = tmpccmr1;
200069b8:	68fb      	ldr	r3, [r7, #12]
200069ba:	8aba      	ldrh	r2, [r7, #20]
200069bc:	831a      	strh	r2, [r3, #24]

  /* Write to TIMx CCER */
  TIMx->CCER = tmpccer;
200069be:	68fb      	ldr	r3, [r7, #12]
200069c0:	8a7a      	ldrh	r2, [r7, #18]
200069c2:	841a      	strh	r2, [r3, #32]
}
200069c4:	bf00      	nop
200069c6:	371c      	adds	r7, #28
200069c8:	46bd      	mov	sp, r7
200069ca:	f85d 7b04 	ldr.w	r7, [sp], #4
200069ce:	4770      	bx	lr

200069d0 <TIM_SelectHallSensor>:
  * @param  NewState: new state of the TIMx Hall sensor interface.
  *          This parameter can be: ENABLE or DISABLE.
  * @retval None
  */
void TIM_SelectHallSensor(TIM_TypeDef* TIMx, FunctionalState NewState)
{
200069d0:	b480      	push	{r7}
200069d2:	b083      	sub	sp, #12
200069d4:	af00      	add	r7, sp, #0
200069d6:	6078      	str	r0, [r7, #4]
200069d8:	460b      	mov	r3, r1
200069da:	70fb      	strb	r3, [r7, #3]
  /* Check the parameters */
  assert_param(IS_TIM_LIST2_PERIPH(TIMx));
  assert_param(IS_FUNCTIONAL_STATE(NewState));

  if (NewState != DISABLE)
200069dc:	78fb      	ldrb	r3, [r7, #3]
200069de:	2b00      	cmp	r3, #0
200069e0:	d008      	beq.n	200069f4 <TIM_SelectHallSensor+0x24>
  {
    /* Set the TI1S Bit */
    TIMx->CR2 |= TIM_CR2_TI1S;
200069e2:	687b      	ldr	r3, [r7, #4]
200069e4:	889b      	ldrh	r3, [r3, #4]
200069e6:	b29b      	uxth	r3, r3
200069e8:	f043 0380 	orr.w	r3, r3, #128	@ 0x80
200069ec:	b29a      	uxth	r2, r3
200069ee:	687b      	ldr	r3, [r7, #4]
200069f0:	809a      	strh	r2, [r3, #4]
  else
  {
    /* Reset the TI1S Bit */
    TIMx->CR2 &= (uint16_t)~TIM_CR2_TI1S;
  }
}
200069f2:	e007      	b.n	20006a04 <TIM_SelectHallSensor+0x34>
    TIMx->CR2 &= (uint16_t)~TIM_CR2_TI1S;
200069f4:	687b      	ldr	r3, [r7, #4]
200069f6:	889b      	ldrh	r3, [r3, #4]
200069f8:	b29b      	uxth	r3, r3
200069fa:	f023 0380 	bic.w	r3, r3, #128	@ 0x80
200069fe:	b29a      	uxth	r2, r3
20006a00:	687b      	ldr	r3, [r7, #4]
20006a02:	809a      	strh	r2, [r3, #4]
}
20006a04:	bf00      	nop
20006a06:	370c      	adds	r7, #12
20006a08:	46bd      	mov	sp, r7
20006a0a:	f85d 7b04 	ldr.w	r7, [sp], #4
20006a0e:	4770      	bx	lr

20006a10 <TIM_RemapConfig>:
  *            @arg TIM11_HSE:      TIM11 CH4 input is connected to HSE_RTC clock
  *                                 (HSE divided by a programmable prescaler)  
  * @retval None
  */
void TIM_RemapConfig(TIM_TypeDef* TIMx, uint16_t TIM_Remap)
{
20006a10:	b480      	push	{r7}
20006a12:	b083      	sub	sp, #12
20006a14:	af00      	add	r7, sp, #0
20006a16:	6078      	str	r0, [r7, #4]
20006a18:	460b      	mov	r3, r1
20006a1a:	807b      	strh	r3, [r7, #2]
 /* Check the parameters */
  assert_param(IS_TIM_LIST6_PERIPH(TIMx));
  assert_param(IS_TIM_REMAP(TIM_Remap));

  /* Set the Timer remapping configuration */
  TIMx->OR =  TIM_Remap;
20006a1c:	687b      	ldr	r3, [r7, #4]
20006a1e:	887a      	ldrh	r2, [r7, #2]
20006a20:	f8a3 2050 	strh.w	r2, [r3, #80]	@ 0x50
}
20006a24:	bf00      	nop
20006a26:	370c      	adds	r7, #12
20006a28:	46bd      	mov	sp, r7
20006a2a:	f85d 7b04 	ldr.w	r7, [sp], #4
20006a2e:	4770      	bx	lr

20006a30 <TI1_Config>:
  *          This parameter must be a value between 0x00 and 0x0F.
  * @retval None
  */
static void TI1_Config(TIM_TypeDef* TIMx, uint16_t TIM_ICPolarity, uint16_t TIM_ICSelection,
                       uint16_t TIM_ICFilter)
{
20006a30:	b480      	push	{r7}
20006a32:	b087      	sub	sp, #28
20006a34:	af00      	add	r7, sp, #0
20006a36:	60f8      	str	r0, [r7, #12]
20006a38:	4608      	mov	r0, r1
20006a3a:	4611      	mov	r1, r2
20006a3c:	461a      	mov	r2, r3
20006a3e:	4603      	mov	r3, r0
20006a40:	817b      	strh	r3, [r7, #10]
20006a42:	460b      	mov	r3, r1
20006a44:	813b      	strh	r3, [r7, #8]
20006a46:	4613      	mov	r3, r2
20006a48:	80fb      	strh	r3, [r7, #6]
  uint16_t tmpccmr1 = 0, tmpccer = 0;
20006a4a:	2300      	movs	r3, #0
20006a4c:	82fb      	strh	r3, [r7, #22]
20006a4e:	2300      	movs	r3, #0
20006a50:	82bb      	strh	r3, [r7, #20]

  /* Disable the Channel 1: Reset the CC1E Bit */
  TIMx->CCER &= (uint16_t)~TIM_CCER_CC1E;
20006a52:	68fb      	ldr	r3, [r7, #12]
20006a54:	8c1b      	ldrh	r3, [r3, #32]
20006a56:	b29b      	uxth	r3, r3
20006a58:	f023 0301 	bic.w	r3, r3, #1
20006a5c:	b29a      	uxth	r2, r3
20006a5e:	68fb      	ldr	r3, [r7, #12]
20006a60:	841a      	strh	r2, [r3, #32]
  tmpccmr1 = TIMx->CCMR1;
20006a62:	68fb      	ldr	r3, [r7, #12]
20006a64:	8b1b      	ldrh	r3, [r3, #24]
20006a66:	82fb      	strh	r3, [r7, #22]
  tmpccer = TIMx->CCER;
20006a68:	68fb      	ldr	r3, [r7, #12]
20006a6a:	8c1b      	ldrh	r3, [r3, #32]
20006a6c:	82bb      	strh	r3, [r7, #20]

  /* Select the Input and set the filter */
  tmpccmr1 &= ((uint16_t)~TIM_CCMR1_CC1S) & ((uint16_t)~TIM_CCMR1_IC1F);
20006a6e:	8afb      	ldrh	r3, [r7, #22]
20006a70:	f023 03f3 	bic.w	r3, r3, #243	@ 0xf3
20006a74:	82fb      	strh	r3, [r7, #22]
  tmpccmr1 |= (uint16_t)(TIM_ICSelection | (uint16_t)(TIM_ICFilter << (uint16_t)4));
20006a76:	88fb      	ldrh	r3, [r7, #6]
20006a78:	011b      	lsls	r3, r3, #4
20006a7a:	b29a      	uxth	r2, r3
20006a7c:	893b      	ldrh	r3, [r7, #8]
20006a7e:	4313      	orrs	r3, r2
20006a80:	b29a      	uxth	r2, r3
20006a82:	8afb      	ldrh	r3, [r7, #22]
20006a84:	4313      	orrs	r3, r2
20006a86:	82fb      	strh	r3, [r7, #22]

  /* Select the Polarity and set the CC1E Bit */
  tmpccer &= (uint16_t)~(TIM_CCER_CC1P | TIM_CCER_CC1NP);
20006a88:	8abb      	ldrh	r3, [r7, #20]
20006a8a:	f023 030a 	bic.w	r3, r3, #10
20006a8e:	82bb      	strh	r3, [r7, #20]
  tmpccer |= (uint16_t)(TIM_ICPolarity | (uint16_t)TIM_CCER_CC1E);
20006a90:	897a      	ldrh	r2, [r7, #10]
20006a92:	8abb      	ldrh	r3, [r7, #20]
20006a94:	4313      	orrs	r3, r2
20006a96:	b29b      	uxth	r3, r3
20006a98:	f043 0301 	orr.w	r3, r3, #1
20006a9c:	82bb      	strh	r3, [r7, #20]

  /* Write to TIMx CCMR1 and CCER registers */
  TIMx->CCMR1 = tmpccmr1;
20006a9e:	68fb      	ldr	r3, [r7, #12]
20006aa0:	8afa      	ldrh	r2, [r7, #22]
20006aa2:	831a      	strh	r2, [r3, #24]
  TIMx->CCER = tmpccer;
20006aa4:	68fb      	ldr	r3, [r7, #12]
20006aa6:	8aba      	ldrh	r2, [r7, #20]
20006aa8:	841a      	strh	r2, [r3, #32]
}
20006aaa:	bf00      	nop
20006aac:	371c      	adds	r7, #28
20006aae:	46bd      	mov	sp, r7
20006ab0:	f85d 7b04 	ldr.w	r7, [sp], #4
20006ab4:	4770      	bx	lr

20006ab6 <TI2_Config>:
  *          This parameter must be a value between 0x00 and 0x0F.
  * @retval None
  */
static void TI2_Config(TIM_TypeDef* TIMx, uint16_t TIM_ICPolarity, uint16_t TIM_ICSelection,
                       uint16_t TIM_ICFilter)
{
20006ab6:	b480      	push	{r7}
20006ab8:	b087      	sub	sp, #28
20006aba:	af00      	add	r7, sp, #0
20006abc:	60f8      	str	r0, [r7, #12]
20006abe:	4608      	mov	r0, r1
20006ac0:	4611      	mov	r1, r2
20006ac2:	461a      	mov	r2, r3
20006ac4:	4603      	mov	r3, r0
20006ac6:	817b      	strh	r3, [r7, #10]
20006ac8:	460b      	mov	r3, r1
20006aca:	813b      	strh	r3, [r7, #8]
20006acc:	4613      	mov	r3, r2
20006ace:	80fb      	strh	r3, [r7, #6]
  uint16_t tmpccmr1 = 0, tmpccer = 0, tmp = 0;
20006ad0:	2300      	movs	r3, #0
20006ad2:	82fb      	strh	r3, [r7, #22]
20006ad4:	2300      	movs	r3, #0
20006ad6:	82bb      	strh	r3, [r7, #20]
20006ad8:	2300      	movs	r3, #0
20006ada:	827b      	strh	r3, [r7, #18]

  /* Disable the Channel 2: Reset the CC2E Bit */
  TIMx->CCER &= (uint16_t)~TIM_CCER_CC2E;
20006adc:	68fb      	ldr	r3, [r7, #12]
20006ade:	8c1b      	ldrh	r3, [r3, #32]
20006ae0:	b29b      	uxth	r3, r3
20006ae2:	f023 0310 	bic.w	r3, r3, #16
20006ae6:	b29a      	uxth	r2, r3
20006ae8:	68fb      	ldr	r3, [r7, #12]
20006aea:	841a      	strh	r2, [r3, #32]
  tmpccmr1 = TIMx->CCMR1;
20006aec:	68fb      	ldr	r3, [r7, #12]
20006aee:	8b1b      	ldrh	r3, [r3, #24]
20006af0:	82fb      	strh	r3, [r7, #22]
  tmpccer = TIMx->CCER;
20006af2:	68fb      	ldr	r3, [r7, #12]
20006af4:	8c1b      	ldrh	r3, [r3, #32]
20006af6:	82bb      	strh	r3, [r7, #20]
  tmp = (uint16_t)(TIM_ICPolarity << 4);
20006af8:	897b      	ldrh	r3, [r7, #10]
20006afa:	011b      	lsls	r3, r3, #4
20006afc:	827b      	strh	r3, [r7, #18]

  /* Select the Input and set the filter */
  tmpccmr1 &= ((uint16_t)~TIM_CCMR1_CC2S) & ((uint16_t)~TIM_CCMR1_IC2F);
20006afe:	8afb      	ldrh	r3, [r7, #22]
20006b00:	f423 7340 	bic.w	r3, r3, #768	@ 0x300
20006b04:	051b      	lsls	r3, r3, #20
20006b06:	0d1b      	lsrs	r3, r3, #20
20006b08:	82fb      	strh	r3, [r7, #22]
  tmpccmr1 |= (uint16_t)(TIM_ICFilter << 12);
20006b0a:	88fb      	ldrh	r3, [r7, #6]
20006b0c:	031b      	lsls	r3, r3, #12
20006b0e:	b29a      	uxth	r2, r3
20006b10:	8afb      	ldrh	r3, [r7, #22]
20006b12:	4313      	orrs	r3, r2
20006b14:	82fb      	strh	r3, [r7, #22]
  tmpccmr1 |= (uint16_t)(TIM_ICSelection << 8);
20006b16:	893b      	ldrh	r3, [r7, #8]
20006b18:	021b      	lsls	r3, r3, #8
20006b1a:	b29a      	uxth	r2, r3
20006b1c:	8afb      	ldrh	r3, [r7, #22]
20006b1e:	4313      	orrs	r3, r2
20006b20:	82fb      	strh	r3, [r7, #22]

  /* Select the Polarity and set the CC2E Bit */
  tmpccer &= (uint16_t)~(TIM_CCER_CC2P | TIM_CCER_CC2NP);
20006b22:	8abb      	ldrh	r3, [r7, #20]
20006b24:	f023 03a0 	bic.w	r3, r3, #160	@ 0xa0
20006b28:	82bb      	strh	r3, [r7, #20]
  tmpccer |=  (uint16_t)(tmp | (uint16_t)TIM_CCER_CC2E);
20006b2a:	8a7a      	ldrh	r2, [r7, #18]
20006b2c:	8abb      	ldrh	r3, [r7, #20]
20006b2e:	4313      	orrs	r3, r2
20006b30:	b29b      	uxth	r3, r3
20006b32:	f043 0310 	orr.w	r3, r3, #16
20006b36:	82bb      	strh	r3, [r7, #20]

  /* Write to TIMx CCMR1 and CCER registers */
  TIMx->CCMR1 = tmpccmr1 ;
20006b38:	68fb      	ldr	r3, [r7, #12]
20006b3a:	8afa      	ldrh	r2, [r7, #22]
20006b3c:	831a      	strh	r2, [r3, #24]
  TIMx->CCER = tmpccer;
20006b3e:	68fb      	ldr	r3, [r7, #12]
20006b40:	8aba      	ldrh	r2, [r7, #20]
20006b42:	841a      	strh	r2, [r3, #32]
}
20006b44:	bf00      	nop
20006b46:	371c      	adds	r7, #28
20006b48:	46bd      	mov	sp, r7
20006b4a:	f85d 7b04 	ldr.w	r7, [sp], #4
20006b4e:	4770      	bx	lr

20006b50 <TI3_Config>:
  *          This parameter must be a value between 0x00 and 0x0F.
  * @retval None
  */
static void TI3_Config(TIM_TypeDef* TIMx, uint16_t TIM_ICPolarity, uint16_t TIM_ICSelection,
                       uint16_t TIM_ICFilter)
{
20006b50:	b480      	push	{r7}
20006b52:	b087      	sub	sp, #28
20006b54:	af00      	add	r7, sp, #0
20006b56:	60f8      	str	r0, [r7, #12]
20006b58:	4608      	mov	r0, r1
20006b5a:	4611      	mov	r1, r2
20006b5c:	461a      	mov	r2, r3
20006b5e:	4603      	mov	r3, r0
20006b60:	817b      	strh	r3, [r7, #10]
20006b62:	460b      	mov	r3, r1
20006b64:	813b      	strh	r3, [r7, #8]
20006b66:	4613      	mov	r3, r2
20006b68:	80fb      	strh	r3, [r7, #6]
  uint16_t tmpccmr2 = 0, tmpccer = 0, tmp = 0;
20006b6a:	2300      	movs	r3, #0
20006b6c:	82fb      	strh	r3, [r7, #22]
20006b6e:	2300      	movs	r3, #0
20006b70:	82bb      	strh	r3, [r7, #20]
20006b72:	2300      	movs	r3, #0
20006b74:	827b      	strh	r3, [r7, #18]

  /* Disable the Channel 3: Reset the CC3E Bit */
  TIMx->CCER &= (uint16_t)~TIM_CCER_CC3E;
20006b76:	68fb      	ldr	r3, [r7, #12]
20006b78:	8c1b      	ldrh	r3, [r3, #32]
20006b7a:	b29b      	uxth	r3, r3
20006b7c:	f423 7380 	bic.w	r3, r3, #256	@ 0x100
20006b80:	b29a      	uxth	r2, r3
20006b82:	68fb      	ldr	r3, [r7, #12]
20006b84:	841a      	strh	r2, [r3, #32]
  tmpccmr2 = TIMx->CCMR2;
20006b86:	68fb      	ldr	r3, [r7, #12]
20006b88:	8b9b      	ldrh	r3, [r3, #28]
20006b8a:	82fb      	strh	r3, [r7, #22]
  tmpccer = TIMx->CCER;
20006b8c:	68fb      	ldr	r3, [r7, #12]
20006b8e:	8c1b      	ldrh	r3, [r3, #32]
20006b90:	82bb      	strh	r3, [r7, #20]
  tmp = (uint16_t)(TIM_ICPolarity << 8);
20006b92:	897b      	ldrh	r3, [r7, #10]
20006b94:	021b      	lsls	r3, r3, #8
20006b96:	827b      	strh	r3, [r7, #18]

  /* Select the Input and set the filter */
  tmpccmr2 &= ((uint16_t)~TIM_CCMR1_CC1S) & ((uint16_t)~TIM_CCMR2_IC3F);
20006b98:	8afb      	ldrh	r3, [r7, #22]
20006b9a:	f023 03f3 	bic.w	r3, r3, #243	@ 0xf3
20006b9e:	82fb      	strh	r3, [r7, #22]
  tmpccmr2 |= (uint16_t)(TIM_ICSelection | (uint16_t)(TIM_ICFilter << (uint16_t)4));
20006ba0:	88fb      	ldrh	r3, [r7, #6]
20006ba2:	011b      	lsls	r3, r3, #4
20006ba4:	b29a      	uxth	r2, r3
20006ba6:	893b      	ldrh	r3, [r7, #8]
20006ba8:	4313      	orrs	r3, r2
20006baa:	b29a      	uxth	r2, r3
20006bac:	8afb      	ldrh	r3, [r7, #22]
20006bae:	4313      	orrs	r3, r2
20006bb0:	82fb      	strh	r3, [r7, #22]

  /* Select the Polarity and set the CC3E Bit */
  tmpccer &= (uint16_t)~(TIM_CCER_CC3P | TIM_CCER_CC3NP);
20006bb2:	8abb      	ldrh	r3, [r7, #20]
20006bb4:	f423 6320 	bic.w	r3, r3, #2560	@ 0xa00
20006bb8:	82bb      	strh	r3, [r7, #20]
  tmpccer |= (uint16_t)(tmp | (uint16_t)TIM_CCER_CC3E);
20006bba:	8a7a      	ldrh	r2, [r7, #18]
20006bbc:	8abb      	ldrh	r3, [r7, #20]
20006bbe:	4313      	orrs	r3, r2
20006bc0:	b29b      	uxth	r3, r3
20006bc2:	f443 7380 	orr.w	r3, r3, #256	@ 0x100
20006bc6:	82bb      	strh	r3, [r7, #20]

  /* Write to TIMx CCMR2 and CCER registers */
  TIMx->CCMR2 = tmpccmr2;
20006bc8:	68fb      	ldr	r3, [r7, #12]
20006bca:	8afa      	ldrh	r2, [r7, #22]
20006bcc:	839a      	strh	r2, [r3, #28]
  TIMx->CCER = tmpccer;
20006bce:	68fb      	ldr	r3, [r7, #12]
20006bd0:	8aba      	ldrh	r2, [r7, #20]
20006bd2:	841a      	strh	r2, [r3, #32]
}
20006bd4:	bf00      	nop
20006bd6:	371c      	adds	r7, #28
20006bd8:	46bd      	mov	sp, r7
20006bda:	f85d 7b04 	ldr.w	r7, [sp], #4
20006bde:	4770      	bx	lr

20006be0 <TI4_Config>:
  *          This parameter must be a value between 0x00 and 0x0F.
  * @retval None
  */
static void TI4_Config(TIM_TypeDef* TIMx, uint16_t TIM_ICPolarity, uint16_t TIM_ICSelection,
                       uint16_t TIM_ICFilter)
{
20006be0:	b480      	push	{r7}
20006be2:	b087      	sub	sp, #28
20006be4:	af00      	add	r7, sp, #0
20006be6:	60f8      	str	r0, [r7, #12]
20006be8:	4608      	mov	r0, r1
20006bea:	4611      	mov	r1, r2
20006bec:	461a      	mov	r2, r3
20006bee:	4603      	mov	r3, r0
20006bf0:	817b      	strh	r3, [r7, #10]
20006bf2:	460b      	mov	r3, r1
20006bf4:	813b      	strh	r3, [r7, #8]
20006bf6:	4613      	mov	r3, r2
20006bf8:	80fb      	strh	r3, [r7, #6]
  uint16_t tmpccmr2 = 0, tmpccer = 0, tmp = 0;
20006bfa:	2300      	movs	r3, #0
20006bfc:	82fb      	strh	r3, [r7, #22]
20006bfe:	2300      	movs	r3, #0
20006c00:	82bb      	strh	r3, [r7, #20]
20006c02:	2300      	movs	r3, #0
20006c04:	827b      	strh	r3, [r7, #18]

  /* Disable the Channel 4: Reset the CC4E Bit */
  TIMx->CCER &= (uint16_t)~TIM_CCER_CC4E;
20006c06:	68fb      	ldr	r3, [r7, #12]
20006c08:	8c1b      	ldrh	r3, [r3, #32]
20006c0a:	b29b      	uxth	r3, r3
20006c0c:	f423 5380 	bic.w	r3, r3, #4096	@ 0x1000
20006c10:	b29a      	uxth	r2, r3
20006c12:	68fb      	ldr	r3, [r7, #12]
20006c14:	841a      	strh	r2, [r3, #32]
  tmpccmr2 = TIMx->CCMR2;
20006c16:	68fb      	ldr	r3, [r7, #12]
20006c18:	8b9b      	ldrh	r3, [r3, #28]
20006c1a:	82fb      	strh	r3, [r7, #22]
  tmpccer = TIMx->CCER;
20006c1c:	68fb      	ldr	r3, [r7, #12]
20006c1e:	8c1b      	ldrh	r3, [r3, #32]
20006c20:	82bb      	strh	r3, [r7, #20]
  tmp = (uint16_t)(TIM_ICPolarity << 12);
20006c22:	897b      	ldrh	r3, [r7, #10]
20006c24:	031b      	lsls	r3, r3, #12
20006c26:	827b      	strh	r3, [r7, #18]

  /* Select the Input and set the filter */
  tmpccmr2 &= ((uint16_t)~TIM_CCMR1_CC2S) & ((uint16_t)~TIM_CCMR1_IC2F);
20006c28:	8afb      	ldrh	r3, [r7, #22]
20006c2a:	f423 7340 	bic.w	r3, r3, #768	@ 0x300
20006c2e:	051b      	lsls	r3, r3, #20
20006c30:	0d1b      	lsrs	r3, r3, #20
20006c32:	82fb      	strh	r3, [r7, #22]
  tmpccmr2 |= (uint16_t)(TIM_ICSelection << 8);
20006c34:	893b      	ldrh	r3, [r7, #8]
20006c36:	021b      	lsls	r3, r3, #8
20006c38:	b29a      	uxth	r2, r3
20006c3a:	8afb      	ldrh	r3, [r7, #22]
20006c3c:	4313      	orrs	r3, r2
20006c3e:	82fb      	strh	r3, [r7, #22]
  tmpccmr2 |= (uint16_t)(TIM_ICFilter << 12);
20006c40:	88fb      	ldrh	r3, [r7, #6]
20006c42:	031b      	lsls	r3, r3, #12
20006c44:	b29a      	uxth	r2, r3
20006c46:	8afb      	ldrh	r3, [r7, #22]
20006c48:	4313      	orrs	r3, r2
20006c4a:	82fb      	strh	r3, [r7, #22]

  /* Select the Polarity and set the CC4E Bit */
  tmpccer &= (uint16_t)~(TIM_CCER_CC4P | TIM_CCER_CC4NP);
20006c4c:	8abb      	ldrh	r3, [r7, #20]
20006c4e:	f423 5300 	bic.w	r3, r3, #8192	@ 0x2000
20006c52:	045b      	lsls	r3, r3, #17
20006c54:	0c5b      	lsrs	r3, r3, #17
20006c56:	82bb      	strh	r3, [r7, #20]
  tmpccer |= (uint16_t)(tmp | (uint16_t)TIM_CCER_CC4E);
20006c58:	8a7a      	ldrh	r2, [r7, #18]
20006c5a:	8abb      	ldrh	r3, [r7, #20]
20006c5c:	4313      	orrs	r3, r2
20006c5e:	b29b      	uxth	r3, r3
20006c60:	f443 5380 	orr.w	r3, r3, #4096	@ 0x1000
20006c64:	82bb      	strh	r3, [r7, #20]

  /* Write to TIMx CCMR2 and CCER registers */
  TIMx->CCMR2 = tmpccmr2;
20006c66:	68fb      	ldr	r3, [r7, #12]
20006c68:	8afa      	ldrh	r2, [r7, #22]
20006c6a:	839a      	strh	r2, [r3, #28]
  TIMx->CCER = tmpccer ;
20006c6c:	68fb      	ldr	r3, [r7, #12]
20006c6e:	8aba      	ldrh	r2, [r7, #20]
20006c70:	841a      	strh	r2, [r3, #32]
}
20006c72:	bf00      	nop
20006c74:	371c      	adds	r7, #28
20006c76:	46bd      	mov	sp, r7
20006c78:	f85d 7b04 	ldr.w	r7, [sp], #4
20006c7c:	4770      	bx	lr
20006c7e:	bf00      	nop

20006c80 <USART_DeInit>:
  * @param  USARTx: where x can be 1, 2, 3, 4, 5, 6, 7 or 8 to select the USART or 
  *         UART peripheral.
  * @retval None
  */
void USART_DeInit(USART_TypeDef* USARTx)
{
20006c80:	b580      	push	{r7, lr}
20006c82:	b082      	sub	sp, #8
20006c84:	af00      	add	r7, sp, #0
20006c86:	6078      	str	r0, [r7, #4]
  /* Check the parameters */
  assert_param(IS_USART_ALL_PERIPH(USARTx));

  if (USARTx == USART1)
20006c88:	687b      	ldr	r3, [r7, #4]
20006c8a:	4a3b      	ldr	r2, [pc, #236]	@ (20006d78 <USART_DeInit+0xf8>)
20006c8c:	4293      	cmp	r3, r2
20006c8e:	d108      	bne.n	20006ca2 <USART_DeInit+0x22>
  {
    RCC_APB2PeriphResetCmd(RCC_APB2Periph_USART1, ENABLE);
20006c90:	2101      	movs	r1, #1
20006c92:	2010      	movs	r0, #16
20006c94:	f7fd ffe0 	bl	20004c58 <RCC_APB2PeriphResetCmd>
    RCC_APB2PeriphResetCmd(RCC_APB2Periph_USART1, DISABLE);
20006c98:	2100      	movs	r1, #0
20006c9a:	2010      	movs	r0, #16
20006c9c:	f7fd ffdc 	bl	20004c58 <RCC_APB2PeriphResetCmd>
    { 
      RCC_APB1PeriphResetCmd(RCC_APB1Periph_UART8, ENABLE);
      RCC_APB1PeriphResetCmd(RCC_APB1Periph_UART8, DISABLE);
    }
  }
}
20006ca0:	e065      	b.n	20006d6e <USART_DeInit+0xee>
  else if (USARTx == USART2)
20006ca2:	687b      	ldr	r3, [r7, #4]
20006ca4:	4a35      	ldr	r2, [pc, #212]	@ (20006d7c <USART_DeInit+0xfc>)
20006ca6:	4293      	cmp	r3, r2
20006ca8:	d10a      	bne.n	20006cc0 <USART_DeInit+0x40>
    RCC_APB1PeriphResetCmd(RCC_APB1Periph_USART2, ENABLE);
20006caa:	2101      	movs	r1, #1
20006cac:	f44f 3000 	mov.w	r0, #131072	@ 0x20000
20006cb0:	f7fd ffb2 	bl	20004c18 <RCC_APB1PeriphResetCmd>
    RCC_APB1PeriphResetCmd(RCC_APB1Periph_USART2, DISABLE);
20006cb4:	2100      	movs	r1, #0
20006cb6:	f44f 3000 	mov.w	r0, #131072	@ 0x20000
20006cba:	f7fd ffad 	bl	20004c18 <RCC_APB1PeriphResetCmd>
}
20006cbe:	e056      	b.n	20006d6e <USART_DeInit+0xee>
  else if (USARTx == USART3)
20006cc0:	687b      	ldr	r3, [r7, #4]
20006cc2:	4a2f      	ldr	r2, [pc, #188]	@ (20006d80 <USART_DeInit+0x100>)
20006cc4:	4293      	cmp	r3, r2
20006cc6:	d10a      	bne.n	20006cde <USART_DeInit+0x5e>
    RCC_APB1PeriphResetCmd(RCC_APB1Periph_USART3, ENABLE);
20006cc8:	2101      	movs	r1, #1
20006cca:	f44f 2080 	mov.w	r0, #262144	@ 0x40000
20006cce:	f7fd ffa3 	bl	20004c18 <RCC_APB1PeriphResetCmd>
    RCC_APB1PeriphResetCmd(RCC_APB1Periph_USART3, DISABLE);
20006cd2:	2100      	movs	r1, #0
20006cd4:	f44f 2080 	mov.w	r0, #262144	@ 0x40000
20006cd8:	f7fd ff9e 	bl	20004c18 <RCC_APB1PeriphResetCmd>
}
20006cdc:	e047      	b.n	20006d6e <USART_DeInit+0xee>
  else if (USARTx == UART4)
20006cde:	687b      	ldr	r3, [r7, #4]
20006ce0:	4a28      	ldr	r2, [pc, #160]	@ (20006d84 <USART_DeInit+0x104>)
20006ce2:	4293      	cmp	r3, r2
20006ce4:	d10a      	bne.n	20006cfc <USART_DeInit+0x7c>
    RCC_APB1PeriphResetCmd(RCC_APB1Periph_UART4, ENABLE);
20006ce6:	2101      	movs	r1, #1
20006ce8:	f44f 2000 	mov.w	r0, #524288	@ 0x80000
20006cec:	f7fd ff94 	bl	20004c18 <RCC_APB1PeriphResetCmd>
    RCC_APB1PeriphResetCmd(RCC_APB1Periph_UART4, DISABLE);
20006cf0:	2100      	movs	r1, #0
20006cf2:	f44f 2000 	mov.w	r0, #524288	@ 0x80000
20006cf6:	f7fd ff8f 	bl	20004c18 <RCC_APB1PeriphResetCmd>
}
20006cfa:	e038      	b.n	20006d6e <USART_DeInit+0xee>
  else if (USARTx == UART5)
20006cfc:	687b      	ldr	r3, [r7, #4]
20006cfe:	4a22      	ldr	r2, [pc, #136]	@ (20006d88 <USART_DeInit+0x108>)
20006d00:	4293      	cmp	r3, r2
20006d02:	d10a      	bne.n	20006d1a <USART_DeInit+0x9a>
    RCC_APB1PeriphResetCmd(RCC_APB1Periph_UART5, ENABLE);
20006d04:	2101      	movs	r1, #1
20006d06:	f44f 1080 	mov.w	r0, #1048576	@ 0x100000
20006d0a:	f7fd ff85 	bl	20004c18 <RCC_APB1PeriphResetCmd>
    RCC_APB1PeriphResetCmd(RCC_APB1Periph_UART5, DISABLE);
20006d0e:	2100      	movs	r1, #0
20006d10:	f44f 1080 	mov.w	r0, #1048576	@ 0x100000
20006d14:	f7fd ff80 	bl	20004c18 <RCC_APB1PeriphResetCmd>
}
20006d18:	e029      	b.n	20006d6e <USART_DeInit+0xee>
  else if (USARTx == USART6)
20006d1a:	687b      	ldr	r3, [r7, #4]
20006d1c:	4a1b      	ldr	r2, [pc, #108]	@ (20006d8c <USART_DeInit+0x10c>)
20006d1e:	4293      	cmp	r3, r2
20006d20:	d108      	bne.n	20006d34 <USART_DeInit+0xb4>
    RCC_APB2PeriphResetCmd(RCC_APB2Periph_USART6, ENABLE);
20006d22:	2101      	movs	r1, #1
20006d24:	2020      	movs	r0, #32
20006d26:	f7fd ff97 	bl	20004c58 <RCC_APB2PeriphResetCmd>
    RCC_APB2PeriphResetCmd(RCC_APB2Periph_USART6, DISABLE);
20006d2a:	2100      	movs	r1, #0
20006d2c:	2020      	movs	r0, #32
20006d2e:	f7fd ff93 	bl	20004c58 <RCC_APB2PeriphResetCmd>
}
20006d32:	e01c      	b.n	20006d6e <USART_DeInit+0xee>
  else if (USARTx == UART7)
20006d34:	687b      	ldr	r3, [r7, #4]
20006d36:	4a16      	ldr	r2, [pc, #88]	@ (20006d90 <USART_DeInit+0x110>)
20006d38:	4293      	cmp	r3, r2
20006d3a:	d10a      	bne.n	20006d52 <USART_DeInit+0xd2>
    RCC_APB1PeriphResetCmd(RCC_APB1Periph_UART7, ENABLE);
20006d3c:	2101      	movs	r1, #1
20006d3e:	f04f 4080 	mov.w	r0, #1073741824	@ 0x40000000
20006d42:	f7fd ff69 	bl	20004c18 <RCC_APB1PeriphResetCmd>
    RCC_APB1PeriphResetCmd(RCC_APB1Periph_UART7, DISABLE);
20006d46:	2100      	movs	r1, #0
20006d48:	f04f 4080 	mov.w	r0, #1073741824	@ 0x40000000
20006d4c:	f7fd ff64 	bl	20004c18 <RCC_APB1PeriphResetCmd>
}
20006d50:	e00d      	b.n	20006d6e <USART_DeInit+0xee>
    if (USARTx == UART8)
20006d52:	687b      	ldr	r3, [r7, #4]
20006d54:	4a0f      	ldr	r2, [pc, #60]	@ (20006d94 <USART_DeInit+0x114>)
20006d56:	4293      	cmp	r3, r2
20006d58:	d109      	bne.n	20006d6e <USART_DeInit+0xee>
      RCC_APB1PeriphResetCmd(RCC_APB1Periph_UART8, ENABLE);
20006d5a:	2101      	movs	r1, #1
20006d5c:	f04f 4000 	mov.w	r0, #2147483648	@ 0x80000000
20006d60:	f7fd ff5a 	bl	20004c18 <RCC_APB1PeriphResetCmd>
      RCC_APB1PeriphResetCmd(RCC_APB1Periph_UART8, DISABLE);
20006d64:	2100      	movs	r1, #0
20006d66:	f04f 4000 	mov.w	r0, #2147483648	@ 0x80000000
20006d6a:	f7fd ff55 	bl	20004c18 <RCC_APB1PeriphResetCmd>
}
20006d6e:	bf00      	nop
20006d70:	3708      	adds	r7, #8
20006d72:	46bd      	mov	sp, r7
20006d74:	bd80      	pop	{r7, pc}
20006d76:	bf00      	nop
20006d78:	40011000 	.word	0x40011000
20006d7c:	40004400 	.word	0x40004400
20006d80:	40004800 	.word	0x40004800
20006d84:	40004c00 	.word	0x40004c00
20006d88:	40005000 	.word	0x40005000
20006d8c:	40011400 	.word	0x40011400
20006d90:	40007800 	.word	0x40007800
20006d94:	40007c00 	.word	0x40007c00

20006d98 <USART_Init>:
  * @param  USART_InitStruct: pointer to a USART_InitTypeDef structure that contains
  *         the configuration information for the specified USART peripheral.
  * @retval None
  */
void USART_Init(USART_TypeDef* USARTx, USART_InitTypeDef* USART_InitStruct)
{
20006d98:	b580      	push	{r7, lr}
20006d9a:	b08a      	sub	sp, #40	@ 0x28
20006d9c:	af00      	add	r7, sp, #0
20006d9e:	6078      	str	r0, [r7, #4]
20006da0:	6039      	str	r1, [r7, #0]
  uint32_t tmpreg = 0x00, apbclock = 0x00;
20006da2:	2300      	movs	r3, #0
20006da4:	627b      	str	r3, [r7, #36]	@ 0x24
20006da6:	2300      	movs	r3, #0
20006da8:	623b      	str	r3, [r7, #32]
  uint32_t integerdivider = 0x00;
20006daa:	2300      	movs	r3, #0
20006dac:	61fb      	str	r3, [r7, #28]
  uint32_t fractionaldivider = 0x00;
20006dae:	2300      	movs	r3, #0
20006db0:	61bb      	str	r3, [r7, #24]
  {
    assert_param(IS_USART_1236_PERIPH(USARTx));
  }

/*---------------------------- USART CR2 Configuration -----------------------*/
  tmpreg = USARTx->CR2;
20006db2:	687b      	ldr	r3, [r7, #4]
20006db4:	8a1b      	ldrh	r3, [r3, #16]
20006db6:	b29b      	uxth	r3, r3
20006db8:	627b      	str	r3, [r7, #36]	@ 0x24

  /* Clear STOP[13:12] bits */
  tmpreg &= (uint32_t)~((uint32_t)USART_CR2_STOP);
20006dba:	6a7b      	ldr	r3, [r7, #36]	@ 0x24
20006dbc:	f423 5340 	bic.w	r3, r3, #12288	@ 0x3000
20006dc0:	627b      	str	r3, [r7, #36]	@ 0x24

  /* Configure the USART Stop Bits, Clock, CPOL, CPHA and LastBit :
      Set STOP[13:12] bits according to USART_StopBits value */
  tmpreg |= (uint32_t)USART_InitStruct->USART_StopBits;
20006dc2:	683b      	ldr	r3, [r7, #0]
20006dc4:	88db      	ldrh	r3, [r3, #6]
20006dc6:	461a      	mov	r2, r3
20006dc8:	6a7b      	ldr	r3, [r7, #36]	@ 0x24
20006dca:	4313      	orrs	r3, r2
20006dcc:	627b      	str	r3, [r7, #36]	@ 0x24
  
  /* Write to USART CR2 */
  USARTx->CR2 = (uint16_t)tmpreg;
20006dce:	6a7b      	ldr	r3, [r7, #36]	@ 0x24
20006dd0:	b29a      	uxth	r2, r3
20006dd2:	687b      	ldr	r3, [r7, #4]
20006dd4:	821a      	strh	r2, [r3, #16]

/*---------------------------- USART CR1 Configuration -----------------------*/
  tmpreg = USARTx->CR1;
20006dd6:	687b      	ldr	r3, [r7, #4]
20006dd8:	899b      	ldrh	r3, [r3, #12]
20006dda:	b29b      	uxth	r3, r3
20006ddc:	627b      	str	r3, [r7, #36]	@ 0x24

  /* Clear M, PCE, PS, TE and RE bits */
  tmpreg &= (uint32_t)~((uint32_t)CR1_CLEAR_MASK);
20006dde:	6a7b      	ldr	r3, [r7, #36]	@ 0x24
20006de0:	f423 53b0 	bic.w	r3, r3, #5632	@ 0x1600
20006de4:	f023 030c 	bic.w	r3, r3, #12
20006de8:	627b      	str	r3, [r7, #36]	@ 0x24

  /* Configure the USART Word Length, Parity and mode: 
     Set the M bits according to USART_WordLength value 
     Set PCE and PS bits according to USART_Parity value
     Set TE and RE bits according to USART_Mode value */
  tmpreg |= (uint32_t)USART_InitStruct->USART_WordLength | USART_InitStruct->USART_Parity |
20006dea:	683b      	ldr	r3, [r7, #0]
20006dec:	889a      	ldrh	r2, [r3, #4]
20006dee:	683b      	ldr	r3, [r7, #0]
20006df0:	891b      	ldrh	r3, [r3, #8]
20006df2:	4313      	orrs	r3, r2
20006df4:	b29a      	uxth	r2, r3
            USART_InitStruct->USART_Mode;
20006df6:	683b      	ldr	r3, [r7, #0]
20006df8:	895b      	ldrh	r3, [r3, #10]
  tmpreg |= (uint32_t)USART_InitStruct->USART_WordLength | USART_InitStruct->USART_Parity |
20006dfa:	4313      	orrs	r3, r2
20006dfc:	b29b      	uxth	r3, r3
20006dfe:	461a      	mov	r2, r3
20006e00:	6a7b      	ldr	r3, [r7, #36]	@ 0x24
20006e02:	4313      	orrs	r3, r2
20006e04:	627b      	str	r3, [r7, #36]	@ 0x24

  /* Write to USART CR1 */
  USARTx->CR1 = (uint16_t)tmpreg;
20006e06:	6a7b      	ldr	r3, [r7, #36]	@ 0x24
20006e08:	b29a      	uxth	r2, r3
20006e0a:	687b      	ldr	r3, [r7, #4]
20006e0c:	819a      	strh	r2, [r3, #12]

/*---------------------------- USART CR3 Configuration -----------------------*/  
  tmpreg = USARTx->CR3;
20006e0e:	687b      	ldr	r3, [r7, #4]
20006e10:	8a9b      	ldrh	r3, [r3, #20]
20006e12:	b29b      	uxth	r3, r3
20006e14:	627b      	str	r3, [r7, #36]	@ 0x24

  /* Clear CTSE and RTSE bits */
  tmpreg &= (uint32_t)~((uint32_t)CR3_CLEAR_MASK);
20006e16:	6a7b      	ldr	r3, [r7, #36]	@ 0x24
20006e18:	f423 7340 	bic.w	r3, r3, #768	@ 0x300
20006e1c:	627b      	str	r3, [r7, #36]	@ 0x24

  /* Configure the USART HFC : 
      Set CTSE and RTSE bits according to USART_HardwareFlowControl value */
  tmpreg |= USART_InitStruct->USART_HardwareFlowControl;
20006e1e:	683b      	ldr	r3, [r7, #0]
20006e20:	899b      	ldrh	r3, [r3, #12]
20006e22:	461a      	mov	r2, r3
20006e24:	6a7b      	ldr	r3, [r7, #36]	@ 0x24
20006e26:	4313      	orrs	r3, r2
20006e28:	627b      	str	r3, [r7, #36]	@ 0x24

  /* Write to USART CR3 */
  USARTx->CR3 = (uint16_t)tmpreg;
20006e2a:	6a7b      	ldr	r3, [r7, #36]	@ 0x24
20006e2c:	b29a      	uxth	r2, r3
20006e2e:	687b      	ldr	r3, [r7, #4]
20006e30:	829a      	strh	r2, [r3, #20]

/*---------------------------- USART BRR Configuration -----------------------*/
  /* Configure the USART Baud Rate */
  RCC_GetClocksFreq(&RCC_ClocksStatus);
20006e32:	f107 0308 	add.w	r3, r7, #8
20006e36:	4618      	mov	r0, r3
20006e38:	f7fd fc38 	bl	200046ac <RCC_GetClocksFreq>

  if ((USARTx == USART1) || (USARTx == USART6))
20006e3c:	687b      	ldr	r3, [r7, #4]
20006e3e:	4a30      	ldr	r2, [pc, #192]	@ (20006f00 <USART_Init+0x168>)
20006e40:	4293      	cmp	r3, r2
20006e42:	d003      	beq.n	20006e4c <USART_Init+0xb4>
20006e44:	687b      	ldr	r3, [r7, #4]
20006e46:	4a2f      	ldr	r2, [pc, #188]	@ (20006f04 <USART_Init+0x16c>)
20006e48:	4293      	cmp	r3, r2
20006e4a:	d102      	bne.n	20006e52 <USART_Init+0xba>
  {
    apbclock = RCC_ClocksStatus.PCLK2_Frequency;
20006e4c:	697b      	ldr	r3, [r7, #20]
20006e4e:	623b      	str	r3, [r7, #32]
20006e50:	e001      	b.n	20006e56 <USART_Init+0xbe>
  }
  else
  {
    apbclock = RCC_ClocksStatus.PCLK1_Frequency;
20006e52:	693b      	ldr	r3, [r7, #16]
20006e54:	623b      	str	r3, [r7, #32]
  }
  
  /* Determine the integer part */
  if ((USARTx->CR1 & USART_CR1_OVER8) != 0)
20006e56:	687b      	ldr	r3, [r7, #4]
20006e58:	899b      	ldrh	r3, [r3, #12]
20006e5a:	b29b      	uxth	r3, r3
20006e5c:	b21b      	sxth	r3, r3
20006e5e:	2b00      	cmp	r3, #0
20006e60:	da0c      	bge.n	20006e7c <USART_Init+0xe4>
  {
    /* Integer part computing in case Oversampling mode is 8 Samples */
    integerdivider = ((25 * apbclock) / (2 * (USART_InitStruct->USART_BaudRate)));    
20006e62:	6a3a      	ldr	r2, [r7, #32]
20006e64:	4613      	mov	r3, r2
20006e66:	009b      	lsls	r3, r3, #2
20006e68:	4413      	add	r3, r2
20006e6a:	009a      	lsls	r2, r3, #2
20006e6c:	441a      	add	r2, r3
20006e6e:	683b      	ldr	r3, [r7, #0]
20006e70:	681b      	ldr	r3, [r3, #0]
20006e72:	005b      	lsls	r3, r3, #1
20006e74:	fbb2 f3f3 	udiv	r3, r2, r3
20006e78:	61fb      	str	r3, [r7, #28]
20006e7a:	e00b      	b.n	20006e94 <USART_Init+0xfc>
  }
  else /* if ((USARTx->CR1 & USART_CR1_OVER8) == 0) */
  {
    /* Integer part computing in case Oversampling mode is 16 Samples */
    integerdivider = ((25 * apbclock) / (4 * (USART_InitStruct->USART_BaudRate)));    
20006e7c:	6a3a      	ldr	r2, [r7, #32]
20006e7e:	4613      	mov	r3, r2
20006e80:	009b      	lsls	r3, r3, #2
20006e82:	4413      	add	r3, r2
20006e84:	009a      	lsls	r2, r3, #2
20006e86:	441a      	add	r2, r3
20006e88:	683b      	ldr	r3, [r7, #0]
20006e8a:	681b      	ldr	r3, [r3, #0]
20006e8c:	009b      	lsls	r3, r3, #2
20006e8e:	fbb2 f3f3 	udiv	r3, r2, r3
20006e92:	61fb      	str	r3, [r7, #28]
  }
  tmpreg = (integerdivider / 100) << 4;
20006e94:	69fb      	ldr	r3, [r7, #28]
20006e96:	4a1c      	ldr	r2, [pc, #112]	@ (20006f08 <USART_Init+0x170>)
20006e98:	fba2 2303 	umull	r2, r3, r2, r3
20006e9c:	095b      	lsrs	r3, r3, #5
20006e9e:	011b      	lsls	r3, r3, #4
20006ea0:	627b      	str	r3, [r7, #36]	@ 0x24

  /* Determine the fractional part */
  fractionaldivider = integerdivider - (100 * (tmpreg >> 4));
20006ea2:	6a7b      	ldr	r3, [r7, #36]	@ 0x24
20006ea4:	091b      	lsrs	r3, r3, #4
20006ea6:	2264      	movs	r2, #100	@ 0x64
20006ea8:	fb02 f303 	mul.w	r3, r2, r3
20006eac:	69fa      	ldr	r2, [r7, #28]
20006eae:	1ad3      	subs	r3, r2, r3
20006eb0:	61bb      	str	r3, [r7, #24]

  /* Implement the fractional part in the register */
  if ((USARTx->CR1 & USART_CR1_OVER8) != 0)
20006eb2:	687b      	ldr	r3, [r7, #4]
20006eb4:	899b      	ldrh	r3, [r3, #12]
20006eb6:	b29b      	uxth	r3, r3
20006eb8:	b21b      	sxth	r3, r3
20006eba:	2b00      	cmp	r3, #0
20006ebc:	da0c      	bge.n	20006ed8 <USART_Init+0x140>
  {
    tmpreg |= ((((fractionaldivider * 8) + 50) / 100)) & ((uint8_t)0x07);
20006ebe:	69bb      	ldr	r3, [r7, #24]
20006ec0:	00db      	lsls	r3, r3, #3
20006ec2:	3332      	adds	r3, #50	@ 0x32
20006ec4:	4a10      	ldr	r2, [pc, #64]	@ (20006f08 <USART_Init+0x170>)
20006ec6:	fba2 2303 	umull	r2, r3, r2, r3
20006eca:	095b      	lsrs	r3, r3, #5
20006ecc:	f003 0307 	and.w	r3, r3, #7
20006ed0:	6a7a      	ldr	r2, [r7, #36]	@ 0x24
20006ed2:	4313      	orrs	r3, r2
20006ed4:	627b      	str	r3, [r7, #36]	@ 0x24
20006ed6:	e00b      	b.n	20006ef0 <USART_Init+0x158>
  }
  else /* if ((USARTx->CR1 & USART_CR1_OVER8) == 0) */
  {
    tmpreg |= ((((fractionaldivider * 16) + 50) / 100)) & ((uint8_t)0x0F);
20006ed8:	69bb      	ldr	r3, [r7, #24]
20006eda:	011b      	lsls	r3, r3, #4
20006edc:	3332      	adds	r3, #50	@ 0x32
20006ede:	4a0a      	ldr	r2, [pc, #40]	@ (20006f08 <USART_Init+0x170>)
20006ee0:	fba2 2303 	umull	r2, r3, r2, r3
20006ee4:	095b      	lsrs	r3, r3, #5
20006ee6:	f003 030f 	and.w	r3, r3, #15
20006eea:	6a7a      	ldr	r2, [r7, #36]	@ 0x24
20006eec:	4313      	orrs	r3, r2
20006eee:	627b      	str	r3, [r7, #36]	@ 0x24
  }
  
  /* Write to USART BRR register */
  USARTx->BRR = (uint16_t)tmpreg;
20006ef0:	6a7b      	ldr	r3, [r7, #36]	@ 0x24
20006ef2:	b29a      	uxth	r2, r3
20006ef4:	687b      	ldr	r3, [r7, #4]
20006ef6:	811a      	strh	r2, [r3, #8]
}
20006ef8:	bf00      	nop
20006efa:	3728      	adds	r7, #40	@ 0x28
20006efc:	46bd      	mov	sp, r7
20006efe:	bd80      	pop	{r7, pc}
20006f00:	40011000 	.word	0x40011000
20006f04:	40011400 	.word	0x40011400
20006f08:	51eb851f 	.word	0x51eb851f

20006f0c <USART_StructInit>:
  * @param  USART_InitStruct: pointer to a USART_InitTypeDef structure which will
  *         be initialized.
  * @retval None
  */
void USART_StructInit(USART_InitTypeDef* USART_InitStruct)
{
20006f0c:	b480      	push	{r7}
20006f0e:	b083      	sub	sp, #12
20006f10:	af00      	add	r7, sp, #0
20006f12:	6078      	str	r0, [r7, #4]
  /* USART_InitStruct members default value */
  USART_InitStruct->USART_BaudRate = 9600;
20006f14:	687b      	ldr	r3, [r7, #4]
20006f16:	f44f 5216 	mov.w	r2, #9600	@ 0x2580
20006f1a:	601a      	str	r2, [r3, #0]
  USART_InitStruct->USART_WordLength = USART_WordLength_8b;
20006f1c:	687b      	ldr	r3, [r7, #4]
20006f1e:	2200      	movs	r2, #0
20006f20:	809a      	strh	r2, [r3, #4]
  USART_InitStruct->USART_StopBits = USART_StopBits_1;
20006f22:	687b      	ldr	r3, [r7, #4]
20006f24:	2200      	movs	r2, #0
20006f26:	80da      	strh	r2, [r3, #6]
  USART_InitStruct->USART_Parity = USART_Parity_No ;
20006f28:	687b      	ldr	r3, [r7, #4]
20006f2a:	2200      	movs	r2, #0
20006f2c:	811a      	strh	r2, [r3, #8]
  USART_InitStruct->USART_Mode = USART_Mode_Rx | USART_Mode_Tx;
20006f2e:	687b      	ldr	r3, [r7, #4]
20006f30:	220c      	movs	r2, #12
20006f32:	815a      	strh	r2, [r3, #10]
  USART_InitStruct->USART_HardwareFlowControl = USART_HardwareFlowControl_None;  
20006f34:	687b      	ldr	r3, [r7, #4]
20006f36:	2200      	movs	r2, #0
20006f38:	819a      	strh	r2, [r3, #12]
}
20006f3a:	bf00      	nop
20006f3c:	370c      	adds	r7, #12
20006f3e:	46bd      	mov	sp, r7
20006f40:	f85d 7b04 	ldr.w	r7, [sp], #4
20006f44:	4770      	bx	lr

20006f46 <USART_ClockInit>:
  *         contains the configuration information for the specified  USART peripheral.
  * @note   The Smart Card and Synchronous modes are not available for UART4 and UART5.    
  * @retval None
  */
void USART_ClockInit(USART_TypeDef* USARTx, USART_ClockInitTypeDef* USART_ClockInitStruct)
{
20006f46:	b480      	push	{r7}
20006f48:	b085      	sub	sp, #20
20006f4a:	af00      	add	r7, sp, #0
20006f4c:	6078      	str	r0, [r7, #4]
20006f4e:	6039      	str	r1, [r7, #0]
  uint32_t tmpreg = 0x00;
20006f50:	2300      	movs	r3, #0
20006f52:	60fb      	str	r3, [r7, #12]
  assert_param(IS_USART_CPOL(USART_ClockInitStruct->USART_CPOL));
  assert_param(IS_USART_CPHA(USART_ClockInitStruct->USART_CPHA));
  assert_param(IS_USART_LASTBIT(USART_ClockInitStruct->USART_LastBit));
  
/*---------------------------- USART CR2 Configuration -----------------------*/
  tmpreg = USARTx->CR2;
20006f54:	687b      	ldr	r3, [r7, #4]
20006f56:	8a1b      	ldrh	r3, [r3, #16]
20006f58:	b29b      	uxth	r3, r3
20006f5a:	60fb      	str	r3, [r7, #12]
  /* Clear CLKEN, CPOL, CPHA and LBCL bits */
  tmpreg &= (uint32_t)~((uint32_t)CR2_CLOCK_CLEAR_MASK);
20006f5c:	68fb      	ldr	r3, [r7, #12]
20006f5e:	f423 6370 	bic.w	r3, r3, #3840	@ 0xf00
20006f62:	60fb      	str	r3, [r7, #12]
  /* Configure the USART Clock, CPOL, CPHA and LastBit ------------*/
  /* Set CLKEN bit according to USART_Clock value */
  /* Set CPOL bit according to USART_CPOL value */
  /* Set CPHA bit according to USART_CPHA value */
  /* Set LBCL bit according to USART_LastBit value */
  tmpreg |= (uint32_t)USART_ClockInitStruct->USART_Clock | USART_ClockInitStruct->USART_CPOL | 
20006f64:	683b      	ldr	r3, [r7, #0]
20006f66:	881a      	ldrh	r2, [r3, #0]
20006f68:	683b      	ldr	r3, [r7, #0]
20006f6a:	885b      	ldrh	r3, [r3, #2]
                 USART_ClockInitStruct->USART_CPHA | USART_ClockInitStruct->USART_LastBit;
20006f6c:	4313      	orrs	r3, r2
20006f6e:	b29a      	uxth	r2, r3
20006f70:	683b      	ldr	r3, [r7, #0]
20006f72:	889b      	ldrh	r3, [r3, #4]
20006f74:	4313      	orrs	r3, r2
20006f76:	b29a      	uxth	r2, r3
20006f78:	683b      	ldr	r3, [r7, #0]
20006f7a:	88db      	ldrh	r3, [r3, #6]
20006f7c:	4313      	orrs	r3, r2
20006f7e:	b29b      	uxth	r3, r3
20006f80:	461a      	mov	r2, r3
  tmpreg |= (uint32_t)USART_ClockInitStruct->USART_Clock | USART_ClockInitStruct->USART_CPOL | 
20006f82:	68fb      	ldr	r3, [r7, #12]
20006f84:	4313      	orrs	r3, r2
20006f86:	60fb      	str	r3, [r7, #12]
  /* Write to USART CR2 */
  USARTx->CR2 = (uint16_t)tmpreg;
20006f88:	68fb      	ldr	r3, [r7, #12]
20006f8a:	b29a      	uxth	r2, r3
20006f8c:	687b      	ldr	r3, [r7, #4]
20006f8e:	821a      	strh	r2, [r3, #16]
}
20006f90:	bf00      	nop
20006f92:	3714      	adds	r7, #20
20006f94:	46bd      	mov	sp, r7
20006f96:	f85d 7b04 	ldr.w	r7, [sp], #4
20006f9a:	4770      	bx	lr

20006f9c <USART_ClockStructInit>:
  * @param  USART_ClockInitStruct: pointer to a USART_ClockInitTypeDef structure
  *         which will be initialized.
  * @retval None
  */
void USART_ClockStructInit(USART_ClockInitTypeDef* USART_ClockInitStruct)
{
20006f9c:	b480      	push	{r7}
20006f9e:	b083      	sub	sp, #12
20006fa0:	af00      	add	r7, sp, #0
20006fa2:	6078      	str	r0, [r7, #4]
  /* USART_ClockInitStruct members default value */
  USART_ClockInitStruct->USART_Clock = USART_Clock_Disable;
20006fa4:	687b      	ldr	r3, [r7, #4]
20006fa6:	2200      	movs	r2, #0
20006fa8:	801a      	strh	r2, [r3, #0]
  USART_ClockInitStruct->USART_CPOL = USART_CPOL_Low;
20006faa:	687b      	ldr	r3, [r7, #4]
20006fac:	2200      	movs	r2, #0
20006fae:	805a      	strh	r2, [r3, #2]
  USART_ClockInitStruct->USART_CPHA = USART_CPHA_1Edge;
20006fb0:	687b      	ldr	r3, [r7, #4]
20006fb2:	2200      	movs	r2, #0
20006fb4:	809a      	strh	r2, [r3, #4]
  USART_ClockInitStruct->USART_LastBit = USART_LastBit_Disable;
20006fb6:	687b      	ldr	r3, [r7, #4]
20006fb8:	2200      	movs	r2, #0
20006fba:	80da      	strh	r2, [r3, #6]
}
20006fbc:	bf00      	nop
20006fbe:	370c      	adds	r7, #12
20006fc0:	46bd      	mov	sp, r7
20006fc2:	f85d 7b04 	ldr.w	r7, [sp], #4
20006fc6:	4770      	bx	lr

20006fc8 <USART_Cmd>:
  * @param  NewState: new state of the USARTx peripheral.
  *          This parameter can be: ENABLE or DISABLE.
  * @retval None
  */
void USART_Cmd(USART_TypeDef* USARTx, FunctionalState NewState)
{
20006fc8:	b480      	push	{r7}
20006fca:	b083      	sub	sp, #12
20006fcc:	af00      	add	r7, sp, #0
20006fce:	6078      	str	r0, [r7, #4]
20006fd0:	460b      	mov	r3, r1
20006fd2:	70fb      	strb	r3, [r7, #3]
  /* Check the parameters */
  assert_param(IS_USART_ALL_PERIPH(USARTx));
  assert_param(IS_FUNCTIONAL_STATE(NewState));
  
  if (NewState != DISABLE)
20006fd4:	78fb      	ldrb	r3, [r7, #3]
20006fd6:	2b00      	cmp	r3, #0
20006fd8:	d008      	beq.n	20006fec <USART_Cmd+0x24>
  {
    /* Enable the selected USART by setting the UE bit in the CR1 register */
    USARTx->CR1 |= USART_CR1_UE;
20006fda:	687b      	ldr	r3, [r7, #4]
20006fdc:	899b      	ldrh	r3, [r3, #12]
20006fde:	b29b      	uxth	r3, r3
20006fe0:	f443 5300 	orr.w	r3, r3, #8192	@ 0x2000
20006fe4:	b29a      	uxth	r2, r3
20006fe6:	687b      	ldr	r3, [r7, #4]
20006fe8:	819a      	strh	r2, [r3, #12]
  else
  {
    /* Disable the selected USART by clearing the UE bit in the CR1 register */
    USARTx->CR1 &= (uint16_t)~((uint16_t)USART_CR1_UE);
  }
}
20006fea:	e007      	b.n	20006ffc <USART_Cmd+0x34>
    USARTx->CR1 &= (uint16_t)~((uint16_t)USART_CR1_UE);
20006fec:	687b      	ldr	r3, [r7, #4]
20006fee:	899b      	ldrh	r3, [r3, #12]
20006ff0:	b29b      	uxth	r3, r3
20006ff2:	f423 5300 	bic.w	r3, r3, #8192	@ 0x2000
20006ff6:	b29a      	uxth	r2, r3
20006ff8:	687b      	ldr	r3, [r7, #4]
20006ffa:	819a      	strh	r2, [r3, #12]
}
20006ffc:	bf00      	nop
20006ffe:	370c      	adds	r7, #12
20007000:	46bd      	mov	sp, r7
20007002:	f85d 7b04 	ldr.w	r7, [sp], #4
20007006:	4770      	bx	lr

20007008 <USART_SetPrescaler>:
  * @param  USART_Prescaler: specifies the prescaler clock. 
  * @note   The function is used for IrDA mode with UART4 and UART5.   
  * @retval None
  */
void USART_SetPrescaler(USART_TypeDef* USARTx, uint8_t USART_Prescaler)
{ 
20007008:	b480      	push	{r7}
2000700a:	b083      	sub	sp, #12
2000700c:	af00      	add	r7, sp, #0
2000700e:	6078      	str	r0, [r7, #4]
20007010:	460b      	mov	r3, r1
20007012:	70fb      	strb	r3, [r7, #3]
  /* Check the parameters */
  assert_param(IS_USART_ALL_PERIPH(USARTx));
  
  /* Clear the USART prescaler */
  USARTx->GTPR &= USART_GTPR_GT;
20007014:	687b      	ldr	r3, [r7, #4]
20007016:	8b1b      	ldrh	r3, [r3, #24]
20007018:	b29b      	uxth	r3, r3
2000701a:	f023 03ff 	bic.w	r3, r3, #255	@ 0xff
2000701e:	b29a      	uxth	r2, r3
20007020:	687b      	ldr	r3, [r7, #4]
20007022:	831a      	strh	r2, [r3, #24]
  /* Set the USART prescaler */
  USARTx->GTPR |= USART_Prescaler;
20007024:	687b      	ldr	r3, [r7, #4]
20007026:	8b1b      	ldrh	r3, [r3, #24]
20007028:	b29a      	uxth	r2, r3
2000702a:	78fb      	ldrb	r3, [r7, #3]
2000702c:	b29b      	uxth	r3, r3
2000702e:	4313      	orrs	r3, r2
20007030:	b29a      	uxth	r2, r3
20007032:	687b      	ldr	r3, [r7, #4]
20007034:	831a      	strh	r2, [r3, #24]
}
20007036:	bf00      	nop
20007038:	370c      	adds	r7, #12
2000703a:	46bd      	mov	sp, r7
2000703c:	f85d 7b04 	ldr.w	r7, [sp], #4
20007040:	4770      	bx	lr

20007042 <USART_OverSampling8Cmd>:
  * @param  NewState: new state of the USART 8x oversampling mode.
  *          This parameter can be: ENABLE or DISABLE.
  * @retval None
  */
void USART_OverSampling8Cmd(USART_TypeDef* USARTx, FunctionalState NewState)
{
20007042:	b480      	push	{r7}
20007044:	b083      	sub	sp, #12
20007046:	af00      	add	r7, sp, #0
20007048:	6078      	str	r0, [r7, #4]
2000704a:	460b      	mov	r3, r1
2000704c:	70fb      	strb	r3, [r7, #3]
  /* Check the parameters */
  assert_param(IS_USART_ALL_PERIPH(USARTx));
  assert_param(IS_FUNCTIONAL_STATE(NewState));
  
  if (NewState != DISABLE)
2000704e:	78fb      	ldrb	r3, [r7, #3]
20007050:	2b00      	cmp	r3, #0
20007052:	d00a      	beq.n	2000706a <USART_OverSampling8Cmd+0x28>
  {
    /* Enable the 8x Oversampling mode by setting the OVER8 bit in the CR1 register */
    USARTx->CR1 |= USART_CR1_OVER8;
20007054:	687b      	ldr	r3, [r7, #4]
20007056:	899b      	ldrh	r3, [r3, #12]
20007058:	b29b      	uxth	r3, r3
2000705a:	ea6f 4343 	mvn.w	r3, r3, lsl #17
2000705e:	ea6f 4353 	mvn.w	r3, r3, lsr #17
20007062:	b29a      	uxth	r2, r3
20007064:	687b      	ldr	r3, [r7, #4]
20007066:	819a      	strh	r2, [r3, #12]
  else
  {
    /* Disable the 8x Oversampling mode by clearing the OVER8 bit in the CR1 register */
    USARTx->CR1 &= (uint16_t)~((uint16_t)USART_CR1_OVER8);
  }
}  
20007068:	e007      	b.n	2000707a <USART_OverSampling8Cmd+0x38>
    USARTx->CR1 &= (uint16_t)~((uint16_t)USART_CR1_OVER8);
2000706a:	687b      	ldr	r3, [r7, #4]
2000706c:	899b      	ldrh	r3, [r3, #12]
2000706e:	b29b      	uxth	r3, r3
20007070:	f3c3 030e 	ubfx	r3, r3, #0, #15
20007074:	b29a      	uxth	r2, r3
20007076:	687b      	ldr	r3, [r7, #4]
20007078:	819a      	strh	r2, [r3, #12]
}  
2000707a:	bf00      	nop
2000707c:	370c      	adds	r7, #12
2000707e:	46bd      	mov	sp, r7
20007080:	f85d 7b04 	ldr.w	r7, [sp], #4
20007084:	4770      	bx	lr

20007086 <USART_OneBitMethodCmd>:
  * @param  NewState: new state of the USART one bit sampling method.
  *          This parameter can be: ENABLE or DISABLE.
  * @retval None
  */
void USART_OneBitMethodCmd(USART_TypeDef* USARTx, FunctionalState NewState)
{
20007086:	b480      	push	{r7}
20007088:	b083      	sub	sp, #12
2000708a:	af00      	add	r7, sp, #0
2000708c:	6078      	str	r0, [r7, #4]
2000708e:	460b      	mov	r3, r1
20007090:	70fb      	strb	r3, [r7, #3]
  /* Check the parameters */
  assert_param(IS_USART_ALL_PERIPH(USARTx));
  assert_param(IS_FUNCTIONAL_STATE(NewState));
  
  if (NewState != DISABLE)
20007092:	78fb      	ldrb	r3, [r7, #3]
20007094:	2b00      	cmp	r3, #0
20007096:	d008      	beq.n	200070aa <USART_OneBitMethodCmd+0x24>
  {
    /* Enable the one bit method by setting the ONEBITE bit in the CR3 register */
    USARTx->CR3 |= USART_CR3_ONEBIT;
20007098:	687b      	ldr	r3, [r7, #4]
2000709a:	8a9b      	ldrh	r3, [r3, #20]
2000709c:	b29b      	uxth	r3, r3
2000709e:	f443 6300 	orr.w	r3, r3, #2048	@ 0x800
200070a2:	b29a      	uxth	r2, r3
200070a4:	687b      	ldr	r3, [r7, #4]
200070a6:	829a      	strh	r2, [r3, #20]
  else
  {
    /* Disable the one bit method by clearing the ONEBITE bit in the CR3 register */
    USARTx->CR3 &= (uint16_t)~((uint16_t)USART_CR3_ONEBIT);
  }
}
200070a8:	e007      	b.n	200070ba <USART_OneBitMethodCmd+0x34>
    USARTx->CR3 &= (uint16_t)~((uint16_t)USART_CR3_ONEBIT);
200070aa:	687b      	ldr	r3, [r7, #4]
200070ac:	8a9b      	ldrh	r3, [r3, #20]
200070ae:	b29b      	uxth	r3, r3
200070b0:	f423 6300 	bic.w	r3, r3, #2048	@ 0x800
200070b4:	b29a      	uxth	r2, r3
200070b6:	687b      	ldr	r3, [r7, #4]
200070b8:	829a      	strh	r2, [r3, #20]
}
200070ba:	bf00      	nop
200070bc:	370c      	adds	r7, #12
200070be:	46bd      	mov	sp, r7
200070c0:	f85d 7b04 	ldr.w	r7, [sp], #4
200070c4:	4770      	bx	lr

200070c6 <USART_SendData>:
  *         UART peripheral.
  * @param  Data: the data to transmit.
  * @retval None
  */
void USART_SendData(USART_TypeDef* USARTx, uint16_t Data)
{
200070c6:	b480      	push	{r7}
200070c8:	b083      	sub	sp, #12
200070ca:	af00      	add	r7, sp, #0
200070cc:	6078      	str	r0, [r7, #4]
200070ce:	460b      	mov	r3, r1
200070d0:	807b      	strh	r3, [r7, #2]
  /* Check the parameters */
  assert_param(IS_USART_ALL_PERIPH(USARTx));
  assert_param(IS_USART_DATA(Data)); 
    
  /* Transmit Data */
  USARTx->DR = (Data & (uint16_t)0x01FF);
200070d2:	887b      	ldrh	r3, [r7, #2]
200070d4:	f3c3 0308 	ubfx	r3, r3, #0, #9
200070d8:	b29a      	uxth	r2, r3
200070da:	687b      	ldr	r3, [r7, #4]
200070dc:	809a      	strh	r2, [r3, #4]
}
200070de:	bf00      	nop
200070e0:	370c      	adds	r7, #12
200070e2:	46bd      	mov	sp, r7
200070e4:	f85d 7b04 	ldr.w	r7, [sp], #4
200070e8:	4770      	bx	lr

200070ea <USART_ReceiveData>:
  * @param  USARTx: where x can be 1, 2, 3, 4, 5, 6, 7 or 8 to select the USART or 
  *         UART peripheral.
  * @retval The received data.
  */
uint16_t USART_ReceiveData(USART_TypeDef* USARTx)
{
200070ea:	b480      	push	{r7}
200070ec:	b083      	sub	sp, #12
200070ee:	af00      	add	r7, sp, #0
200070f0:	6078      	str	r0, [r7, #4]
  /* Check the parameters */
  assert_param(IS_USART_ALL_PERIPH(USARTx));
  
  /* Receive Data */
  return (uint16_t)(USARTx->DR & (uint16_t)0x01FF);
200070f2:	687b      	ldr	r3, [r7, #4]
200070f4:	889b      	ldrh	r3, [r3, #4]
200070f6:	b29b      	uxth	r3, r3
200070f8:	f3c3 0308 	ubfx	r3, r3, #0, #9
200070fc:	b29b      	uxth	r3, r3
}
200070fe:	4618      	mov	r0, r3
20007100:	370c      	adds	r7, #12
20007102:	46bd      	mov	sp, r7
20007104:	f85d 7b04 	ldr.w	r7, [sp], #4
20007108:	4770      	bx	lr

2000710a <USART_SetAddress>:
  *         UART peripheral.
  * @param  USART_Address: Indicates the address of the USART node.
  * @retval None
  */
void USART_SetAddress(USART_TypeDef* USARTx, uint8_t USART_Address)
{
2000710a:	b480      	push	{r7}
2000710c:	b083      	sub	sp, #12
2000710e:	af00      	add	r7, sp, #0
20007110:	6078      	str	r0, [r7, #4]
20007112:	460b      	mov	r3, r1
20007114:	70fb      	strb	r3, [r7, #3]
  /* Check the parameters */
  assert_param(IS_USART_ALL_PERIPH(USARTx));
  assert_param(IS_USART_ADDRESS(USART_Address)); 
    
  /* Clear the USART address */
  USARTx->CR2 &= (uint16_t)~((uint16_t)USART_CR2_ADD);
20007116:	687b      	ldr	r3, [r7, #4]
20007118:	8a1b      	ldrh	r3, [r3, #16]
2000711a:	b29b      	uxth	r3, r3
2000711c:	f023 030f 	bic.w	r3, r3, #15
20007120:	b29a      	uxth	r2, r3
20007122:	687b      	ldr	r3, [r7, #4]
20007124:	821a      	strh	r2, [r3, #16]
  /* Set the USART address node */
  USARTx->CR2 |= USART_Address;
20007126:	687b      	ldr	r3, [r7, #4]
20007128:	8a1b      	ldrh	r3, [r3, #16]
2000712a:	b29a      	uxth	r2, r3
2000712c:	78fb      	ldrb	r3, [r7, #3]
2000712e:	b29b      	uxth	r3, r3
20007130:	4313      	orrs	r3, r2
20007132:	b29a      	uxth	r2, r3
20007134:	687b      	ldr	r3, [r7, #4]
20007136:	821a      	strh	r2, [r3, #16]
}
20007138:	bf00      	nop
2000713a:	370c      	adds	r7, #12
2000713c:	46bd      	mov	sp, r7
2000713e:	f85d 7b04 	ldr.w	r7, [sp], #4
20007142:	4770      	bx	lr

20007144 <USART_ReceiverWakeUpCmd>:
  * @param  NewState: new state of the USART mute mode.
  *          This parameter can be: ENABLE or DISABLE.
  * @retval None
  */
void USART_ReceiverWakeUpCmd(USART_TypeDef* USARTx, FunctionalState NewState)
{
20007144:	b480      	push	{r7}
20007146:	b083      	sub	sp, #12
20007148:	af00      	add	r7, sp, #0
2000714a:	6078      	str	r0, [r7, #4]
2000714c:	460b      	mov	r3, r1
2000714e:	70fb      	strb	r3, [r7, #3]
  /* Check the parameters */
  assert_param(IS_USART_ALL_PERIPH(USARTx));
  assert_param(IS_FUNCTIONAL_STATE(NewState)); 
  
  if (NewState != DISABLE)
20007150:	78fb      	ldrb	r3, [r7, #3]
20007152:	2b00      	cmp	r3, #0
20007154:	d008      	beq.n	20007168 <USART_ReceiverWakeUpCmd+0x24>
  {
    /* Enable the USART mute mode  by setting the RWU bit in the CR1 register */
    USARTx->CR1 |= USART_CR1_RWU;
20007156:	687b      	ldr	r3, [r7, #4]
20007158:	899b      	ldrh	r3, [r3, #12]
2000715a:	b29b      	uxth	r3, r3
2000715c:	f043 0302 	orr.w	r3, r3, #2
20007160:	b29a      	uxth	r2, r3
20007162:	687b      	ldr	r3, [r7, #4]
20007164:	819a      	strh	r2, [r3, #12]
  else
  {
    /* Disable the USART mute mode by clearing the RWU bit in the CR1 register */
    USARTx->CR1 &= (uint16_t)~((uint16_t)USART_CR1_RWU);
  }
}
20007166:	e007      	b.n	20007178 <USART_ReceiverWakeUpCmd+0x34>
    USARTx->CR1 &= (uint16_t)~((uint16_t)USART_CR1_RWU);
20007168:	687b      	ldr	r3, [r7, #4]
2000716a:	899b      	ldrh	r3, [r3, #12]
2000716c:	b29b      	uxth	r3, r3
2000716e:	f023 0302 	bic.w	r3, r3, #2
20007172:	b29a      	uxth	r2, r3
20007174:	687b      	ldr	r3, [r7, #4]
20007176:	819a      	strh	r2, [r3, #12]
}
20007178:	bf00      	nop
2000717a:	370c      	adds	r7, #12
2000717c:	46bd      	mov	sp, r7
2000717e:	f85d 7b04 	ldr.w	r7, [sp], #4
20007182:	4770      	bx	lr

20007184 <USART_WakeUpConfig>:
  *            @arg USART_WakeUp_IdleLine: WakeUp by an idle line detection
  *            @arg USART_WakeUp_AddressMark: WakeUp by an address mark
  * @retval None
  */
void USART_WakeUpConfig(USART_TypeDef* USARTx, uint16_t USART_WakeUp)
{
20007184:	b480      	push	{r7}
20007186:	b083      	sub	sp, #12
20007188:	af00      	add	r7, sp, #0
2000718a:	6078      	str	r0, [r7, #4]
2000718c:	460b      	mov	r3, r1
2000718e:	807b      	strh	r3, [r7, #2]
  /* Check the parameters */
  assert_param(IS_USART_ALL_PERIPH(USARTx));
  assert_param(IS_USART_WAKEUP(USART_WakeUp));
  
  USARTx->CR1 &= (uint16_t)~((uint16_t)USART_CR1_WAKE);
20007190:	687b      	ldr	r3, [r7, #4]
20007192:	899b      	ldrh	r3, [r3, #12]
20007194:	b29b      	uxth	r3, r3
20007196:	f423 6300 	bic.w	r3, r3, #2048	@ 0x800
2000719a:	b29a      	uxth	r2, r3
2000719c:	687b      	ldr	r3, [r7, #4]
2000719e:	819a      	strh	r2, [r3, #12]
  USARTx->CR1 |= USART_WakeUp;
200071a0:	687b      	ldr	r3, [r7, #4]
200071a2:	899b      	ldrh	r3, [r3, #12]
200071a4:	b29a      	uxth	r2, r3
200071a6:	887b      	ldrh	r3, [r7, #2]
200071a8:	4313      	orrs	r3, r2
200071aa:	b29a      	uxth	r2, r3
200071ac:	687b      	ldr	r3, [r7, #4]
200071ae:	819a      	strh	r2, [r3, #12]
}
200071b0:	bf00      	nop
200071b2:	370c      	adds	r7, #12
200071b4:	46bd      	mov	sp, r7
200071b6:	f85d 7b04 	ldr.w	r7, [sp], #4
200071ba:	4770      	bx	lr

200071bc <USART_LINBreakDetectLengthConfig>:
  *            @arg USART_LINBreakDetectLength_10b: 10-bit break detection
  *            @arg USART_LINBreakDetectLength_11b: 11-bit break detection
  * @retval None
  */
void USART_LINBreakDetectLengthConfig(USART_TypeDef* USARTx, uint16_t USART_LINBreakDetectLength)
{
200071bc:	b480      	push	{r7}
200071be:	b083      	sub	sp, #12
200071c0:	af00      	add	r7, sp, #0
200071c2:	6078      	str	r0, [r7, #4]
200071c4:	460b      	mov	r3, r1
200071c6:	807b      	strh	r3, [r7, #2]
  /* Check the parameters */
  assert_param(IS_USART_ALL_PERIPH(USARTx));
  assert_param(IS_USART_LIN_BREAK_DETECT_LENGTH(USART_LINBreakDetectLength));
  
  USARTx->CR2 &= (uint16_t)~((uint16_t)USART_CR2_LBDL);
200071c8:	687b      	ldr	r3, [r7, #4]
200071ca:	8a1b      	ldrh	r3, [r3, #16]
200071cc:	b29b      	uxth	r3, r3
200071ce:	f023 0320 	bic.w	r3, r3, #32
200071d2:	b29a      	uxth	r2, r3
200071d4:	687b      	ldr	r3, [r7, #4]
200071d6:	821a      	strh	r2, [r3, #16]
  USARTx->CR2 |= USART_LINBreakDetectLength;  
200071d8:	687b      	ldr	r3, [r7, #4]
200071da:	8a1b      	ldrh	r3, [r3, #16]
200071dc:	b29a      	uxth	r2, r3
200071de:	887b      	ldrh	r3, [r7, #2]
200071e0:	4313      	orrs	r3, r2
200071e2:	b29a      	uxth	r2, r3
200071e4:	687b      	ldr	r3, [r7, #4]
200071e6:	821a      	strh	r2, [r3, #16]
}
200071e8:	bf00      	nop
200071ea:	370c      	adds	r7, #12
200071ec:	46bd      	mov	sp, r7
200071ee:	f85d 7b04 	ldr.w	r7, [sp], #4
200071f2:	4770      	bx	lr

200071f4 <USART_LINCmd>:
  * @param  NewState: new state of the USART LIN mode.
  *          This parameter can be: ENABLE or DISABLE.
  * @retval None
  */
void USART_LINCmd(USART_TypeDef* USARTx, FunctionalState NewState)
{
200071f4:	b480      	push	{r7}
200071f6:	b083      	sub	sp, #12
200071f8:	af00      	add	r7, sp, #0
200071fa:	6078      	str	r0, [r7, #4]
200071fc:	460b      	mov	r3, r1
200071fe:	70fb      	strb	r3, [r7, #3]
  /* Check the parameters */
  assert_param(IS_USART_ALL_PERIPH(USARTx));
  assert_param(IS_FUNCTIONAL_STATE(NewState));
  
  if (NewState != DISABLE)
20007200:	78fb      	ldrb	r3, [r7, #3]
20007202:	2b00      	cmp	r3, #0
20007204:	d008      	beq.n	20007218 <USART_LINCmd+0x24>
  {
    /* Enable the LIN mode by setting the LINEN bit in the CR2 register */
    USARTx->CR2 |= USART_CR2_LINEN;
20007206:	687b      	ldr	r3, [r7, #4]
20007208:	8a1b      	ldrh	r3, [r3, #16]
2000720a:	b29b      	uxth	r3, r3
2000720c:	f443 4380 	orr.w	r3, r3, #16384	@ 0x4000
20007210:	b29a      	uxth	r2, r3
20007212:	687b      	ldr	r3, [r7, #4]
20007214:	821a      	strh	r2, [r3, #16]
  else
  {
    /* Disable the LIN mode by clearing the LINEN bit in the CR2 register */
    USARTx->CR2 &= (uint16_t)~((uint16_t)USART_CR2_LINEN);
  }
}
20007216:	e007      	b.n	20007228 <USART_LINCmd+0x34>
    USARTx->CR2 &= (uint16_t)~((uint16_t)USART_CR2_LINEN);
20007218:	687b      	ldr	r3, [r7, #4]
2000721a:	8a1b      	ldrh	r3, [r3, #16]
2000721c:	b29b      	uxth	r3, r3
2000721e:	f423 4380 	bic.w	r3, r3, #16384	@ 0x4000
20007222:	b29a      	uxth	r2, r3
20007224:	687b      	ldr	r3, [r7, #4]
20007226:	821a      	strh	r2, [r3, #16]
}
20007228:	bf00      	nop
2000722a:	370c      	adds	r7, #12
2000722c:	46bd      	mov	sp, r7
2000722e:	f85d 7b04 	ldr.w	r7, [sp], #4
20007232:	4770      	bx	lr

20007234 <USART_SendBreak>:
  * @param  USARTx: where x can be 1, 2, 3, 4, 5, 6, 7 or 8 to select the USART or 
  *         UART peripheral.
  * @retval None
  */
void USART_SendBreak(USART_TypeDef* USARTx)
{
20007234:	b480      	push	{r7}
20007236:	b083      	sub	sp, #12
20007238:	af00      	add	r7, sp, #0
2000723a:	6078      	str	r0, [r7, #4]
  /* Check the parameters */
  assert_param(IS_USART_ALL_PERIPH(USARTx));
  
  /* Send break characters */
  USARTx->CR1 |= USART_CR1_SBK;
2000723c:	687b      	ldr	r3, [r7, #4]
2000723e:	899b      	ldrh	r3, [r3, #12]
20007240:	b29b      	uxth	r3, r3
20007242:	f043 0301 	orr.w	r3, r3, #1
20007246:	b29a      	uxth	r2, r3
20007248:	687b      	ldr	r3, [r7, #4]
2000724a:	819a      	strh	r2, [r3, #12]
}
2000724c:	bf00      	nop
2000724e:	370c      	adds	r7, #12
20007250:	46bd      	mov	sp, r7
20007252:	f85d 7b04 	ldr.w	r7, [sp], #4
20007256:	4770      	bx	lr

20007258 <USART_HalfDuplexCmd>:
  * @param  NewState: new state of the USART Communication.
  *          This parameter can be: ENABLE or DISABLE.
  * @retval None
  */
void USART_HalfDuplexCmd(USART_TypeDef* USARTx, FunctionalState NewState)
{
20007258:	b480      	push	{r7}
2000725a:	b083      	sub	sp, #12
2000725c:	af00      	add	r7, sp, #0
2000725e:	6078      	str	r0, [r7, #4]
20007260:	460b      	mov	r3, r1
20007262:	70fb      	strb	r3, [r7, #3]
  /* Check the parameters */
  assert_param(IS_USART_ALL_PERIPH(USARTx));
  assert_param(IS_FUNCTIONAL_STATE(NewState));
  
  if (NewState != DISABLE)
20007264:	78fb      	ldrb	r3, [r7, #3]
20007266:	2b00      	cmp	r3, #0
20007268:	d008      	beq.n	2000727c <USART_HalfDuplexCmd+0x24>
  {
    /* Enable the Half-Duplex mode by setting the HDSEL bit in the CR3 register */
    USARTx->CR3 |= USART_CR3_HDSEL;
2000726a:	687b      	ldr	r3, [r7, #4]
2000726c:	8a9b      	ldrh	r3, [r3, #20]
2000726e:	b29b      	uxth	r3, r3
20007270:	f043 0308 	orr.w	r3, r3, #8
20007274:	b29a      	uxth	r2, r3
20007276:	687b      	ldr	r3, [r7, #4]
20007278:	829a      	strh	r2, [r3, #20]
  else
  {
    /* Disable the Half-Duplex mode by clearing the HDSEL bit in the CR3 register */
    USARTx->CR3 &= (uint16_t)~((uint16_t)USART_CR3_HDSEL);
  }
}
2000727a:	e007      	b.n	2000728c <USART_HalfDuplexCmd+0x34>
    USARTx->CR3 &= (uint16_t)~((uint16_t)USART_CR3_HDSEL);
2000727c:	687b      	ldr	r3, [r7, #4]
2000727e:	8a9b      	ldrh	r3, [r3, #20]
20007280:	b29b      	uxth	r3, r3
20007282:	f023 0308 	bic.w	r3, r3, #8
20007286:	b29a      	uxth	r2, r3
20007288:	687b      	ldr	r3, [r7, #4]
2000728a:	829a      	strh	r2, [r3, #20]
}
2000728c:	bf00      	nop
2000728e:	370c      	adds	r7, #12
20007290:	46bd      	mov	sp, r7
20007292:	f85d 7b04 	ldr.w	r7, [sp], #4
20007296:	4770      	bx	lr

20007298 <USART_SetGuardTime>:
  *         UART peripheral.
  * @param  USART_GuardTime: specifies the guard time.   
  * @retval None
  */
void USART_SetGuardTime(USART_TypeDef* USARTx, uint8_t USART_GuardTime)
{    
20007298:	b480      	push	{r7}
2000729a:	b083      	sub	sp, #12
2000729c:	af00      	add	r7, sp, #0
2000729e:	6078      	str	r0, [r7, #4]
200072a0:	460b      	mov	r3, r1
200072a2:	70fb      	strb	r3, [r7, #3]
  /* Check the parameters */
  assert_param(IS_USART_1236_PERIPH(USARTx));
  
  /* Clear the USART Guard time */
  USARTx->GTPR &= USART_GTPR_PSC;
200072a4:	687b      	ldr	r3, [r7, #4]
200072a6:	8b1b      	ldrh	r3, [r3, #24]
200072a8:	b29b      	uxth	r3, r3
200072aa:	b2db      	uxtb	r3, r3
200072ac:	b29a      	uxth	r2, r3
200072ae:	687b      	ldr	r3, [r7, #4]
200072b0:	831a      	strh	r2, [r3, #24]
  /* Set the USART guard time */
  USARTx->GTPR |= (uint16_t)((uint16_t)USART_GuardTime << 0x08);
200072b2:	687b      	ldr	r3, [r7, #4]
200072b4:	8b1b      	ldrh	r3, [r3, #24]
200072b6:	b29a      	uxth	r2, r3
200072b8:	78fb      	ldrb	r3, [r7, #3]
200072ba:	b29b      	uxth	r3, r3
200072bc:	021b      	lsls	r3, r3, #8
200072be:	b29b      	uxth	r3, r3
200072c0:	4313      	orrs	r3, r2
200072c2:	b29a      	uxth	r2, r3
200072c4:	687b      	ldr	r3, [r7, #4]
200072c6:	831a      	strh	r2, [r3, #24]
}
200072c8:	bf00      	nop
200072ca:	370c      	adds	r7, #12
200072cc:	46bd      	mov	sp, r7
200072ce:	f85d 7b04 	ldr.w	r7, [sp], #4
200072d2:	4770      	bx	lr

200072d4 <USART_SmartCardCmd>:
  * @param  NewState: new state of the Smart Card mode.
  *          This parameter can be: ENABLE or DISABLE.      
  * @retval None
  */
void USART_SmartCardCmd(USART_TypeDef* USARTx, FunctionalState NewState)
{
200072d4:	b480      	push	{r7}
200072d6:	b083      	sub	sp, #12
200072d8:	af00      	add	r7, sp, #0
200072da:	6078      	str	r0, [r7, #4]
200072dc:	460b      	mov	r3, r1
200072de:	70fb      	strb	r3, [r7, #3]
  /* Check the parameters */
  assert_param(IS_USART_1236_PERIPH(USARTx));
  assert_param(IS_FUNCTIONAL_STATE(NewState));
  if (NewState != DISABLE)
200072e0:	78fb      	ldrb	r3, [r7, #3]
200072e2:	2b00      	cmp	r3, #0
200072e4:	d008      	beq.n	200072f8 <USART_SmartCardCmd+0x24>
  {
    /* Enable the SC mode by setting the SCEN bit in the CR3 register */
    USARTx->CR3 |= USART_CR3_SCEN;
200072e6:	687b      	ldr	r3, [r7, #4]
200072e8:	8a9b      	ldrh	r3, [r3, #20]
200072ea:	b29b      	uxth	r3, r3
200072ec:	f043 0320 	orr.w	r3, r3, #32
200072f0:	b29a      	uxth	r2, r3
200072f2:	687b      	ldr	r3, [r7, #4]
200072f4:	829a      	strh	r2, [r3, #20]
  else
  {
    /* Disable the SC mode by clearing the SCEN bit in the CR3 register */
    USARTx->CR3 &= (uint16_t)~((uint16_t)USART_CR3_SCEN);
  }
}
200072f6:	e007      	b.n	20007308 <USART_SmartCardCmd+0x34>
    USARTx->CR3 &= (uint16_t)~((uint16_t)USART_CR3_SCEN);
200072f8:	687b      	ldr	r3, [r7, #4]
200072fa:	8a9b      	ldrh	r3, [r3, #20]
200072fc:	b29b      	uxth	r3, r3
200072fe:	f023 0320 	bic.w	r3, r3, #32
20007302:	b29a      	uxth	r2, r3
20007304:	687b      	ldr	r3, [r7, #4]
20007306:	829a      	strh	r2, [r3, #20]
}
20007308:	bf00      	nop
2000730a:	370c      	adds	r7, #12
2000730c:	46bd      	mov	sp, r7
2000730e:	f85d 7b04 	ldr.w	r7, [sp], #4
20007312:	4770      	bx	lr

20007314 <USART_SmartCardNACKCmd>:
  * @param  NewState: new state of the NACK transmission.
  *          This parameter can be: ENABLE or DISABLE.  
  * @retval None
  */
void USART_SmartCardNACKCmd(USART_TypeDef* USARTx, FunctionalState NewState)
{
20007314:	b480      	push	{r7}
20007316:	b083      	sub	sp, #12
20007318:	af00      	add	r7, sp, #0
2000731a:	6078      	str	r0, [r7, #4]
2000731c:	460b      	mov	r3, r1
2000731e:	70fb      	strb	r3, [r7, #3]
  /* Check the parameters */
  assert_param(IS_USART_1236_PERIPH(USARTx)); 
  assert_param(IS_FUNCTIONAL_STATE(NewState));
  if (NewState != DISABLE)
20007320:	78fb      	ldrb	r3, [r7, #3]
20007322:	2b00      	cmp	r3, #0
20007324:	d008      	beq.n	20007338 <USART_SmartCardNACKCmd+0x24>
  {
    /* Enable the NACK transmission by setting the NACK bit in the CR3 register */
    USARTx->CR3 |= USART_CR3_NACK;
20007326:	687b      	ldr	r3, [r7, #4]
20007328:	8a9b      	ldrh	r3, [r3, #20]
2000732a:	b29b      	uxth	r3, r3
2000732c:	f043 0310 	orr.w	r3, r3, #16
20007330:	b29a      	uxth	r2, r3
20007332:	687b      	ldr	r3, [r7, #4]
20007334:	829a      	strh	r2, [r3, #20]
  else
  {
    /* Disable the NACK transmission by clearing the NACK bit in the CR3 register */
    USARTx->CR3 &= (uint16_t)~((uint16_t)USART_CR3_NACK);
  }
}
20007336:	e007      	b.n	20007348 <USART_SmartCardNACKCmd+0x34>
    USARTx->CR3 &= (uint16_t)~((uint16_t)USART_CR3_NACK);
20007338:	687b      	ldr	r3, [r7, #4]
2000733a:	8a9b      	ldrh	r3, [r3, #20]
2000733c:	b29b      	uxth	r3, r3
2000733e:	f023 0310 	bic.w	r3, r3, #16
20007342:	b29a      	uxth	r2, r3
20007344:	687b      	ldr	r3, [r7, #4]
20007346:	829a      	strh	r2, [r3, #20]
}
20007348:	bf00      	nop
2000734a:	370c      	adds	r7, #12
2000734c:	46bd      	mov	sp, r7
2000734e:	f85d 7b04 	ldr.w	r7, [sp], #4
20007352:	4770      	bx	lr

20007354 <USART_IrDAConfig>:
  *            @arg USART_IrDAMode_LowPower
  *            @arg USART_IrDAMode_Normal
  * @retval None
  */
void USART_IrDAConfig(USART_TypeDef* USARTx, uint16_t USART_IrDAMode)
{
20007354:	b480      	push	{r7}
20007356:	b083      	sub	sp, #12
20007358:	af00      	add	r7, sp, #0
2000735a:	6078      	str	r0, [r7, #4]
2000735c:	460b      	mov	r3, r1
2000735e:	807b      	strh	r3, [r7, #2]
  /* Check the parameters */
  assert_param(IS_USART_ALL_PERIPH(USARTx));
  assert_param(IS_USART_IRDA_MODE(USART_IrDAMode));
    
  USARTx->CR3 &= (uint16_t)~((uint16_t)USART_CR3_IRLP);
20007360:	687b      	ldr	r3, [r7, #4]
20007362:	8a9b      	ldrh	r3, [r3, #20]
20007364:	b29b      	uxth	r3, r3
20007366:	f023 0304 	bic.w	r3, r3, #4
2000736a:	b29a      	uxth	r2, r3
2000736c:	687b      	ldr	r3, [r7, #4]
2000736e:	829a      	strh	r2, [r3, #20]
  USARTx->CR3 |= USART_IrDAMode;
20007370:	687b      	ldr	r3, [r7, #4]
20007372:	8a9b      	ldrh	r3, [r3, #20]
20007374:	b29a      	uxth	r2, r3
20007376:	887b      	ldrh	r3, [r7, #2]
20007378:	4313      	orrs	r3, r2
2000737a:	b29a      	uxth	r2, r3
2000737c:	687b      	ldr	r3, [r7, #4]
2000737e:	829a      	strh	r2, [r3, #20]
}
20007380:	bf00      	nop
20007382:	370c      	adds	r7, #12
20007384:	46bd      	mov	sp, r7
20007386:	f85d 7b04 	ldr.w	r7, [sp], #4
2000738a:	4770      	bx	lr

2000738c <USART_IrDACmd>:
  * @param  NewState: new state of the IrDA mode.
  *          This parameter can be: ENABLE or DISABLE.
  * @retval None
  */
void USART_IrDACmd(USART_TypeDef* USARTx, FunctionalState NewState)
{
2000738c:	b480      	push	{r7}
2000738e:	b083      	sub	sp, #12
20007390:	af00      	add	r7, sp, #0
20007392:	6078      	str	r0, [r7, #4]
20007394:	460b      	mov	r3, r1
20007396:	70fb      	strb	r3, [r7, #3]
  /* Check the parameters */
  assert_param(IS_USART_ALL_PERIPH(USARTx));
  assert_param(IS_FUNCTIONAL_STATE(NewState));
    
  if (NewState != DISABLE)
20007398:	78fb      	ldrb	r3, [r7, #3]
2000739a:	2b00      	cmp	r3, #0
2000739c:	d008      	beq.n	200073b0 <USART_IrDACmd+0x24>
  {
    /* Enable the IrDA mode by setting the IREN bit in the CR3 register */
    USARTx->CR3 |= USART_CR3_IREN;
2000739e:	687b      	ldr	r3, [r7, #4]
200073a0:	8a9b      	ldrh	r3, [r3, #20]
200073a2:	b29b      	uxth	r3, r3
200073a4:	f043 0302 	orr.w	r3, r3, #2
200073a8:	b29a      	uxth	r2, r3
200073aa:	687b      	ldr	r3, [r7, #4]
200073ac:	829a      	strh	r2, [r3, #20]
  else
  {
    /* Disable the IrDA mode by clearing the IREN bit in the CR3 register */
    USARTx->CR3 &= (uint16_t)~((uint16_t)USART_CR3_IREN);
  }
}
200073ae:	e007      	b.n	200073c0 <USART_IrDACmd+0x34>
    USARTx->CR3 &= (uint16_t)~((uint16_t)USART_CR3_IREN);
200073b0:	687b      	ldr	r3, [r7, #4]
200073b2:	8a9b      	ldrh	r3, [r3, #20]
200073b4:	b29b      	uxth	r3, r3
200073b6:	f023 0302 	bic.w	r3, r3, #2
200073ba:	b29a      	uxth	r2, r3
200073bc:	687b      	ldr	r3, [r7, #4]
200073be:	829a      	strh	r2, [r3, #20]
}
200073c0:	bf00      	nop
200073c2:	370c      	adds	r7, #12
200073c4:	46bd      	mov	sp, r7
200073c6:	f85d 7b04 	ldr.w	r7, [sp], #4
200073ca:	4770      	bx	lr

200073cc <USART_DMACmd>:
  * @param  NewState: new state of the DMA Request sources.
  *          This parameter can be: ENABLE or DISABLE.   
  * @retval None
  */
void USART_DMACmd(USART_TypeDef* USARTx, uint16_t USART_DMAReq, FunctionalState NewState)
{
200073cc:	b480      	push	{r7}
200073ce:	b083      	sub	sp, #12
200073d0:	af00      	add	r7, sp, #0
200073d2:	6078      	str	r0, [r7, #4]
200073d4:	460b      	mov	r3, r1
200073d6:	807b      	strh	r3, [r7, #2]
200073d8:	4613      	mov	r3, r2
200073da:	707b      	strb	r3, [r7, #1]
  /* Check the parameters */
  assert_param(IS_USART_ALL_PERIPH(USARTx));
  assert_param(IS_USART_DMAREQ(USART_DMAReq));  
  assert_param(IS_FUNCTIONAL_STATE(NewState)); 

  if (NewState != DISABLE)
200073dc:	787b      	ldrb	r3, [r7, #1]
200073de:	2b00      	cmp	r3, #0
200073e0:	d008      	beq.n	200073f4 <USART_DMACmd+0x28>
  {
    /* Enable the DMA transfer for selected requests by setting the DMAT and/or
       DMAR bits in the USART CR3 register */
    USARTx->CR3 |= USART_DMAReq;
200073e2:	687b      	ldr	r3, [r7, #4]
200073e4:	8a9b      	ldrh	r3, [r3, #20]
200073e6:	b29a      	uxth	r2, r3
200073e8:	887b      	ldrh	r3, [r7, #2]
200073ea:	4313      	orrs	r3, r2
200073ec:	b29a      	uxth	r2, r3
200073ee:	687b      	ldr	r3, [r7, #4]
200073f0:	829a      	strh	r2, [r3, #20]
  {
    /* Disable the DMA transfer for selected requests by clearing the DMAT and/or
       DMAR bits in the USART CR3 register */
    USARTx->CR3 &= (uint16_t)~USART_DMAReq;
  }
}
200073f2:	e009      	b.n	20007408 <USART_DMACmd+0x3c>
    USARTx->CR3 &= (uint16_t)~USART_DMAReq;
200073f4:	687b      	ldr	r3, [r7, #4]
200073f6:	8a9b      	ldrh	r3, [r3, #20]
200073f8:	b29a      	uxth	r2, r3
200073fa:	887b      	ldrh	r3, [r7, #2]
200073fc:	43db      	mvns	r3, r3
200073fe:	b29b      	uxth	r3, r3
20007400:	4013      	ands	r3, r2
20007402:	b29a      	uxth	r2, r3
20007404:	687b      	ldr	r3, [r7, #4]
20007406:	829a      	strh	r2, [r3, #20]
}
20007408:	bf00      	nop
2000740a:	370c      	adds	r7, #12
2000740c:	46bd      	mov	sp, r7
2000740e:	f85d 7b04 	ldr.w	r7, [sp], #4
20007412:	4770      	bx	lr

20007414 <USART_ITConfig>:
  * @param  NewState: new state of the specified USARTx interrupts.
  *          This parameter can be: ENABLE or DISABLE.
  * @retval None
  */
void USART_ITConfig(USART_TypeDef* USARTx, uint16_t USART_IT, FunctionalState NewState)
{
20007414:	b480      	push	{r7}
20007416:	b087      	sub	sp, #28
20007418:	af00      	add	r7, sp, #0
2000741a:	6078      	str	r0, [r7, #4]
2000741c:	460b      	mov	r3, r1
2000741e:	807b      	strh	r3, [r7, #2]
20007420:	4613      	mov	r3, r2
20007422:	707b      	strb	r3, [r7, #1]
  uint32_t usartreg = 0x00, itpos = 0x00, itmask = 0x00;
20007424:	2300      	movs	r3, #0
20007426:	613b      	str	r3, [r7, #16]
20007428:	2300      	movs	r3, #0
2000742a:	60fb      	str	r3, [r7, #12]
2000742c:	2300      	movs	r3, #0
2000742e:	60bb      	str	r3, [r7, #8]
  uint32_t usartxbase = 0x00;
20007430:	2300      	movs	r3, #0
20007432:	617b      	str	r3, [r7, #20]
  if (USART_IT == USART_IT_CTS)
  {
    assert_param(IS_USART_1236_PERIPH(USARTx));
  } 
    
  usartxbase = (uint32_t)USARTx;
20007434:	687b      	ldr	r3, [r7, #4]
20007436:	617b      	str	r3, [r7, #20]

  /* Get the USART register index */
  usartreg = (((uint8_t)USART_IT) >> 0x05);
20007438:	887b      	ldrh	r3, [r7, #2]
2000743a:	b2db      	uxtb	r3, r3
2000743c:	095b      	lsrs	r3, r3, #5
2000743e:	b2db      	uxtb	r3, r3
20007440:	613b      	str	r3, [r7, #16]

  /* Get the interrupt position */
  itpos = USART_IT & IT_MASK;
20007442:	887b      	ldrh	r3, [r7, #2]
20007444:	f003 031f 	and.w	r3, r3, #31
20007448:	60fb      	str	r3, [r7, #12]
  itmask = (((uint32_t)0x01) << itpos);
2000744a:	2201      	movs	r2, #1
2000744c:	68fb      	ldr	r3, [r7, #12]
2000744e:	fa02 f303 	lsl.w	r3, r2, r3
20007452:	60bb      	str	r3, [r7, #8]
    
  if (usartreg == 0x01) /* The IT is in CR1 register */
20007454:	693b      	ldr	r3, [r7, #16]
20007456:	2b01      	cmp	r3, #1
20007458:	d103      	bne.n	20007462 <USART_ITConfig+0x4e>
  {
    usartxbase += 0x0C;
2000745a:	697b      	ldr	r3, [r7, #20]
2000745c:	330c      	adds	r3, #12
2000745e:	617b      	str	r3, [r7, #20]
20007460:	e009      	b.n	20007476 <USART_ITConfig+0x62>
  }
  else if (usartreg == 0x02) /* The IT is in CR2 register */
20007462:	693b      	ldr	r3, [r7, #16]
20007464:	2b02      	cmp	r3, #2
20007466:	d103      	bne.n	20007470 <USART_ITConfig+0x5c>
  {
    usartxbase += 0x10;
20007468:	697b      	ldr	r3, [r7, #20]
2000746a:	3310      	adds	r3, #16
2000746c:	617b      	str	r3, [r7, #20]
2000746e:	e002      	b.n	20007476 <USART_ITConfig+0x62>
  }
  else /* The IT is in CR3 register */
  {
    usartxbase += 0x14; 
20007470:	697b      	ldr	r3, [r7, #20]
20007472:	3314      	adds	r3, #20
20007474:	617b      	str	r3, [r7, #20]
  }
  if (NewState != DISABLE)
20007476:	787b      	ldrb	r3, [r7, #1]
20007478:	2b00      	cmp	r3, #0
2000747a:	d006      	beq.n	2000748a <USART_ITConfig+0x76>
  {
    *(__IO uint32_t*)usartxbase  |= itmask;
2000747c:	697b      	ldr	r3, [r7, #20]
2000747e:	6819      	ldr	r1, [r3, #0]
20007480:	697b      	ldr	r3, [r7, #20]
20007482:	68ba      	ldr	r2, [r7, #8]
20007484:	430a      	orrs	r2, r1
20007486:	601a      	str	r2, [r3, #0]
  }
  else
  {
    *(__IO uint32_t*)usartxbase &= ~itmask;
  }
}
20007488:	e006      	b.n	20007498 <USART_ITConfig+0x84>
    *(__IO uint32_t*)usartxbase &= ~itmask;
2000748a:	697b      	ldr	r3, [r7, #20]
2000748c:	6819      	ldr	r1, [r3, #0]
2000748e:	68bb      	ldr	r3, [r7, #8]
20007490:	43da      	mvns	r2, r3
20007492:	697b      	ldr	r3, [r7, #20]
20007494:	400a      	ands	r2, r1
20007496:	601a      	str	r2, [r3, #0]
}
20007498:	bf00      	nop
2000749a:	371c      	adds	r7, #28
2000749c:	46bd      	mov	sp, r7
2000749e:	f85d 7b04 	ldr.w	r7, [sp], #4
200074a2:	4770      	bx	lr

200074a4 <USART_GetFlagStatus>:
  *            @arg USART_FLAG_FE:   Framing Error flag
  *            @arg USART_FLAG_PE:   Parity Error flag
  * @retval The new state of USART_FLAG (SET or RESET).
  */
FlagStatus USART_GetFlagStatus(USART_TypeDef* USARTx, uint16_t USART_FLAG)
{
200074a4:	b480      	push	{r7}
200074a6:	b085      	sub	sp, #20
200074a8:	af00      	add	r7, sp, #0
200074aa:	6078      	str	r0, [r7, #4]
200074ac:	460b      	mov	r3, r1
200074ae:	807b      	strh	r3, [r7, #2]
  FlagStatus bitstatus = RESET;
200074b0:	2300      	movs	r3, #0
200074b2:	73fb      	strb	r3, [r7, #15]
  if (USART_FLAG == USART_FLAG_CTS)
  {
    assert_param(IS_USART_1236_PERIPH(USARTx));
  } 
    
  if ((USARTx->SR & USART_FLAG) != (uint16_t)RESET)
200074b4:	687b      	ldr	r3, [r7, #4]
200074b6:	881b      	ldrh	r3, [r3, #0]
200074b8:	b29a      	uxth	r2, r3
200074ba:	887b      	ldrh	r3, [r7, #2]
200074bc:	4013      	ands	r3, r2
200074be:	b29b      	uxth	r3, r3
200074c0:	2b00      	cmp	r3, #0
200074c2:	d002      	beq.n	200074ca <USART_GetFlagStatus+0x26>
  {
    bitstatus = SET;
200074c4:	2301      	movs	r3, #1
200074c6:	73fb      	strb	r3, [r7, #15]
200074c8:	e001      	b.n	200074ce <USART_GetFlagStatus+0x2a>
  }
  else
  {
    bitstatus = RESET;
200074ca:	2300      	movs	r3, #0
200074cc:	73fb      	strb	r3, [r7, #15]
  }
  return bitstatus;
200074ce:	7bfb      	ldrb	r3, [r7, #15]
}
200074d0:	4618      	mov	r0, r3
200074d2:	3714      	adds	r7, #20
200074d4:	46bd      	mov	sp, r7
200074d6:	f85d 7b04 	ldr.w	r7, [sp], #4
200074da:	4770      	bx	lr

200074dc <USART_ClearFlag>:
  *          (USART_SendData()).
  *   
  * @retval None
  */
void USART_ClearFlag(USART_TypeDef* USARTx, uint16_t USART_FLAG)
{
200074dc:	b480      	push	{r7}
200074de:	b083      	sub	sp, #12
200074e0:	af00      	add	r7, sp, #0
200074e2:	6078      	str	r0, [r7, #4]
200074e4:	460b      	mov	r3, r1
200074e6:	807b      	strh	r3, [r7, #2]
  if ((USART_FLAG & USART_FLAG_CTS) == USART_FLAG_CTS)
  {
    assert_param(IS_USART_1236_PERIPH(USARTx));
  } 
       
  USARTx->SR = (uint16_t)~USART_FLAG;
200074e8:	887b      	ldrh	r3, [r7, #2]
200074ea:	43db      	mvns	r3, r3
200074ec:	b29a      	uxth	r2, r3
200074ee:	687b      	ldr	r3, [r7, #4]
200074f0:	801a      	strh	r2, [r3, #0]
}
200074f2:	bf00      	nop
200074f4:	370c      	adds	r7, #12
200074f6:	46bd      	mov	sp, r7
200074f8:	f85d 7b04 	ldr.w	r7, [sp], #4
200074fc:	4770      	bx	lr

200074fe <USART_GetITStatus>:
  *            @arg USART_IT_FE:   Framing Error interrupt
  *            @arg USART_IT_PE:   Parity Error interrupt
  * @retval The new state of USART_IT (SET or RESET).
  */
ITStatus USART_GetITStatus(USART_TypeDef* USARTx, uint16_t USART_IT)
{
200074fe:	b480      	push	{r7}
20007500:	b087      	sub	sp, #28
20007502:	af00      	add	r7, sp, #0
20007504:	6078      	str	r0, [r7, #4]
20007506:	460b      	mov	r3, r1
20007508:	807b      	strh	r3, [r7, #2]
  uint32_t bitpos = 0x00, itmask = 0x00, usartreg = 0x00;
2000750a:	2300      	movs	r3, #0
2000750c:	60fb      	str	r3, [r7, #12]
2000750e:	2300      	movs	r3, #0
20007510:	617b      	str	r3, [r7, #20]
20007512:	2300      	movs	r3, #0
20007514:	60bb      	str	r3, [r7, #8]
  ITStatus bitstatus = RESET;
20007516:	2300      	movs	r3, #0
20007518:	74fb      	strb	r3, [r7, #19]
  {
    assert_param(IS_USART_1236_PERIPH(USARTx));
  } 
    
  /* Get the USART register index */
  usartreg = (((uint8_t)USART_IT) >> 0x05);
2000751a:	887b      	ldrh	r3, [r7, #2]
2000751c:	b2db      	uxtb	r3, r3
2000751e:	095b      	lsrs	r3, r3, #5
20007520:	b2db      	uxtb	r3, r3
20007522:	60bb      	str	r3, [r7, #8]
  /* Get the interrupt position */
  itmask = USART_IT & IT_MASK;
20007524:	887b      	ldrh	r3, [r7, #2]
20007526:	f003 031f 	and.w	r3, r3, #31
2000752a:	617b      	str	r3, [r7, #20]
  itmask = (uint32_t)0x01 << itmask;
2000752c:	2201      	movs	r2, #1
2000752e:	697b      	ldr	r3, [r7, #20]
20007530:	fa02 f303 	lsl.w	r3, r2, r3
20007534:	617b      	str	r3, [r7, #20]
  
  if (usartreg == 0x01) /* The IT  is in CR1 register */
20007536:	68bb      	ldr	r3, [r7, #8]
20007538:	2b01      	cmp	r3, #1
2000753a:	d107      	bne.n	2000754c <USART_GetITStatus+0x4e>
  {
    itmask &= USARTx->CR1;
2000753c:	687b      	ldr	r3, [r7, #4]
2000753e:	899b      	ldrh	r3, [r3, #12]
20007540:	b29b      	uxth	r3, r3
20007542:	461a      	mov	r2, r3
20007544:	697b      	ldr	r3, [r7, #20]
20007546:	4013      	ands	r3, r2
20007548:	617b      	str	r3, [r7, #20]
2000754a:	e011      	b.n	20007570 <USART_GetITStatus+0x72>
  }
  else if (usartreg == 0x02) /* The IT  is in CR2 register */
2000754c:	68bb      	ldr	r3, [r7, #8]
2000754e:	2b02      	cmp	r3, #2
20007550:	d107      	bne.n	20007562 <USART_GetITStatus+0x64>
  {
    itmask &= USARTx->CR2;
20007552:	687b      	ldr	r3, [r7, #4]
20007554:	8a1b      	ldrh	r3, [r3, #16]
20007556:	b29b      	uxth	r3, r3
20007558:	461a      	mov	r2, r3
2000755a:	697b      	ldr	r3, [r7, #20]
2000755c:	4013      	ands	r3, r2
2000755e:	617b      	str	r3, [r7, #20]
20007560:	e006      	b.n	20007570 <USART_GetITStatus+0x72>
  }
  else /* The IT  is in CR3 register */
  {
    itmask &= USARTx->CR3;
20007562:	687b      	ldr	r3, [r7, #4]
20007564:	8a9b      	ldrh	r3, [r3, #20]
20007566:	b29b      	uxth	r3, r3
20007568:	461a      	mov	r2, r3
2000756a:	697b      	ldr	r3, [r7, #20]
2000756c:	4013      	ands	r3, r2
2000756e:	617b      	str	r3, [r7, #20]
  }
  
  bitpos = USART_IT >> 0x08;
20007570:	887b      	ldrh	r3, [r7, #2]
20007572:	0a1b      	lsrs	r3, r3, #8
20007574:	b29b      	uxth	r3, r3
20007576:	60fb      	str	r3, [r7, #12]
  bitpos = (uint32_t)0x01 << bitpos;
20007578:	2201      	movs	r2, #1
2000757a:	68fb      	ldr	r3, [r7, #12]
2000757c:	fa02 f303 	lsl.w	r3, r2, r3
20007580:	60fb      	str	r3, [r7, #12]
  bitpos &= USARTx->SR;
20007582:	687b      	ldr	r3, [r7, #4]
20007584:	881b      	ldrh	r3, [r3, #0]
20007586:	b29b      	uxth	r3, r3
20007588:	461a      	mov	r2, r3
2000758a:	68fb      	ldr	r3, [r7, #12]
2000758c:	4013      	ands	r3, r2
2000758e:	60fb      	str	r3, [r7, #12]
  if ((itmask != (uint16_t)RESET)&&(bitpos != (uint16_t)RESET))
20007590:	697b      	ldr	r3, [r7, #20]
20007592:	2b00      	cmp	r3, #0
20007594:	d005      	beq.n	200075a2 <USART_GetITStatus+0xa4>
20007596:	68fb      	ldr	r3, [r7, #12]
20007598:	2b00      	cmp	r3, #0
2000759a:	d002      	beq.n	200075a2 <USART_GetITStatus+0xa4>
  {
    bitstatus = SET;
2000759c:	2301      	movs	r3, #1
2000759e:	74fb      	strb	r3, [r7, #19]
200075a0:	e001      	b.n	200075a6 <USART_GetITStatus+0xa8>
  }
  else
  {
    bitstatus = RESET;
200075a2:	2300      	movs	r3, #0
200075a4:	74fb      	strb	r3, [r7, #19]
  }
  
  return bitstatus;  
200075a6:	7cfb      	ldrb	r3, [r7, #19]
}
200075a8:	4618      	mov	r0, r3
200075aa:	371c      	adds	r7, #28
200075ac:	46bd      	mov	sp, r7
200075ae:	f85d 7b04 	ldr.w	r7, [sp], #4
200075b2:	4770      	bx	lr

200075b4 <USART_ClearITPendingBit>:
  *          (USART_SendData()).
  *  
  * @retval None
  */
void USART_ClearITPendingBit(USART_TypeDef* USARTx, uint16_t USART_IT)
{
200075b4:	b480      	push	{r7}
200075b6:	b085      	sub	sp, #20
200075b8:	af00      	add	r7, sp, #0
200075ba:	6078      	str	r0, [r7, #4]
200075bc:	460b      	mov	r3, r1
200075be:	807b      	strh	r3, [r7, #2]
  uint16_t bitpos = 0x00, itmask = 0x00;
200075c0:	2300      	movs	r3, #0
200075c2:	81fb      	strh	r3, [r7, #14]
200075c4:	2300      	movs	r3, #0
200075c6:	81bb      	strh	r3, [r7, #12]
  if (USART_IT == USART_IT_CTS)
  {
    assert_param(IS_USART_1236_PERIPH(USARTx));
  } 
    
  bitpos = USART_IT >> 0x08;
200075c8:	887b      	ldrh	r3, [r7, #2]
200075ca:	0a1b      	lsrs	r3, r3, #8
200075cc:	81fb      	strh	r3, [r7, #14]
  itmask = ((uint16_t)0x01 << (uint16_t)bitpos);
200075ce:	89fb      	ldrh	r3, [r7, #14]
200075d0:	2201      	movs	r2, #1
200075d2:	fa02 f303 	lsl.w	r3, r2, r3
200075d6:	81bb      	strh	r3, [r7, #12]
  USARTx->SR = (uint16_t)~itmask;
200075d8:	89bb      	ldrh	r3, [r7, #12]
200075da:	43db      	mvns	r3, r3
200075dc:	b29a      	uxth	r2, r3
200075de:	687b      	ldr	r3, [r7, #4]
200075e0:	801a      	strh	r2, [r3, #0]
}
200075e2:	bf00      	nop
200075e4:	3714      	adds	r7, #20
200075e6:	46bd      	mov	sp, r7
200075e8:	f85d 7b04 	ldr.w	r7, [sp], #4
200075ec:	4770      	bx	lr
200075ee:	bf00      	nop

200075f0 <memchr>:
200075f0:	f001 01ff 	and.w	r1, r1, #255	@ 0xff
200075f4:	2a10      	cmp	r2, #16
200075f6:	db2b      	blt.n	20007650 <memchr+0x60>
200075f8:	f010 0f07 	tst.w	r0, #7
200075fc:	d008      	beq.n	20007610 <memchr+0x20>
200075fe:	f810 3b01 	ldrb.w	r3, [r0], #1
20007602:	3a01      	subs	r2, #1
20007604:	428b      	cmp	r3, r1
20007606:	d02d      	beq.n	20007664 <memchr+0x74>
20007608:	f010 0f07 	tst.w	r0, #7
2000760c:	b342      	cbz	r2, 20007660 <memchr+0x70>
2000760e:	d1f6      	bne.n	200075fe <memchr+0xe>
20007610:	b4f0      	push	{r4, r5, r6, r7}
20007612:	ea41 2101 	orr.w	r1, r1, r1, lsl #8
20007616:	ea41 4101 	orr.w	r1, r1, r1, lsl #16
2000761a:	f022 0407 	bic.w	r4, r2, #7
2000761e:	f07f 0700 	mvns.w	r7, #0
20007622:	2300      	movs	r3, #0
20007624:	e8f0 5602 	ldrd	r5, r6, [r0], #8
20007628:	3c08      	subs	r4, #8
2000762a:	ea85 0501 	eor.w	r5, r5, r1
2000762e:	ea86 0601 	eor.w	r6, r6, r1
20007632:	fa85 f547 	uadd8	r5, r5, r7
20007636:	faa3 f587 	sel	r5, r3, r7
2000763a:	fa86 f647 	uadd8	r6, r6, r7
2000763e:	faa5 f687 	sel	r6, r5, r7
20007642:	b98e      	cbnz	r6, 20007668 <memchr+0x78>
20007644:	d1ee      	bne.n	20007624 <memchr+0x34>
20007646:	bcf0      	pop	{r4, r5, r6, r7}
20007648:	f001 01ff 	and.w	r1, r1, #255	@ 0xff
2000764c:	f002 0207 	and.w	r2, r2, #7
20007650:	b132      	cbz	r2, 20007660 <memchr+0x70>
20007652:	f810 3b01 	ldrb.w	r3, [r0], #1
20007656:	3a01      	subs	r2, #1
20007658:	ea83 0301 	eor.w	r3, r3, r1
2000765c:	b113      	cbz	r3, 20007664 <memchr+0x74>
2000765e:	d1f8      	bne.n	20007652 <memchr+0x62>
20007660:	2000      	movs	r0, #0
20007662:	4770      	bx	lr
20007664:	3801      	subs	r0, #1
20007666:	4770      	bx	lr
20007668:	2d00      	cmp	r5, #0
2000766a:	bf06      	itte	eq
2000766c:	4635      	moveq	r5, r6
2000766e:	3803      	subeq	r0, #3
20007670:	3807      	subne	r0, #7
20007672:	f015 0f01 	tst.w	r5, #1
20007676:	d107      	bne.n	20007688 <memchr+0x98>
20007678:	3001      	adds	r0, #1
2000767a:	f415 7f80 	tst.w	r5, #256	@ 0x100
2000767e:	bf02      	ittt	eq
20007680:	3001      	addeq	r0, #1
20007682:	f415 3fc0 	tsteq.w	r5, #98304	@ 0x18000
20007686:	3001      	addeq	r0, #1
20007688:	bcf0      	pop	{r4, r5, r6, r7}
2000768a:	3801      	subs	r0, #1
2000768c:	4770      	bx	lr
2000768e:	bf00      	nop

20007690 <atoi>:
20007690:	220a      	movs	r2, #10
20007692:	2100      	movs	r1, #0
20007694:	f000 b88a 	b.w	200077ac <strtol>

20007698 <_atoi_r>:
20007698:	230a      	movs	r3, #10
2000769a:	2200      	movs	r2, #0
2000769c:	f000 b87a 	b.w	20007794 <_strtol_r>

200076a0 <_strtol_l.isra.0>:
200076a0:	2b24      	cmp	r3, #36	@ 0x24
200076a2:	e92d 47f0 	stmdb	sp!, {r4, r5, r6, r7, r8, r9, sl, lr}
200076a6:	4686      	mov	lr, r0
200076a8:	4690      	mov	r8, r2
200076aa:	d801      	bhi.n	200076b0 <_strtol_l.isra.0+0x10>
200076ac:	2b01      	cmp	r3, #1
200076ae:	d106      	bne.n	200076be <_strtol_l.isra.0+0x1e>
200076b0:	f000 f8f6 	bl	200078a0 <__errno>
200076b4:	2316      	movs	r3, #22
200076b6:	6003      	str	r3, [r0, #0]
200076b8:	2000      	movs	r0, #0
200076ba:	e8bd 87f0 	ldmia.w	sp!, {r4, r5, r6, r7, r8, r9, sl, pc}
200076be:	4834      	ldr	r0, [pc, #208]	@ (20007790 <_strtol_l.isra.0+0xf0>)
200076c0:	460d      	mov	r5, r1
200076c2:	462a      	mov	r2, r5
200076c4:	f815 4b01 	ldrb.w	r4, [r5], #1
200076c8:	5d06      	ldrb	r6, [r0, r4]
200076ca:	f016 0608 	ands.w	r6, r6, #8
200076ce:	d1f8      	bne.n	200076c2 <_strtol_l.isra.0+0x22>
200076d0:	2c2d      	cmp	r4, #45	@ 0x2d
200076d2:	d110      	bne.n	200076f6 <_strtol_l.isra.0+0x56>
200076d4:	782c      	ldrb	r4, [r5, #0]
200076d6:	2601      	movs	r6, #1
200076d8:	1c95      	adds	r5, r2, #2
200076da:	f033 0210 	bics.w	r2, r3, #16
200076de:	d115      	bne.n	2000770c <_strtol_l.isra.0+0x6c>
200076e0:	2c30      	cmp	r4, #48	@ 0x30
200076e2:	d10d      	bne.n	20007700 <_strtol_l.isra.0+0x60>
200076e4:	782a      	ldrb	r2, [r5, #0]
200076e6:	f002 02df 	and.w	r2, r2, #223	@ 0xdf
200076ea:	2a58      	cmp	r2, #88	@ 0x58
200076ec:	d108      	bne.n	20007700 <_strtol_l.isra.0+0x60>
200076ee:	786c      	ldrb	r4, [r5, #1]
200076f0:	3502      	adds	r5, #2
200076f2:	2310      	movs	r3, #16
200076f4:	e00a      	b.n	2000770c <_strtol_l.isra.0+0x6c>
200076f6:	2c2b      	cmp	r4, #43	@ 0x2b
200076f8:	bf04      	itt	eq
200076fa:	782c      	ldrbeq	r4, [r5, #0]
200076fc:	1c95      	addeq	r5, r2, #2
200076fe:	e7ec      	b.n	200076da <_strtol_l.isra.0+0x3a>
20007700:	2b00      	cmp	r3, #0
20007702:	d1f6      	bne.n	200076f2 <_strtol_l.isra.0+0x52>
20007704:	2c30      	cmp	r4, #48	@ 0x30
20007706:	bf14      	ite	ne
20007708:	230a      	movne	r3, #10
2000770a:	2308      	moveq	r3, #8
2000770c:	f106 4c00 	add.w	ip, r6, #2147483648	@ 0x80000000
20007710:	f10c 3cff 	add.w	ip, ip, #4294967295
20007714:	2200      	movs	r2, #0
20007716:	fbbc f9f3 	udiv	r9, ip, r3
2000771a:	4610      	mov	r0, r2
2000771c:	fb03 ca19 	mls	sl, r3, r9, ip
20007720:	f1a4 0730 	sub.w	r7, r4, #48	@ 0x30
20007724:	2f09      	cmp	r7, #9
20007726:	d80f      	bhi.n	20007748 <_strtol_l.isra.0+0xa8>
20007728:	463c      	mov	r4, r7
2000772a:	42a3      	cmp	r3, r4
2000772c:	dd1b      	ble.n	20007766 <_strtol_l.isra.0+0xc6>
2000772e:	1c57      	adds	r7, r2, #1
20007730:	d007      	beq.n	20007742 <_strtol_l.isra.0+0xa2>
20007732:	4581      	cmp	r9, r0
20007734:	d314      	bcc.n	20007760 <_strtol_l.isra.0+0xc0>
20007736:	d101      	bne.n	2000773c <_strtol_l.isra.0+0x9c>
20007738:	45a2      	cmp	sl, r4
2000773a:	db11      	blt.n	20007760 <_strtol_l.isra.0+0xc0>
2000773c:	fb00 4003 	mla	r0, r0, r3, r4
20007740:	2201      	movs	r2, #1
20007742:	f815 4b01 	ldrb.w	r4, [r5], #1
20007746:	e7eb      	b.n	20007720 <_strtol_l.isra.0+0x80>
20007748:	f1a4 0741 	sub.w	r7, r4, #65	@ 0x41
2000774c:	2f19      	cmp	r7, #25
2000774e:	d801      	bhi.n	20007754 <_strtol_l.isra.0+0xb4>
20007750:	3c37      	subs	r4, #55	@ 0x37
20007752:	e7ea      	b.n	2000772a <_strtol_l.isra.0+0x8a>
20007754:	f1a4 0761 	sub.w	r7, r4, #97	@ 0x61
20007758:	2f19      	cmp	r7, #25
2000775a:	d804      	bhi.n	20007766 <_strtol_l.isra.0+0xc6>
2000775c:	3c57      	subs	r4, #87	@ 0x57
2000775e:	e7e4      	b.n	2000772a <_strtol_l.isra.0+0x8a>
20007760:	f04f 32ff 	mov.w	r2, #4294967295
20007764:	e7ed      	b.n	20007742 <_strtol_l.isra.0+0xa2>
20007766:	1c53      	adds	r3, r2, #1
20007768:	d108      	bne.n	2000777c <_strtol_l.isra.0+0xdc>
2000776a:	2322      	movs	r3, #34	@ 0x22
2000776c:	f8ce 3000 	str.w	r3, [lr]
20007770:	4660      	mov	r0, ip
20007772:	f1b8 0f00 	cmp.w	r8, #0
20007776:	d0a0      	beq.n	200076ba <_strtol_l.isra.0+0x1a>
20007778:	1e69      	subs	r1, r5, #1
2000777a:	e006      	b.n	2000778a <_strtol_l.isra.0+0xea>
2000777c:	b106      	cbz	r6, 20007780 <_strtol_l.isra.0+0xe0>
2000777e:	4240      	negs	r0, r0
20007780:	f1b8 0f00 	cmp.w	r8, #0
20007784:	d099      	beq.n	200076ba <_strtol_l.isra.0+0x1a>
20007786:	2a00      	cmp	r2, #0
20007788:	d1f6      	bne.n	20007778 <_strtol_l.isra.0+0xd8>
2000778a:	f8c8 1000 	str.w	r1, [r8]
2000778e:	e794      	b.n	200076ba <_strtol_l.isra.0+0x1a>
20007790:	200084e9 	.word	0x200084e9

20007794 <_strtol_r>:
20007794:	f7ff bf84 	b.w	200076a0 <_strtol_l.isra.0>

20007798 <strtol_l>:
20007798:	4613      	mov	r3, r2
2000779a:	460a      	mov	r2, r1
2000779c:	4601      	mov	r1, r0
2000779e:	4802      	ldr	r0, [pc, #8]	@ (200077a8 <strtol_l+0x10>)
200077a0:	6800      	ldr	r0, [r0, #0]
200077a2:	f7ff bf7d 	b.w	200076a0 <_strtol_l.isra.0>
200077a6:	bf00      	nop
200077a8:	200096d4 	.word	0x200096d4

200077ac <strtol>:
200077ac:	4613      	mov	r3, r2
200077ae:	460a      	mov	r2, r1
200077b0:	4601      	mov	r1, r0
200077b2:	4802      	ldr	r0, [pc, #8]	@ (200077bc <strtol+0x10>)
200077b4:	6800      	ldr	r0, [r0, #0]
200077b6:	f7ff bf73 	b.w	200076a0 <_strtol_l.isra.0>
200077ba:	bf00      	nop
200077bc:	200096d4 	.word	0x200096d4

200077c0 <_sniprintf_r>:
200077c0:	b408      	push	{r3}
200077c2:	b530      	push	{r4, r5, lr}
200077c4:	1e14      	subs	r4, r2, #0
200077c6:	b09c      	sub	sp, #112	@ 0x70
200077c8:	4605      	mov	r5, r0
200077ca:	da08      	bge.n	200077de <_sniprintf_r+0x1e>
200077cc:	238b      	movs	r3, #139	@ 0x8b
200077ce:	6003      	str	r3, [r0, #0]
200077d0:	f04f 30ff 	mov.w	r0, #4294967295
200077d4:	b01c      	add	sp, #112	@ 0x70
200077d6:	e8bd 4030 	ldmia.w	sp!, {r4, r5, lr}
200077da:	b001      	add	sp, #4
200077dc:	4770      	bx	lr
200077de:	f44f 7302 	mov.w	r3, #520	@ 0x208
200077e2:	f8ad 3014 	strh.w	r3, [sp, #20]
200077e6:	f04f 0300 	mov.w	r3, #0
200077ea:	931b      	str	r3, [sp, #108]	@ 0x6c
200077ec:	bf14      	ite	ne
200077ee:	f104 33ff 	addne.w	r3, r4, #4294967295
200077f2:	4623      	moveq	r3, r4
200077f4:	9304      	str	r3, [sp, #16]
200077f6:	9307      	str	r3, [sp, #28]
200077f8:	f64f 73ff 	movw	r3, #65535	@ 0xffff
200077fc:	9102      	str	r1, [sp, #8]
200077fe:	9106      	str	r1, [sp, #24]
20007800:	f8ad 3016 	strh.w	r3, [sp, #22]
20007804:	9a1f      	ldr	r2, [sp, #124]	@ 0x7c
20007806:	ab20      	add	r3, sp, #128	@ 0x80
20007808:	a902      	add	r1, sp, #8
2000780a:	9301      	str	r3, [sp, #4]
2000780c:	f000 f928 	bl	20007a60 <_svfiprintf_r>
20007810:	1c43      	adds	r3, r0, #1
20007812:	bfbc      	itt	lt
20007814:	238b      	movlt	r3, #139	@ 0x8b
20007816:	602b      	strlt	r3, [r5, #0]
20007818:	2c00      	cmp	r4, #0
2000781a:	d0db      	beq.n	200077d4 <_sniprintf_r+0x14>
2000781c:	9b02      	ldr	r3, [sp, #8]
2000781e:	2200      	movs	r2, #0
20007820:	701a      	strb	r2, [r3, #0]
20007822:	e7d7      	b.n	200077d4 <_sniprintf_r+0x14>

20007824 <sniprintf>:
20007824:	b40c      	push	{r2, r3}
20007826:	b530      	push	{r4, r5, lr}
20007828:	4b18      	ldr	r3, [pc, #96]	@ (2000788c <sniprintf+0x68>)
2000782a:	1e0c      	subs	r4, r1, #0
2000782c:	681d      	ldr	r5, [r3, #0]
2000782e:	b09d      	sub	sp, #116	@ 0x74
20007830:	da08      	bge.n	20007844 <sniprintf+0x20>
20007832:	238b      	movs	r3, #139	@ 0x8b
20007834:	602b      	str	r3, [r5, #0]
20007836:	f04f 30ff 	mov.w	r0, #4294967295
2000783a:	b01d      	add	sp, #116	@ 0x74
2000783c:	e8bd 4030 	ldmia.w	sp!, {r4, r5, lr}
20007840:	b002      	add	sp, #8
20007842:	4770      	bx	lr
20007844:	f44f 7302 	mov.w	r3, #520	@ 0x208
20007848:	f8ad 3014 	strh.w	r3, [sp, #20]
2000784c:	f04f 0300 	mov.w	r3, #0
20007850:	931b      	str	r3, [sp, #108]	@ 0x6c
20007852:	bf14      	ite	ne
20007854:	f104 33ff 	addne.w	r3, r4, #4294967295
20007858:	4623      	moveq	r3, r4
2000785a:	9304      	str	r3, [sp, #16]
2000785c:	9307      	str	r3, [sp, #28]
2000785e:	f64f 73ff 	movw	r3, #65535	@ 0xffff
20007862:	9002      	str	r0, [sp, #8]
20007864:	9006      	str	r0, [sp, #24]
20007866:	f8ad 3016 	strh.w	r3, [sp, #22]
2000786a:	9a20      	ldr	r2, [sp, #128]	@ 0x80
2000786c:	ab21      	add	r3, sp, #132	@ 0x84
2000786e:	a902      	add	r1, sp, #8
20007870:	4628      	mov	r0, r5
20007872:	9301      	str	r3, [sp, #4]
20007874:	f000 f8f4 	bl	20007a60 <_svfiprintf_r>
20007878:	1c43      	adds	r3, r0, #1
2000787a:	bfbc      	itt	lt
2000787c:	238b      	movlt	r3, #139	@ 0x8b
2000787e:	602b      	strlt	r3, [r5, #0]
20007880:	2c00      	cmp	r4, #0
20007882:	d0da      	beq.n	2000783a <sniprintf+0x16>
20007884:	9b02      	ldr	r3, [sp, #8]
20007886:	2200      	movs	r2, #0
20007888:	701a      	strb	r2, [r3, #0]
2000788a:	e7d6      	b.n	2000783a <sniprintf+0x16>
2000788c:	200096d4 	.word	0x200096d4

20007890 <memset>:
20007890:	4402      	add	r2, r0
20007892:	4603      	mov	r3, r0
20007894:	4293      	cmp	r3, r2
20007896:	d100      	bne.n	2000789a <memset+0xa>
20007898:	4770      	bx	lr
2000789a:	f803 1b01 	strb.w	r1, [r3], #1
2000789e:	e7f9      	b.n	20007894 <memset+0x4>

200078a0 <__errno>:
200078a0:	4b01      	ldr	r3, [pc, #4]	@ (200078a8 <__errno+0x8>)
200078a2:	6818      	ldr	r0, [r3, #0]
200078a4:	4770      	bx	lr
200078a6:	bf00      	nop
200078a8:	200096d4 	.word	0x200096d4

200078ac <__ssputs_r>:
200078ac:	e92d 47f0 	stmdb	sp!, {r4, r5, r6, r7, r8, r9, sl, lr}
200078b0:	688e      	ldr	r6, [r1, #8]
200078b2:	461f      	mov	r7, r3
200078b4:	42be      	cmp	r6, r7
200078b6:	4682      	mov	sl, r0
200078b8:	460c      	mov	r4, r1
200078ba:	4690      	mov	r8, r2
200078bc:	4633      	mov	r3, r6
200078be:	d853      	bhi.n	20007968 <__ssputs_r+0xbc>
200078c0:	f9b1 000c 	ldrsh.w	r0, [r1, #12]
200078c4:	f410 6f90 	tst.w	r0, #1152	@ 0x480
200078c8:	d02b      	beq.n	20007922 <__ssputs_r+0x76>
200078ca:	6965      	ldr	r5, [r4, #20]
200078cc:	6823      	ldr	r3, [r4, #0]
200078ce:	6909      	ldr	r1, [r1, #16]
200078d0:	eb05 0545 	add.w	r5, r5, r5, lsl #1
200078d4:	eba3 0901 	sub.w	r9, r3, r1
200078d8:	eb05 75d5 	add.w	r5, r5, r5, lsr #31
200078dc:	1c7b      	adds	r3, r7, #1
200078de:	106d      	asrs	r5, r5, #1
200078e0:	444b      	add	r3, r9
200078e2:	42ab      	cmp	r3, r5
200078e4:	462a      	mov	r2, r5
200078e6:	bf84      	itt	hi
200078e8:	461d      	movhi	r5, r3
200078ea:	462a      	movhi	r2, r5
200078ec:	0543      	lsls	r3, r0, #21
200078ee:	d527      	bpl.n	20007940 <__ssputs_r+0x94>
200078f0:	4611      	mov	r1, r2
200078f2:	4650      	mov	r0, sl
200078f4:	f000 fbd2 	bl	2000809c <_malloc_r>
200078f8:	4606      	mov	r6, r0
200078fa:	b358      	cbz	r0, 20007954 <__ssputs_r+0xa8>
200078fc:	6921      	ldr	r1, [r4, #16]
200078fe:	464a      	mov	r2, r9
20007900:	f000 fb51 	bl	20007fa6 <memcpy>
20007904:	89a3      	ldrh	r3, [r4, #12]
20007906:	f423 6390 	bic.w	r3, r3, #1152	@ 0x480
2000790a:	f043 0380 	orr.w	r3, r3, #128	@ 0x80
2000790e:	81a3      	strh	r3, [r4, #12]
20007910:	6126      	str	r6, [r4, #16]
20007912:	6165      	str	r5, [r4, #20]
20007914:	444e      	add	r6, r9
20007916:	eba5 0509 	sub.w	r5, r5, r9
2000791a:	6026      	str	r6, [r4, #0]
2000791c:	60a5      	str	r5, [r4, #8]
2000791e:	463e      	mov	r6, r7
20007920:	463b      	mov	r3, r7
20007922:	461f      	mov	r7, r3
20007924:	6820      	ldr	r0, [r4, #0]
20007926:	463a      	mov	r2, r7
20007928:	4641      	mov	r1, r8
2000792a:	f000 fb23 	bl	20007f74 <memmove>
2000792e:	68a3      	ldr	r3, [r4, #8]
20007930:	1b9b      	subs	r3, r3, r6
20007932:	60a3      	str	r3, [r4, #8]
20007934:	6823      	ldr	r3, [r4, #0]
20007936:	443b      	add	r3, r7
20007938:	6023      	str	r3, [r4, #0]
2000793a:	2000      	movs	r0, #0
2000793c:	e8bd 87f0 	ldmia.w	sp!, {r4, r5, r6, r7, r8, r9, sl, pc}
20007940:	4650      	mov	r0, sl
20007942:	f000 fc37 	bl	200081b4 <_realloc_r>
20007946:	4606      	mov	r6, r0
20007948:	2800      	cmp	r0, #0
2000794a:	d1e1      	bne.n	20007910 <__ssputs_r+0x64>
2000794c:	6921      	ldr	r1, [r4, #16]
2000794e:	4650      	mov	r0, sl
20007950:	f000 fb38 	bl	20007fc4 <_free_r>
20007954:	230c      	movs	r3, #12
20007956:	f8ca 3000 	str.w	r3, [sl]
2000795a:	89a3      	ldrh	r3, [r4, #12]
2000795c:	f043 0340 	orr.w	r3, r3, #64	@ 0x40
20007960:	81a3      	strh	r3, [r4, #12]
20007962:	f04f 30ff 	mov.w	r0, #4294967295
20007966:	e7e9      	b.n	2000793c <__ssputs_r+0x90>
20007968:	463e      	mov	r6, r7
2000796a:	e7db      	b.n	20007924 <__ssputs_r+0x78>

2000796c <__ssprint_r>:
2000796c:	6893      	ldr	r3, [r2, #8]
2000796e:	e92d 4ff7 	stmdb	sp!, {r0, r1, r2, r4, r5, r6, r7, r8, r9, sl, fp, lr}
20007972:	4680      	mov	r8, r0
20007974:	460c      	mov	r4, r1
20007976:	4617      	mov	r7, r2
20007978:	2b00      	cmp	r3, #0
2000797a:	d053      	beq.n	20007a24 <__ssprint_r+0xb8>
2000797c:	f8d2 a000 	ldr.w	sl, [r2]
20007980:	f8da b004 	ldr.w	fp, [sl, #4]
20007984:	f8da 3000 	ldr.w	r3, [sl]
20007988:	9301      	str	r3, [sp, #4]
2000798a:	f10a 0a08 	add.w	sl, sl, #8
2000798e:	f1bb 0f00 	cmp.w	fp, #0
20007992:	d0f5      	beq.n	20007980 <__ssprint_r+0x14>
20007994:	68a6      	ldr	r6, [r4, #8]
20007996:	45b3      	cmp	fp, r6
20007998:	4635      	mov	r5, r6
2000799a:	d35f      	bcc.n	20007a5c <__ssprint_r+0xf0>
2000799c:	f9b4 000c 	ldrsh.w	r0, [r4, #12]
200079a0:	f410 6f90 	tst.w	r0, #1152	@ 0x480
200079a4:	d02d      	beq.n	20007a02 <__ssprint_r+0x96>
200079a6:	6822      	ldr	r2, [r4, #0]
200079a8:	6921      	ldr	r1, [r4, #16]
200079aa:	6965      	ldr	r5, [r4, #20]
200079ac:	eba2 0901 	sub.w	r9, r2, r1
200079b0:	eb05 0545 	add.w	r5, r5, r5, lsl #1
200079b4:	eb05 75d5 	add.w	r5, r5, r5, lsr #31
200079b8:	f109 0601 	add.w	r6, r9, #1
200079bc:	106d      	asrs	r5, r5, #1
200079be:	445e      	add	r6, fp
200079c0:	42ae      	cmp	r6, r5
200079c2:	462a      	mov	r2, r5
200079c4:	bf84      	itt	hi
200079c6:	4635      	movhi	r5, r6
200079c8:	462a      	movhi	r2, r5
200079ca:	0543      	lsls	r3, r0, #21
200079cc:	d530      	bpl.n	20007a30 <__ssprint_r+0xc4>
200079ce:	4611      	mov	r1, r2
200079d0:	4640      	mov	r0, r8
200079d2:	f000 fb63 	bl	2000809c <_malloc_r>
200079d6:	4606      	mov	r6, r0
200079d8:	2800      	cmp	r0, #0
200079da:	d033      	beq.n	20007a44 <__ssprint_r+0xd8>
200079dc:	464a      	mov	r2, r9
200079de:	6921      	ldr	r1, [r4, #16]
200079e0:	f000 fae1 	bl	20007fa6 <memcpy>
200079e4:	89a2      	ldrh	r2, [r4, #12]
200079e6:	f422 6290 	bic.w	r2, r2, #1152	@ 0x480
200079ea:	f042 0280 	orr.w	r2, r2, #128	@ 0x80
200079ee:	81a2      	strh	r2, [r4, #12]
200079f0:	6126      	str	r6, [r4, #16]
200079f2:	6165      	str	r5, [r4, #20]
200079f4:	444e      	add	r6, r9
200079f6:	eba5 0509 	sub.w	r5, r5, r9
200079fa:	6026      	str	r6, [r4, #0]
200079fc:	60a5      	str	r5, [r4, #8]
200079fe:	465e      	mov	r6, fp
20007a00:	465d      	mov	r5, fp
20007a02:	462a      	mov	r2, r5
20007a04:	9901      	ldr	r1, [sp, #4]
20007a06:	6820      	ldr	r0, [r4, #0]
20007a08:	f000 fab4 	bl	20007f74 <memmove>
20007a0c:	68a2      	ldr	r2, [r4, #8]
20007a0e:	1b92      	subs	r2, r2, r6
20007a10:	60a2      	str	r2, [r4, #8]
20007a12:	6822      	ldr	r2, [r4, #0]
20007a14:	442a      	add	r2, r5
20007a16:	6022      	str	r2, [r4, #0]
20007a18:	68ba      	ldr	r2, [r7, #8]
20007a1a:	eba2 030b 	sub.w	r3, r2, fp
20007a1e:	60bb      	str	r3, [r7, #8]
20007a20:	2b00      	cmp	r3, #0
20007a22:	d1ad      	bne.n	20007980 <__ssprint_r+0x14>
20007a24:	2000      	movs	r0, #0
20007a26:	2300      	movs	r3, #0
20007a28:	607b      	str	r3, [r7, #4]
20007a2a:	b003      	add	sp, #12
20007a2c:	e8bd 8ff0 	ldmia.w	sp!, {r4, r5, r6, r7, r8, r9, sl, fp, pc}
20007a30:	4640      	mov	r0, r8
20007a32:	f000 fbbf 	bl	200081b4 <_realloc_r>
20007a36:	4606      	mov	r6, r0
20007a38:	2800      	cmp	r0, #0
20007a3a:	d1d9      	bne.n	200079f0 <__ssprint_r+0x84>
20007a3c:	6921      	ldr	r1, [r4, #16]
20007a3e:	4640      	mov	r0, r8
20007a40:	f000 fac0 	bl	20007fc4 <_free_r>
20007a44:	230c      	movs	r3, #12
20007a46:	f8c8 3000 	str.w	r3, [r8]
20007a4a:	89a3      	ldrh	r3, [r4, #12]
20007a4c:	f043 0340 	orr.w	r3, r3, #64	@ 0x40
20007a50:	81a3      	strh	r3, [r4, #12]
20007a52:	2300      	movs	r3, #0
20007a54:	60bb      	str	r3, [r7, #8]
20007a56:	f04f 30ff 	mov.w	r0, #4294967295
20007a5a:	e7e4      	b.n	20007a26 <__ssprint_r+0xba>
20007a5c:	465e      	mov	r6, fp
20007a5e:	e7cf      	b.n	20007a00 <__ssprint_r+0x94>

20007a60 <_svfiprintf_r>:
20007a60:	e92d 4ff0 	stmdb	sp!, {r4, r5, r6, r7, r8, r9, sl, fp, lr}
20007a64:	4698      	mov	r8, r3
20007a66:	898b      	ldrh	r3, [r1, #12]
20007a68:	061b      	lsls	r3, r3, #24
20007a6a:	b09d      	sub	sp, #116	@ 0x74
20007a6c:	4607      	mov	r7, r0
20007a6e:	460d      	mov	r5, r1
20007a70:	4614      	mov	r4, r2
20007a72:	d510      	bpl.n	20007a96 <_svfiprintf_r+0x36>
20007a74:	690b      	ldr	r3, [r1, #16]
20007a76:	b973      	cbnz	r3, 20007a96 <_svfiprintf_r+0x36>
20007a78:	2140      	movs	r1, #64	@ 0x40
20007a7a:	f000 fb0f 	bl	2000809c <_malloc_r>
20007a7e:	6028      	str	r0, [r5, #0]
20007a80:	6128      	str	r0, [r5, #16]
20007a82:	b930      	cbnz	r0, 20007a92 <_svfiprintf_r+0x32>
20007a84:	230c      	movs	r3, #12
20007a86:	603b      	str	r3, [r7, #0]
20007a88:	f04f 30ff 	mov.w	r0, #4294967295
20007a8c:	b01d      	add	sp, #116	@ 0x74
20007a8e:	e8bd 8ff0 	ldmia.w	sp!, {r4, r5, r6, r7, r8, r9, sl, fp, pc}
20007a92:	2340      	movs	r3, #64	@ 0x40
20007a94:	616b      	str	r3, [r5, #20]
20007a96:	2300      	movs	r3, #0
20007a98:	9309      	str	r3, [sp, #36]	@ 0x24
20007a9a:	2320      	movs	r3, #32
20007a9c:	f88d 3029 	strb.w	r3, [sp, #41]	@ 0x29
20007aa0:	f8cd 800c 	str.w	r8, [sp, #12]
20007aa4:	2330      	movs	r3, #48	@ 0x30
20007aa6:	f8df 819c 	ldr.w	r8, [pc, #412]	@ 20007c44 <_svfiprintf_r+0x1e4>
20007aaa:	f88d 302a 	strb.w	r3, [sp, #42]	@ 0x2a
20007aae:	f04f 0901 	mov.w	r9, #1
20007ab2:	4623      	mov	r3, r4
20007ab4:	469a      	mov	sl, r3
20007ab6:	f813 2b01 	ldrb.w	r2, [r3], #1
20007aba:	b10a      	cbz	r2, 20007ac0 <_svfiprintf_r+0x60>
20007abc:	2a25      	cmp	r2, #37	@ 0x25
20007abe:	d1f9      	bne.n	20007ab4 <_svfiprintf_r+0x54>
20007ac0:	ebba 0b04 	subs.w	fp, sl, r4
20007ac4:	d00b      	beq.n	20007ade <_svfiprintf_r+0x7e>
20007ac6:	465b      	mov	r3, fp
20007ac8:	4622      	mov	r2, r4
20007aca:	4629      	mov	r1, r5
20007acc:	4638      	mov	r0, r7
20007ace:	f7ff feed 	bl	200078ac <__ssputs_r>
20007ad2:	3001      	adds	r0, #1
20007ad4:	f000 80a7 	beq.w	20007c26 <_svfiprintf_r+0x1c6>
20007ad8:	9a09      	ldr	r2, [sp, #36]	@ 0x24
20007ada:	445a      	add	r2, fp
20007adc:	9209      	str	r2, [sp, #36]	@ 0x24
20007ade:	f89a 3000 	ldrb.w	r3, [sl]
20007ae2:	2b00      	cmp	r3, #0
20007ae4:	f000 809f 	beq.w	20007c26 <_svfiprintf_r+0x1c6>
20007ae8:	2300      	movs	r3, #0
20007aea:	f04f 32ff 	mov.w	r2, #4294967295
20007aee:	e9cd 2305 	strd	r2, r3, [sp, #20]
20007af2:	f10a 0a01 	add.w	sl, sl, #1
20007af6:	9304      	str	r3, [sp, #16]
20007af8:	9307      	str	r3, [sp, #28]
20007afa:	f88d 3053 	strb.w	r3, [sp, #83]	@ 0x53
20007afe:	931a      	str	r3, [sp, #104]	@ 0x68
20007b00:	4654      	mov	r4, sl
20007b02:	2205      	movs	r2, #5
20007b04:	f814 1b01 	ldrb.w	r1, [r4], #1
20007b08:	484e      	ldr	r0, [pc, #312]	@ (20007c44 <_svfiprintf_r+0x1e4>)
20007b0a:	f7ff fd71 	bl	200075f0 <memchr>
20007b0e:	9a04      	ldr	r2, [sp, #16]
20007b10:	b9d8      	cbnz	r0, 20007b4a <_svfiprintf_r+0xea>
20007b12:	06d0      	lsls	r0, r2, #27
20007b14:	bf44      	itt	mi
20007b16:	2320      	movmi	r3, #32
20007b18:	f88d 3053 	strbmi.w	r3, [sp, #83]	@ 0x53
20007b1c:	0711      	lsls	r1, r2, #28
20007b1e:	bf44      	itt	mi
20007b20:	232b      	movmi	r3, #43	@ 0x2b
20007b22:	f88d 3053 	strbmi.w	r3, [sp, #83]	@ 0x53
20007b26:	f89a 3000 	ldrb.w	r3, [sl]
20007b2a:	2b2a      	cmp	r3, #42	@ 0x2a
20007b2c:	d015      	beq.n	20007b5a <_svfiprintf_r+0xfa>
20007b2e:	9a07      	ldr	r2, [sp, #28]
20007b30:	4654      	mov	r4, sl
20007b32:	2000      	movs	r0, #0
20007b34:	f04f 0c0a 	mov.w	ip, #10
20007b38:	4621      	mov	r1, r4
20007b3a:	f811 3b01 	ldrb.w	r3, [r1], #1
20007b3e:	3b30      	subs	r3, #48	@ 0x30
20007b40:	2b09      	cmp	r3, #9
20007b42:	d94b      	bls.n	20007bdc <_svfiprintf_r+0x17c>
20007b44:	b1b0      	cbz	r0, 20007b74 <_svfiprintf_r+0x114>
20007b46:	9207      	str	r2, [sp, #28]
20007b48:	e014      	b.n	20007b74 <_svfiprintf_r+0x114>
20007b4a:	eba0 0308 	sub.w	r3, r0, r8
20007b4e:	fa09 f303 	lsl.w	r3, r9, r3
20007b52:	4313      	orrs	r3, r2
20007b54:	9304      	str	r3, [sp, #16]
20007b56:	46a2      	mov	sl, r4
20007b58:	e7d2      	b.n	20007b00 <_svfiprintf_r+0xa0>
20007b5a:	9b03      	ldr	r3, [sp, #12]
20007b5c:	1d19      	adds	r1, r3, #4
20007b5e:	681b      	ldr	r3, [r3, #0]
20007b60:	9103      	str	r1, [sp, #12]
20007b62:	2b00      	cmp	r3, #0
20007b64:	bfbb      	ittet	lt
20007b66:	425b      	neglt	r3, r3
20007b68:	f042 0202 	orrlt.w	r2, r2, #2
20007b6c:	9307      	strge	r3, [sp, #28]
20007b6e:	9307      	strlt	r3, [sp, #28]
20007b70:	bfb8      	it	lt
20007b72:	9204      	strlt	r2, [sp, #16]
20007b74:	7823      	ldrb	r3, [r4, #0]
20007b76:	2b2e      	cmp	r3, #46	@ 0x2e
20007b78:	d10a      	bne.n	20007b90 <_svfiprintf_r+0x130>
20007b7a:	7863      	ldrb	r3, [r4, #1]
20007b7c:	2b2a      	cmp	r3, #42	@ 0x2a
20007b7e:	d132      	bne.n	20007be6 <_svfiprintf_r+0x186>
20007b80:	9b03      	ldr	r3, [sp, #12]
20007b82:	1d1a      	adds	r2, r3, #4
20007b84:	681b      	ldr	r3, [r3, #0]
20007b86:	9203      	str	r2, [sp, #12]
20007b88:	ea43 73e3 	orr.w	r3, r3, r3, asr #31
20007b8c:	3402      	adds	r4, #2
20007b8e:	9305      	str	r3, [sp, #20]
20007b90:	f8df a0c0 	ldr.w	sl, [pc, #192]	@ 20007c54 <_svfiprintf_r+0x1f4>
20007b94:	7821      	ldrb	r1, [r4, #0]
20007b96:	2203      	movs	r2, #3
20007b98:	4650      	mov	r0, sl
20007b9a:	f7ff fd29 	bl	200075f0 <memchr>
20007b9e:	b138      	cbz	r0, 20007bb0 <_svfiprintf_r+0x150>
20007ba0:	9b04      	ldr	r3, [sp, #16]
20007ba2:	eba0 000a 	sub.w	r0, r0, sl
20007ba6:	2240      	movs	r2, #64	@ 0x40
20007ba8:	4082      	lsls	r2, r0
20007baa:	4313      	orrs	r3, r2
20007bac:	3401      	adds	r4, #1
20007bae:	9304      	str	r3, [sp, #16]
20007bb0:	f814 1b01 	ldrb.w	r1, [r4], #1
20007bb4:	4824      	ldr	r0, [pc, #144]	@ (20007c48 <_svfiprintf_r+0x1e8>)
20007bb6:	f88d 1028 	strb.w	r1, [sp, #40]	@ 0x28
20007bba:	2206      	movs	r2, #6
20007bbc:	f7ff fd18 	bl	200075f0 <memchr>
20007bc0:	2800      	cmp	r0, #0
20007bc2:	d036      	beq.n	20007c32 <_svfiprintf_r+0x1d2>
20007bc4:	4b21      	ldr	r3, [pc, #132]	@ (20007c4c <_svfiprintf_r+0x1ec>)
20007bc6:	bb1b      	cbnz	r3, 20007c10 <_svfiprintf_r+0x1b0>
20007bc8:	9b03      	ldr	r3, [sp, #12]
20007bca:	3307      	adds	r3, #7
20007bcc:	f023 0307 	bic.w	r3, r3, #7
20007bd0:	3308      	adds	r3, #8
20007bd2:	9303      	str	r3, [sp, #12]
20007bd4:	9b09      	ldr	r3, [sp, #36]	@ 0x24
20007bd6:	4433      	add	r3, r6
20007bd8:	9309      	str	r3, [sp, #36]	@ 0x24
20007bda:	e76a      	b.n	20007ab2 <_svfiprintf_r+0x52>
20007bdc:	fb0c 3202 	mla	r2, ip, r2, r3
20007be0:	460c      	mov	r4, r1
20007be2:	2001      	movs	r0, #1
20007be4:	e7a8      	b.n	20007b38 <_svfiprintf_r+0xd8>
20007be6:	2300      	movs	r3, #0
20007be8:	3401      	adds	r4, #1
20007bea:	9305      	str	r3, [sp, #20]
20007bec:	4619      	mov	r1, r3
20007bee:	f04f 0c0a 	mov.w	ip, #10
20007bf2:	4620      	mov	r0, r4
20007bf4:	f810 2b01 	ldrb.w	r2, [r0], #1
20007bf8:	3a30      	subs	r2, #48	@ 0x30
20007bfa:	2a09      	cmp	r2, #9
20007bfc:	d903      	bls.n	20007c06 <_svfiprintf_r+0x1a6>
20007bfe:	2b00      	cmp	r3, #0
20007c00:	d0c6      	beq.n	20007b90 <_svfiprintf_r+0x130>
20007c02:	9105      	str	r1, [sp, #20]
20007c04:	e7c4      	b.n	20007b90 <_svfiprintf_r+0x130>
20007c06:	fb0c 2101 	mla	r1, ip, r1, r2
20007c0a:	4604      	mov	r4, r0
20007c0c:	2301      	movs	r3, #1
20007c0e:	e7f0      	b.n	20007bf2 <_svfiprintf_r+0x192>
20007c10:	ab03      	add	r3, sp, #12
20007c12:	9300      	str	r3, [sp, #0]
20007c14:	462a      	mov	r2, r5
20007c16:	4b0e      	ldr	r3, [pc, #56]	@ (20007c50 <_svfiprintf_r+0x1f0>)
20007c18:	a904      	add	r1, sp, #16
20007c1a:	4638      	mov	r0, r7
20007c1c:	f3af 8000 	nop.w
20007c20:	1c42      	adds	r2, r0, #1
20007c22:	4606      	mov	r6, r0
20007c24:	d1d6      	bne.n	20007bd4 <_svfiprintf_r+0x174>
20007c26:	89ab      	ldrh	r3, [r5, #12]
20007c28:	065b      	lsls	r3, r3, #25
20007c2a:	f53f af2d 	bmi.w	20007a88 <_svfiprintf_r+0x28>
20007c2e:	9809      	ldr	r0, [sp, #36]	@ 0x24
20007c30:	e72c      	b.n	20007a8c <_svfiprintf_r+0x2c>
20007c32:	ab03      	add	r3, sp, #12
20007c34:	9300      	str	r3, [sp, #0]
20007c36:	462a      	mov	r2, r5
20007c38:	4b05      	ldr	r3, [pc, #20]	@ (20007c50 <_svfiprintf_r+0x1f0>)
20007c3a:	a904      	add	r1, sp, #16
20007c3c:	4638      	mov	r0, r7
20007c3e:	f000 f879 	bl	20007d34 <_printf_i>
20007c42:	e7ed      	b.n	20007c20 <_svfiprintf_r+0x1c0>
20007c44:	200085e9 	.word	0x200085e9
20007c48:	200085f3 	.word	0x200085f3
20007c4c:	00000000 	.word	0x00000000
20007c50:	200078ad 	.word	0x200078ad
20007c54:	200085ef 	.word	0x200085ef

20007c58 <_printf_common>:
20007c58:	e92d 47f0 	stmdb	sp!, {r4, r5, r6, r7, r8, r9, sl, lr}
20007c5c:	4616      	mov	r6, r2
20007c5e:	4698      	mov	r8, r3
20007c60:	688a      	ldr	r2, [r1, #8]
20007c62:	690b      	ldr	r3, [r1, #16]
20007c64:	f8dd 9020 	ldr.w	r9, [sp, #32]
20007c68:	4293      	cmp	r3, r2
20007c6a:	bfb8      	it	lt
20007c6c:	4613      	movlt	r3, r2
20007c6e:	6033      	str	r3, [r6, #0]
20007c70:	f891 2043 	ldrb.w	r2, [r1, #67]	@ 0x43
20007c74:	4607      	mov	r7, r0
20007c76:	460c      	mov	r4, r1
20007c78:	b10a      	cbz	r2, 20007c7e <_printf_common+0x26>
20007c7a:	3301      	adds	r3, #1
20007c7c:	6033      	str	r3, [r6, #0]
20007c7e:	6823      	ldr	r3, [r4, #0]
20007c80:	0699      	lsls	r1, r3, #26
20007c82:	bf42      	ittt	mi
20007c84:	6833      	ldrmi	r3, [r6, #0]
20007c86:	3302      	addmi	r3, #2
20007c88:	6033      	strmi	r3, [r6, #0]
20007c8a:	6825      	ldr	r5, [r4, #0]
20007c8c:	f015 0506 	ands.w	r5, r5, #6
20007c90:	d106      	bne.n	20007ca0 <_printf_common+0x48>
20007c92:	f104 0a19 	add.w	sl, r4, #25
20007c96:	68e3      	ldr	r3, [r4, #12]
20007c98:	6832      	ldr	r2, [r6, #0]
20007c9a:	1a9b      	subs	r3, r3, r2
20007c9c:	42ab      	cmp	r3, r5
20007c9e:	dc26      	bgt.n	20007cee <_printf_common+0x96>
20007ca0:	f894 3043 	ldrb.w	r3, [r4, #67]	@ 0x43
20007ca4:	6822      	ldr	r2, [r4, #0]
20007ca6:	3b00      	subs	r3, #0
20007ca8:	bf18      	it	ne
20007caa:	2301      	movne	r3, #1
20007cac:	0692      	lsls	r2, r2, #26
20007cae:	d42b      	bmi.n	20007d08 <_printf_common+0xb0>
20007cb0:	f104 0243 	add.w	r2, r4, #67	@ 0x43
20007cb4:	4641      	mov	r1, r8
20007cb6:	4638      	mov	r0, r7
20007cb8:	47c8      	blx	r9
20007cba:	3001      	adds	r0, #1
20007cbc:	d01e      	beq.n	20007cfc <_printf_common+0xa4>
20007cbe:	6823      	ldr	r3, [r4, #0]
20007cc0:	6922      	ldr	r2, [r4, #16]
20007cc2:	f003 0306 	and.w	r3, r3, #6
20007cc6:	2b04      	cmp	r3, #4
20007cc8:	bf02      	ittt	eq
20007cca:	68e5      	ldreq	r5, [r4, #12]
20007ccc:	6833      	ldreq	r3, [r6, #0]
20007cce:	1aed      	subeq	r5, r5, r3
20007cd0:	68a3      	ldr	r3, [r4, #8]
20007cd2:	bf0c      	ite	eq
20007cd4:	ea25 75e5 	biceq.w	r5, r5, r5, asr #31
20007cd8:	2500      	movne	r5, #0
20007cda:	4293      	cmp	r3, r2
20007cdc:	bfc4      	itt	gt
20007cde:	1a9b      	subgt	r3, r3, r2
20007ce0:	18ed      	addgt	r5, r5, r3
20007ce2:	2600      	movs	r6, #0
20007ce4:	341a      	adds	r4, #26
20007ce6:	42b5      	cmp	r5, r6
20007ce8:	d11a      	bne.n	20007d20 <_printf_common+0xc8>
20007cea:	2000      	movs	r0, #0
20007cec:	e008      	b.n	20007d00 <_printf_common+0xa8>
20007cee:	2301      	movs	r3, #1
20007cf0:	4652      	mov	r2, sl
20007cf2:	4641      	mov	r1, r8
20007cf4:	4638      	mov	r0, r7
20007cf6:	47c8      	blx	r9
20007cf8:	3001      	adds	r0, #1
20007cfa:	d103      	bne.n	20007d04 <_printf_common+0xac>
20007cfc:	f04f 30ff 	mov.w	r0, #4294967295
20007d00:	e8bd 87f0 	ldmia.w	sp!, {r4, r5, r6, r7, r8, r9, sl, pc}
20007d04:	3501      	adds	r5, #1
20007d06:	e7c6      	b.n	20007c96 <_printf_common+0x3e>
20007d08:	18e1      	adds	r1, r4, r3
20007d0a:	1c5a      	adds	r2, r3, #1
20007d0c:	2030      	movs	r0, #48	@ 0x30
20007d0e:	f881 0043 	strb.w	r0, [r1, #67]	@ 0x43
20007d12:	4422      	add	r2, r4
20007d14:	f894 1045 	ldrb.w	r1, [r4, #69]	@ 0x45
20007d18:	f882 1043 	strb.w	r1, [r2, #67]	@ 0x43
20007d1c:	3302      	adds	r3, #2
20007d1e:	e7c7      	b.n	20007cb0 <_printf_common+0x58>
20007d20:	2301      	movs	r3, #1
20007d22:	4622      	mov	r2, r4
20007d24:	4641      	mov	r1, r8
20007d26:	4638      	mov	r0, r7
20007d28:	47c8      	blx	r9
20007d2a:	3001      	adds	r0, #1
20007d2c:	d0e6      	beq.n	20007cfc <_printf_common+0xa4>
20007d2e:	3601      	adds	r6, #1
20007d30:	e7d9      	b.n	20007ce6 <_printf_common+0x8e>
	...

20007d34 <_printf_i>:
20007d34:	e92d 47ff 	stmdb	sp!, {r0, r1, r2, r3, r4, r5, r6, r7, r8, r9, sl, lr}
20007d38:	7e0f      	ldrb	r7, [r1, #24]
20007d3a:	9e0c      	ldr	r6, [sp, #48]	@ 0x30
20007d3c:	2f78      	cmp	r7, #120	@ 0x78
20007d3e:	4691      	mov	r9, r2
20007d40:	4680      	mov	r8, r0
20007d42:	460c      	mov	r4, r1
20007d44:	469a      	mov	sl, r3
20007d46:	f101 0243 	add.w	r2, r1, #67	@ 0x43
20007d4a:	d807      	bhi.n	20007d5c <_printf_i+0x28>
20007d4c:	2f62      	cmp	r7, #98	@ 0x62
20007d4e:	d80a      	bhi.n	20007d66 <_printf_i+0x32>
20007d50:	2f00      	cmp	r7, #0
20007d52:	f000 80d2 	beq.w	20007efa <_printf_i+0x1c6>
20007d56:	2f58      	cmp	r7, #88	@ 0x58
20007d58:	f000 80b7 	beq.w	20007eca <_printf_i+0x196>
20007d5c:	f104 0642 	add.w	r6, r4, #66	@ 0x42
20007d60:	f884 7042 	strb.w	r7, [r4, #66]	@ 0x42
20007d64:	e03a      	b.n	20007ddc <_printf_i+0xa8>
20007d66:	f1a7 0363 	sub.w	r3, r7, #99	@ 0x63
20007d6a:	2b15      	cmp	r3, #21
20007d6c:	d8f6      	bhi.n	20007d5c <_printf_i+0x28>
20007d6e:	a101      	add	r1, pc, #4	@ (adr r1, 20007d74 <_printf_i+0x40>)
20007d70:	f851 f023 	ldr.w	pc, [r1, r3, lsl #2]
20007d74:	20007dcd 	.word	0x20007dcd
20007d78:	20007de1 	.word	0x20007de1
20007d7c:	20007d5d 	.word	0x20007d5d
20007d80:	20007d5d 	.word	0x20007d5d
20007d84:	20007d5d 	.word	0x20007d5d
20007d88:	20007d5d 	.word	0x20007d5d
20007d8c:	20007de1 	.word	0x20007de1
20007d90:	20007d5d 	.word	0x20007d5d
20007d94:	20007d5d 	.word	0x20007d5d
20007d98:	20007d5d 	.word	0x20007d5d
20007d9c:	20007d5d 	.word	0x20007d5d
20007da0:	20007ee1 	.word	0x20007ee1
20007da4:	20007e0b 	.word	0x20007e0b
20007da8:	20007e97 	.word	0x20007e97
20007dac:	20007d5d 	.word	0x20007d5d
20007db0:	20007d5d 	.word	0x20007d5d
20007db4:	20007f03 	.word	0x20007f03
20007db8:	20007d5d 	.word	0x20007d5d
20007dbc:	20007e0b 	.word	0x20007e0b
20007dc0:	20007d5d 	.word	0x20007d5d
20007dc4:	20007d5d 	.word	0x20007d5d
20007dc8:	20007e9f 	.word	0x20007e9f
20007dcc:	6833      	ldr	r3, [r6, #0]
20007dce:	1d1a      	adds	r2, r3, #4
20007dd0:	681b      	ldr	r3, [r3, #0]
20007dd2:	6032      	str	r2, [r6, #0]
20007dd4:	f104 0642 	add.w	r6, r4, #66	@ 0x42
20007dd8:	f884 3042 	strb.w	r3, [r4, #66]	@ 0x42
20007ddc:	2301      	movs	r3, #1
20007dde:	e09d      	b.n	20007f1c <_printf_i+0x1e8>
20007de0:	6833      	ldr	r3, [r6, #0]
20007de2:	6820      	ldr	r0, [r4, #0]
20007de4:	1d19      	adds	r1, r3, #4
20007de6:	6031      	str	r1, [r6, #0]
20007de8:	0606      	lsls	r6, r0, #24
20007dea:	d501      	bpl.n	20007df0 <_printf_i+0xbc>
20007dec:	681d      	ldr	r5, [r3, #0]
20007dee:	e003      	b.n	20007df8 <_printf_i+0xc4>
20007df0:	0645      	lsls	r5, r0, #25
20007df2:	d5fb      	bpl.n	20007dec <_printf_i+0xb8>
20007df4:	f9b3 5000 	ldrsh.w	r5, [r3]
20007df8:	2d00      	cmp	r5, #0
20007dfa:	da03      	bge.n	20007e04 <_printf_i+0xd0>
20007dfc:	232d      	movs	r3, #45	@ 0x2d
20007dfe:	426d      	negs	r5, r5
20007e00:	f884 3043 	strb.w	r3, [r4, #67]	@ 0x43
20007e04:	4859      	ldr	r0, [pc, #356]	@ (20007f6c <_printf_i+0x238>)
20007e06:	230a      	movs	r3, #10
20007e08:	e010      	b.n	20007e2c <_printf_i+0xf8>
20007e0a:	6821      	ldr	r1, [r4, #0]
20007e0c:	6833      	ldr	r3, [r6, #0]
20007e0e:	0608      	lsls	r0, r1, #24
20007e10:	f853 5b04 	ldr.w	r5, [r3], #4
20007e14:	d402      	bmi.n	20007e1c <_printf_i+0xe8>
20007e16:	0649      	lsls	r1, r1, #25
20007e18:	bf48      	it	mi
20007e1a:	b2ad      	uxthmi	r5, r5
20007e1c:	2f6f      	cmp	r7, #111	@ 0x6f
20007e1e:	4853      	ldr	r0, [pc, #332]	@ (20007f6c <_printf_i+0x238>)
20007e20:	6033      	str	r3, [r6, #0]
20007e22:	d159      	bne.n	20007ed8 <_printf_i+0x1a4>
20007e24:	2308      	movs	r3, #8
20007e26:	2100      	movs	r1, #0
20007e28:	f884 1043 	strb.w	r1, [r4, #67]	@ 0x43
20007e2c:	6866      	ldr	r6, [r4, #4]
20007e2e:	60a6      	str	r6, [r4, #8]
20007e30:	2e00      	cmp	r6, #0
20007e32:	db05      	blt.n	20007e40 <_printf_i+0x10c>
20007e34:	6821      	ldr	r1, [r4, #0]
20007e36:	432e      	orrs	r6, r5
20007e38:	f021 0104 	bic.w	r1, r1, #4
20007e3c:	6021      	str	r1, [r4, #0]
20007e3e:	d04d      	beq.n	20007edc <_printf_i+0x1a8>
20007e40:	4616      	mov	r6, r2
20007e42:	fbb5 f1f3 	udiv	r1, r5, r3
20007e46:	fb03 5711 	mls	r7, r3, r1, r5
20007e4a:	5dc7      	ldrb	r7, [r0, r7]
20007e4c:	f806 7d01 	strb.w	r7, [r6, #-1]!
20007e50:	462f      	mov	r7, r5
20007e52:	42bb      	cmp	r3, r7
20007e54:	460d      	mov	r5, r1
20007e56:	d9f4      	bls.n	20007e42 <_printf_i+0x10e>
20007e58:	2b08      	cmp	r3, #8
20007e5a:	d10b      	bne.n	20007e74 <_printf_i+0x140>
20007e5c:	6823      	ldr	r3, [r4, #0]
20007e5e:	07df      	lsls	r7, r3, #31
20007e60:	d508      	bpl.n	20007e74 <_printf_i+0x140>
20007e62:	6923      	ldr	r3, [r4, #16]
20007e64:	6861      	ldr	r1, [r4, #4]
20007e66:	4299      	cmp	r1, r3
20007e68:	bfde      	ittt	le
20007e6a:	2330      	movle	r3, #48	@ 0x30
20007e6c:	f806 3c01 	strble.w	r3, [r6, #-1]
20007e70:	f106 36ff 	addle.w	r6, r6, #4294967295
20007e74:	1b92      	subs	r2, r2, r6
20007e76:	6122      	str	r2, [r4, #16]
20007e78:	f8cd a000 	str.w	sl, [sp]
20007e7c:	464b      	mov	r3, r9
20007e7e:	aa03      	add	r2, sp, #12
20007e80:	4621      	mov	r1, r4
20007e82:	4640      	mov	r0, r8
20007e84:	f7ff fee8 	bl	20007c58 <_printf_common>
20007e88:	3001      	adds	r0, #1
20007e8a:	d14c      	bne.n	20007f26 <_printf_i+0x1f2>
20007e8c:	f04f 30ff 	mov.w	r0, #4294967295
20007e90:	b004      	add	sp, #16
20007e92:	e8bd 87f0 	ldmia.w	sp!, {r4, r5, r6, r7, r8, r9, sl, pc}
20007e96:	6823      	ldr	r3, [r4, #0]
20007e98:	f043 0320 	orr.w	r3, r3, #32
20007e9c:	6023      	str	r3, [r4, #0]
20007e9e:	4834      	ldr	r0, [pc, #208]	@ (20007f70 <_printf_i+0x23c>)
20007ea0:	2778      	movs	r7, #120	@ 0x78
20007ea2:	f884 7045 	strb.w	r7, [r4, #69]	@ 0x45
20007ea6:	6823      	ldr	r3, [r4, #0]
20007ea8:	6831      	ldr	r1, [r6, #0]
20007eaa:	061f      	lsls	r7, r3, #24
20007eac:	f851 5b04 	ldr.w	r5, [r1], #4
20007eb0:	d402      	bmi.n	20007eb8 <_printf_i+0x184>
20007eb2:	065f      	lsls	r7, r3, #25
20007eb4:	bf48      	it	mi
20007eb6:	b2ad      	uxthmi	r5, r5
20007eb8:	6031      	str	r1, [r6, #0]
20007eba:	07d9      	lsls	r1, r3, #31
20007ebc:	bf44      	itt	mi
20007ebe:	f043 0320 	orrmi.w	r3, r3, #32
20007ec2:	6023      	strmi	r3, [r4, #0]
20007ec4:	b11d      	cbz	r5, 20007ece <_printf_i+0x19a>
20007ec6:	2310      	movs	r3, #16
20007ec8:	e7ad      	b.n	20007e26 <_printf_i+0xf2>
20007eca:	4828      	ldr	r0, [pc, #160]	@ (20007f6c <_printf_i+0x238>)
20007ecc:	e7e9      	b.n	20007ea2 <_printf_i+0x16e>
20007ece:	6823      	ldr	r3, [r4, #0]
20007ed0:	f023 0320 	bic.w	r3, r3, #32
20007ed4:	6023      	str	r3, [r4, #0]
20007ed6:	e7f6      	b.n	20007ec6 <_printf_i+0x192>
20007ed8:	230a      	movs	r3, #10
20007eda:	e7a4      	b.n	20007e26 <_printf_i+0xf2>
20007edc:	4616      	mov	r6, r2
20007ede:	e7bb      	b.n	20007e58 <_printf_i+0x124>
20007ee0:	6833      	ldr	r3, [r6, #0]
20007ee2:	6825      	ldr	r5, [r4, #0]
20007ee4:	6961      	ldr	r1, [r4, #20]
20007ee6:	1d18      	adds	r0, r3, #4
20007ee8:	6030      	str	r0, [r6, #0]
20007eea:	062e      	lsls	r6, r5, #24
20007eec:	681b      	ldr	r3, [r3, #0]
20007eee:	d501      	bpl.n	20007ef4 <_printf_i+0x1c0>
20007ef0:	6019      	str	r1, [r3, #0]
20007ef2:	e002      	b.n	20007efa <_printf_i+0x1c6>
20007ef4:	0668      	lsls	r0, r5, #25
20007ef6:	d5fb      	bpl.n	20007ef0 <_printf_i+0x1bc>
20007ef8:	8019      	strh	r1, [r3, #0]
20007efa:	2300      	movs	r3, #0
20007efc:	6123      	str	r3, [r4, #16]
20007efe:	4616      	mov	r6, r2
20007f00:	e7ba      	b.n	20007e78 <_printf_i+0x144>
20007f02:	6833      	ldr	r3, [r6, #0]
20007f04:	1d1a      	adds	r2, r3, #4
20007f06:	6032      	str	r2, [r6, #0]
20007f08:	681e      	ldr	r6, [r3, #0]
20007f0a:	6862      	ldr	r2, [r4, #4]
20007f0c:	2100      	movs	r1, #0
20007f0e:	4630      	mov	r0, r6
20007f10:	f7ff fb6e 	bl	200075f0 <memchr>
20007f14:	b108      	cbz	r0, 20007f1a <_printf_i+0x1e6>
20007f16:	1b80      	subs	r0, r0, r6
20007f18:	6060      	str	r0, [r4, #4]
20007f1a:	6863      	ldr	r3, [r4, #4]
20007f1c:	6123      	str	r3, [r4, #16]
20007f1e:	2300      	movs	r3, #0
20007f20:	f884 3043 	strb.w	r3, [r4, #67]	@ 0x43
20007f24:	e7a8      	b.n	20007e78 <_printf_i+0x144>
20007f26:	6923      	ldr	r3, [r4, #16]
20007f28:	4632      	mov	r2, r6
20007f2a:	4649      	mov	r1, r9
20007f2c:	4640      	mov	r0, r8
20007f2e:	47d0      	blx	sl
20007f30:	3001      	adds	r0, #1
20007f32:	d0ab      	beq.n	20007e8c <_printf_i+0x158>
20007f34:	6823      	ldr	r3, [r4, #0]
20007f36:	079b      	lsls	r3, r3, #30
20007f38:	d413      	bmi.n	20007f62 <_printf_i+0x22e>
20007f3a:	68e0      	ldr	r0, [r4, #12]
20007f3c:	9b03      	ldr	r3, [sp, #12]
20007f3e:	4298      	cmp	r0, r3
20007f40:	bfb8      	it	lt
20007f42:	4618      	movlt	r0, r3
20007f44:	e7a4      	b.n	20007e90 <_printf_i+0x15c>
20007f46:	2301      	movs	r3, #1
20007f48:	4632      	mov	r2, r6
20007f4a:	4649      	mov	r1, r9
20007f4c:	4640      	mov	r0, r8
20007f4e:	47d0      	blx	sl
20007f50:	3001      	adds	r0, #1
20007f52:	d09b      	beq.n	20007e8c <_printf_i+0x158>
20007f54:	3501      	adds	r5, #1
20007f56:	68e3      	ldr	r3, [r4, #12]
20007f58:	9903      	ldr	r1, [sp, #12]
20007f5a:	1a5b      	subs	r3, r3, r1
20007f5c:	42ab      	cmp	r3, r5
20007f5e:	dcf2      	bgt.n	20007f46 <_printf_i+0x212>
20007f60:	e7eb      	b.n	20007f3a <_printf_i+0x206>
20007f62:	2500      	movs	r5, #0
20007f64:	f104 0619 	add.w	r6, r4, #25
20007f68:	e7f5      	b.n	20007f56 <_printf_i+0x222>
20007f6a:	bf00      	nop
20007f6c:	200085fa 	.word	0x200085fa
20007f70:	2000860b 	.word	0x2000860b

20007f74 <memmove>:
20007f74:	4288      	cmp	r0, r1
20007f76:	b510      	push	{r4, lr}
20007f78:	eb01 0402 	add.w	r4, r1, r2
20007f7c:	d902      	bls.n	20007f84 <memmove+0x10>
20007f7e:	4284      	cmp	r4, r0
20007f80:	4623      	mov	r3, r4
20007f82:	d807      	bhi.n	20007f94 <memmove+0x20>
20007f84:	1e43      	subs	r3, r0, #1
20007f86:	42a1      	cmp	r1, r4
20007f88:	d007      	beq.n	20007f9a <memmove+0x26>
20007f8a:	f811 2b01 	ldrb.w	r2, [r1], #1
20007f8e:	f803 2f01 	strb.w	r2, [r3, #1]!
20007f92:	e7f8      	b.n	20007f86 <memmove+0x12>
20007f94:	4402      	add	r2, r0
20007f96:	4282      	cmp	r2, r0
20007f98:	d100      	bne.n	20007f9c <memmove+0x28>
20007f9a:	bd10      	pop	{r4, pc}
20007f9c:	f813 1d01 	ldrb.w	r1, [r3, #-1]!
20007fa0:	f802 1d01 	strb.w	r1, [r2, #-1]!
20007fa4:	e7f7      	b.n	20007f96 <memmove+0x22>

20007fa6 <memcpy>:
20007fa6:	440a      	add	r2, r1
20007fa8:	4291      	cmp	r1, r2
20007faa:	f100 33ff 	add.w	r3, r0, #4294967295
20007fae:	d100      	bne.n	20007fb2 <memcpy+0xc>
20007fb0:	4770      	bx	lr
20007fb2:	b510      	push	{r4, lr}
20007fb4:	f811 4b01 	ldrb.w	r4, [r1], #1
20007fb8:	f803 4f01 	strb.w	r4, [r3, #1]!
20007fbc:	4291      	cmp	r1, r2
20007fbe:	d1f9      	bne.n	20007fb4 <memcpy+0xe>
20007fc0:	bd10      	pop	{r4, pc}
	...

20007fc4 <_free_r>:
20007fc4:	b538      	push	{r3, r4, r5, lr}
20007fc6:	4605      	mov	r5, r0
20007fc8:	2900      	cmp	r1, #0
20007fca:	d041      	beq.n	20008050 <_free_r+0x8c>
20007fcc:	f851 3c04 	ldr.w	r3, [r1, #-4]
20007fd0:	1f0c      	subs	r4, r1, #4
20007fd2:	2b00      	cmp	r3, #0
20007fd4:	bfb8      	it	lt
20007fd6:	18e4      	addlt	r4, r4, r3
20007fd8:	f000 f8e0 	bl	2000819c <__malloc_lock>
20007fdc:	4a1d      	ldr	r2, [pc, #116]	@ (20008054 <_free_r+0x90>)
20007fde:	6813      	ldr	r3, [r2, #0]
20007fe0:	b933      	cbnz	r3, 20007ff0 <_free_r+0x2c>
20007fe2:	6063      	str	r3, [r4, #4]
20007fe4:	6014      	str	r4, [r2, #0]
20007fe6:	4628      	mov	r0, r5
20007fe8:	e8bd 4038 	ldmia.w	sp!, {r3, r4, r5, lr}
20007fec:	f000 b8dc 	b.w	200081a8 <__malloc_unlock>
20007ff0:	42a3      	cmp	r3, r4
20007ff2:	d908      	bls.n	20008006 <_free_r+0x42>
20007ff4:	6820      	ldr	r0, [r4, #0]
20007ff6:	1821      	adds	r1, r4, r0
20007ff8:	428b      	cmp	r3, r1
20007ffa:	bf01      	itttt	eq
20007ffc:	6819      	ldreq	r1, [r3, #0]
20007ffe:	685b      	ldreq	r3, [r3, #4]
20008000:	1809      	addeq	r1, r1, r0
20008002:	6021      	streq	r1, [r4, #0]
20008004:	e7ed      	b.n	20007fe2 <_free_r+0x1e>
20008006:	461a      	mov	r2, r3
20008008:	685b      	ldr	r3, [r3, #4]
2000800a:	b10b      	cbz	r3, 20008010 <_free_r+0x4c>
2000800c:	42a3      	cmp	r3, r4
2000800e:	d9fa      	bls.n	20008006 <_free_r+0x42>
20008010:	6811      	ldr	r1, [r2, #0]
20008012:	1850      	adds	r0, r2, r1
20008014:	42a0      	cmp	r0, r4
20008016:	d10b      	bne.n	20008030 <_free_r+0x6c>
20008018:	6820      	ldr	r0, [r4, #0]
2000801a:	4401      	add	r1, r0
2000801c:	1850      	adds	r0, r2, r1
2000801e:	4283      	cmp	r3, r0
20008020:	6011      	str	r1, [r2, #0]
20008022:	d1e0      	bne.n	20007fe6 <_free_r+0x22>
20008024:	6818      	ldr	r0, [r3, #0]
20008026:	685b      	ldr	r3, [r3, #4]
20008028:	6053      	str	r3, [r2, #4]
2000802a:	4408      	add	r0, r1
2000802c:	6010      	str	r0, [r2, #0]
2000802e:	e7da      	b.n	20007fe6 <_free_r+0x22>
20008030:	d902      	bls.n	20008038 <_free_r+0x74>
20008032:	230c      	movs	r3, #12
20008034:	602b      	str	r3, [r5, #0]
20008036:	e7d6      	b.n	20007fe6 <_free_r+0x22>
20008038:	6820      	ldr	r0, [r4, #0]
2000803a:	1821      	adds	r1, r4, r0
2000803c:	428b      	cmp	r3, r1
2000803e:	bf04      	itt	eq
20008040:	6819      	ldreq	r1, [r3, #0]
20008042:	685b      	ldreq	r3, [r3, #4]
20008044:	6063      	str	r3, [r4, #4]
20008046:	bf04      	itt	eq
20008048:	1809      	addeq	r1, r1, r0
2000804a:	6021      	streq	r1, [r4, #0]
2000804c:	6054      	str	r4, [r2, #4]
2000804e:	e7ca      	b.n	20007fe6 <_free_r+0x22>
20008050:	bd38      	pop	{r3, r4, r5, pc}
20008052:	bf00      	nop
20008054:	20012394 	.word	0x20012394

20008058 <sbrk_aligned>:
20008058:	b570      	push	{r4, r5, r6, lr}
2000805a:	4e0f      	ldr	r6, [pc, #60]	@ (20008098 <sbrk_aligned+0x40>)
2000805c:	460c      	mov	r4, r1
2000805e:	6831      	ldr	r1, [r6, #0]
20008060:	4605      	mov	r5, r0
20008062:	b911      	cbnz	r1, 2000806a <sbrk_aligned+0x12>
20008064:	f000 f8d4 	bl	20008210 <_sbrk_r>
20008068:	6030      	str	r0, [r6, #0]
2000806a:	4621      	mov	r1, r4
2000806c:	4628      	mov	r0, r5
2000806e:	f000 f8cf 	bl	20008210 <_sbrk_r>
20008072:	1c43      	adds	r3, r0, #1
20008074:	d103      	bne.n	2000807e <sbrk_aligned+0x26>
20008076:	f04f 34ff 	mov.w	r4, #4294967295
2000807a:	4620      	mov	r0, r4
2000807c:	bd70      	pop	{r4, r5, r6, pc}
2000807e:	1cc4      	adds	r4, r0, #3
20008080:	f024 0403 	bic.w	r4, r4, #3
20008084:	42a0      	cmp	r0, r4
20008086:	d0f8      	beq.n	2000807a <sbrk_aligned+0x22>
20008088:	1a21      	subs	r1, r4, r0
2000808a:	4628      	mov	r0, r5
2000808c:	f000 f8c0 	bl	20008210 <_sbrk_r>
20008090:	3001      	adds	r0, #1
20008092:	d1f2      	bne.n	2000807a <sbrk_aligned+0x22>
20008094:	e7ef      	b.n	20008076 <sbrk_aligned+0x1e>
20008096:	bf00      	nop
20008098:	20012390 	.word	0x20012390

2000809c <_malloc_r>:
2000809c:	e92d 43f8 	stmdb	sp!, {r3, r4, r5, r6, r7, r8, r9, lr}
200080a0:	1ccd      	adds	r5, r1, #3
200080a2:	f025 0503 	bic.w	r5, r5, #3
200080a6:	3508      	adds	r5, #8
200080a8:	2d0c      	cmp	r5, #12
200080aa:	bf38      	it	cc
200080ac:	250c      	movcc	r5, #12
200080ae:	2d00      	cmp	r5, #0
200080b0:	4606      	mov	r6, r0
200080b2:	db01      	blt.n	200080b8 <_malloc_r+0x1c>
200080b4:	42a9      	cmp	r1, r5
200080b6:	d904      	bls.n	200080c2 <_malloc_r+0x26>
200080b8:	230c      	movs	r3, #12
200080ba:	6033      	str	r3, [r6, #0]
200080bc:	2000      	movs	r0, #0
200080be:	e8bd 83f8 	ldmia.w	sp!, {r3, r4, r5, r6, r7, r8, r9, pc}
200080c2:	f8df 80d4 	ldr.w	r8, [pc, #212]	@ 20008198 <_malloc_r+0xfc>
200080c6:	f000 f869 	bl	2000819c <__malloc_lock>
200080ca:	f8d8 3000 	ldr.w	r3, [r8]
200080ce:	461c      	mov	r4, r3
200080d0:	bb44      	cbnz	r4, 20008124 <_malloc_r+0x88>
200080d2:	4629      	mov	r1, r5
200080d4:	4630      	mov	r0, r6
200080d6:	f7ff ffbf 	bl	20008058 <sbrk_aligned>
200080da:	1c43      	adds	r3, r0, #1
200080dc:	4604      	mov	r4, r0
200080de:	d158      	bne.n	20008192 <_malloc_r+0xf6>
200080e0:	f8d8 4000 	ldr.w	r4, [r8]
200080e4:	4627      	mov	r7, r4
200080e6:	2f00      	cmp	r7, #0
200080e8:	d143      	bne.n	20008172 <_malloc_r+0xd6>
200080ea:	2c00      	cmp	r4, #0
200080ec:	d04b      	beq.n	20008186 <_malloc_r+0xea>
200080ee:	6823      	ldr	r3, [r4, #0]
200080f0:	4639      	mov	r1, r7
200080f2:	4630      	mov	r0, r6
200080f4:	eb04 0903 	add.w	r9, r4, r3
200080f8:	f000 f88a 	bl	20008210 <_sbrk_r>
200080fc:	4581      	cmp	r9, r0
200080fe:	d142      	bne.n	20008186 <_malloc_r+0xea>
20008100:	6821      	ldr	r1, [r4, #0]
20008102:	1a6d      	subs	r5, r5, r1
20008104:	4629      	mov	r1, r5
20008106:	4630      	mov	r0, r6
20008108:	f7ff ffa6 	bl	20008058 <sbrk_aligned>
2000810c:	3001      	adds	r0, #1
2000810e:	d03a      	beq.n	20008186 <_malloc_r+0xea>
20008110:	6823      	ldr	r3, [r4, #0]
20008112:	442b      	add	r3, r5
20008114:	6023      	str	r3, [r4, #0]
20008116:	f8d8 3000 	ldr.w	r3, [r8]
2000811a:	685a      	ldr	r2, [r3, #4]
2000811c:	bb62      	cbnz	r2, 20008178 <_malloc_r+0xdc>
2000811e:	f8c8 7000 	str.w	r7, [r8]
20008122:	e00f      	b.n	20008144 <_malloc_r+0xa8>
20008124:	6822      	ldr	r2, [r4, #0]
20008126:	1b52      	subs	r2, r2, r5
20008128:	d420      	bmi.n	2000816c <_malloc_r+0xd0>
2000812a:	2a0b      	cmp	r2, #11
2000812c:	d917      	bls.n	2000815e <_malloc_r+0xc2>
2000812e:	1961      	adds	r1, r4, r5
20008130:	42a3      	cmp	r3, r4
20008132:	6025      	str	r5, [r4, #0]
20008134:	bf18      	it	ne
20008136:	6059      	strne	r1, [r3, #4]
20008138:	6863      	ldr	r3, [r4, #4]
2000813a:	bf08      	it	eq
2000813c:	f8c8 1000 	streq.w	r1, [r8]
20008140:	5162      	str	r2, [r4, r5]
20008142:	604b      	str	r3, [r1, #4]
20008144:	4630      	mov	r0, r6
20008146:	f000 f82f 	bl	200081a8 <__malloc_unlock>
2000814a:	f104 000b 	add.w	r0, r4, #11
2000814e:	1d23      	adds	r3, r4, #4
20008150:	f020 0007 	bic.w	r0, r0, #7
20008154:	1ac2      	subs	r2, r0, r3
20008156:	bf1c      	itt	ne
20008158:	1a1b      	subne	r3, r3, r0
2000815a:	50a3      	strne	r3, [r4, r2]
2000815c:	e7af      	b.n	200080be <_malloc_r+0x22>
2000815e:	6862      	ldr	r2, [r4, #4]
20008160:	42a3      	cmp	r3, r4
20008162:	bf0c      	ite	eq
20008164:	f8c8 2000 	streq.w	r2, [r8]
20008168:	605a      	strne	r2, [r3, #4]
2000816a:	e7eb      	b.n	20008144 <_malloc_r+0xa8>
2000816c:	4623      	mov	r3, r4
2000816e:	6864      	ldr	r4, [r4, #4]
20008170:	e7ae      	b.n	200080d0 <_malloc_r+0x34>
20008172:	463c      	mov	r4, r7
20008174:	687f      	ldr	r7, [r7, #4]
20008176:	e7b6      	b.n	200080e6 <_malloc_r+0x4a>
20008178:	461a      	mov	r2, r3
2000817a:	685b      	ldr	r3, [r3, #4]
2000817c:	42a3      	cmp	r3, r4
2000817e:	d1fb      	bne.n	20008178 <_malloc_r+0xdc>
20008180:	2300      	movs	r3, #0
20008182:	6053      	str	r3, [r2, #4]
20008184:	e7de      	b.n	20008144 <_malloc_r+0xa8>
20008186:	230c      	movs	r3, #12
20008188:	6033      	str	r3, [r6, #0]
2000818a:	4630      	mov	r0, r6
2000818c:	f000 f80c 	bl	200081a8 <__malloc_unlock>
20008190:	e794      	b.n	200080bc <_malloc_r+0x20>
20008192:	6005      	str	r5, [r0, #0]
20008194:	e7d6      	b.n	20008144 <_malloc_r+0xa8>
20008196:	bf00      	nop
20008198:	20012394 	.word	0x20012394

2000819c <__malloc_lock>:
2000819c:	4801      	ldr	r0, [pc, #4]	@ (200081a4 <__malloc_lock+0x8>)
2000819e:	f000 b84c 	b.w	2000823a <__retarget_lock_acquire_recursive>
200081a2:	bf00      	nop
200081a4:	2001239c 	.word	0x2001239c

200081a8 <__malloc_unlock>:
200081a8:	4801      	ldr	r0, [pc, #4]	@ (200081b0 <__malloc_unlock+0x8>)
200081aa:	f000 b84c 	b.w	20008246 <__retarget_lock_release_recursive>
200081ae:	bf00      	nop
200081b0:	2001239c 	.word	0x2001239c

200081b4 <_realloc_r>:
200081b4:	e92d 41f0 	stmdb	sp!, {r4, r5, r6, r7, r8, lr}
200081b8:	4607      	mov	r7, r0
200081ba:	4614      	mov	r4, r2
200081bc:	460d      	mov	r5, r1
200081be:	b921      	cbnz	r1, 200081ca <_realloc_r+0x16>
200081c0:	e8bd 41f0 	ldmia.w	sp!, {r4, r5, r6, r7, r8, lr}
200081c4:	4611      	mov	r1, r2
200081c6:	f7ff bf69 	b.w	2000809c <_malloc_r>
200081ca:	b92a      	cbnz	r2, 200081d8 <_realloc_r+0x24>
200081cc:	f7ff fefa 	bl	20007fc4 <_free_r>
200081d0:	4625      	mov	r5, r4
200081d2:	4628      	mov	r0, r5
200081d4:	e8bd 81f0 	ldmia.w	sp!, {r4, r5, r6, r7, r8, pc}
200081d8:	f000 f836 	bl	20008248 <_malloc_usable_size_r>
200081dc:	4284      	cmp	r4, r0
200081de:	4606      	mov	r6, r0
200081e0:	d802      	bhi.n	200081e8 <_realloc_r+0x34>
200081e2:	ebb4 0f50 	cmp.w	r4, r0, lsr #1
200081e6:	d8f4      	bhi.n	200081d2 <_realloc_r+0x1e>
200081e8:	4621      	mov	r1, r4
200081ea:	4638      	mov	r0, r7
200081ec:	f7ff ff56 	bl	2000809c <_malloc_r>
200081f0:	4680      	mov	r8, r0
200081f2:	b908      	cbnz	r0, 200081f8 <_realloc_r+0x44>
200081f4:	4645      	mov	r5, r8
200081f6:	e7ec      	b.n	200081d2 <_realloc_r+0x1e>
200081f8:	42b4      	cmp	r4, r6
200081fa:	4622      	mov	r2, r4
200081fc:	4629      	mov	r1, r5
200081fe:	bf28      	it	cs
20008200:	4632      	movcs	r2, r6
20008202:	f7ff fed0 	bl	20007fa6 <memcpy>
20008206:	4629      	mov	r1, r5
20008208:	4638      	mov	r0, r7
2000820a:	f7ff fedb 	bl	20007fc4 <_free_r>
2000820e:	e7f1      	b.n	200081f4 <_realloc_r+0x40>

20008210 <_sbrk_r>:
20008210:	b538      	push	{r3, r4, r5, lr}
20008212:	4d06      	ldr	r5, [pc, #24]	@ (2000822c <_sbrk_r+0x1c>)
20008214:	2300      	movs	r3, #0
20008216:	4604      	mov	r4, r0
20008218:	4608      	mov	r0, r1
2000821a:	602b      	str	r3, [r5, #0]
2000821c:	f7f8 fcbc 	bl	20000b98 <_sbrk>
20008220:	1c43      	adds	r3, r0, #1
20008222:	d102      	bne.n	2000822a <_sbrk_r+0x1a>
20008224:	682b      	ldr	r3, [r5, #0]
20008226:	b103      	cbz	r3, 2000822a <_sbrk_r+0x1a>
20008228:	6023      	str	r3, [r4, #0]
2000822a:	bd38      	pop	{r3, r4, r5, pc}
2000822c:	200123a0 	.word	0x200123a0

20008230 <__retarget_lock_init>:
20008230:	4770      	bx	lr

20008232 <__retarget_lock_init_recursive>:
20008232:	4770      	bx	lr

20008234 <__retarget_lock_close>:
20008234:	4770      	bx	lr

20008236 <__retarget_lock_close_recursive>:
20008236:	4770      	bx	lr

20008238 <__retarget_lock_acquire>:
20008238:	4770      	bx	lr

2000823a <__retarget_lock_acquire_recursive>:
2000823a:	4770      	bx	lr

2000823c <__retarget_lock_try_acquire>:
2000823c:	2001      	movs	r0, #1
2000823e:	4770      	bx	lr

20008240 <__retarget_lock_try_acquire_recursive>:
20008240:	2001      	movs	r0, #1
20008242:	4770      	bx	lr

20008244 <__retarget_lock_release>:
20008244:	4770      	bx	lr

20008246 <__retarget_lock_release_recursive>:
20008246:	4770      	bx	lr

20008248 <_malloc_usable_size_r>:
20008248:	f851 3c04 	ldr.w	r3, [r1, #-4]
2000824c:	1f18      	subs	r0, r3, #4
2000824e:	2b00      	cmp	r3, #0
20008250:	bfbc      	itt	lt
20008252:	580b      	ldrlt	r3, [r1, r0]
20008254:	18c0      	addlt	r0, r0, r3
20008256:	4770      	bx	lr

20008258 <_reclaim_reent>:
20008258:	4b2d      	ldr	r3, [pc, #180]	@ (20008310 <_reclaim_reent+0xb8>)
2000825a:	681b      	ldr	r3, [r3, #0]
2000825c:	4283      	cmp	r3, r0
2000825e:	b570      	push	{r4, r5, r6, lr}
20008260:	4604      	mov	r4, r0
20008262:	d053      	beq.n	2000830c <_reclaim_reent+0xb4>
20008264:	69c3      	ldr	r3, [r0, #28]
20008266:	b31b      	cbz	r3, 200082b0 <_reclaim_reent+0x58>
20008268:	68db      	ldr	r3, [r3, #12]
2000826a:	b163      	cbz	r3, 20008286 <_reclaim_reent+0x2e>
2000826c:	2500      	movs	r5, #0
2000826e:	69e3      	ldr	r3, [r4, #28]
20008270:	68db      	ldr	r3, [r3, #12]
20008272:	5959      	ldr	r1, [r3, r5]
20008274:	b9b1      	cbnz	r1, 200082a4 <_reclaim_reent+0x4c>
20008276:	3504      	adds	r5, #4
20008278:	2d80      	cmp	r5, #128	@ 0x80
2000827a:	d1f8      	bne.n	2000826e <_reclaim_reent+0x16>
2000827c:	69e3      	ldr	r3, [r4, #28]
2000827e:	4620      	mov	r0, r4
20008280:	68d9      	ldr	r1, [r3, #12]
20008282:	f7ff fe9f 	bl	20007fc4 <_free_r>
20008286:	69e3      	ldr	r3, [r4, #28]
20008288:	6819      	ldr	r1, [r3, #0]
2000828a:	b111      	cbz	r1, 20008292 <_reclaim_reent+0x3a>
2000828c:	4620      	mov	r0, r4
2000828e:	f7ff fe99 	bl	20007fc4 <_free_r>
20008292:	69e3      	ldr	r3, [r4, #28]
20008294:	689d      	ldr	r5, [r3, #8]
20008296:	b15d      	cbz	r5, 200082b0 <_reclaim_reent+0x58>
20008298:	4629      	mov	r1, r5
2000829a:	4620      	mov	r0, r4
2000829c:	682d      	ldr	r5, [r5, #0]
2000829e:	f7ff fe91 	bl	20007fc4 <_free_r>
200082a2:	e7f8      	b.n	20008296 <_reclaim_reent+0x3e>
200082a4:	680e      	ldr	r6, [r1, #0]
200082a6:	4620      	mov	r0, r4
200082a8:	f7ff fe8c 	bl	20007fc4 <_free_r>
200082ac:	4631      	mov	r1, r6
200082ae:	e7e1      	b.n	20008274 <_reclaim_reent+0x1c>
200082b0:	6961      	ldr	r1, [r4, #20]
200082b2:	b111      	cbz	r1, 200082ba <_reclaim_reent+0x62>
200082b4:	4620      	mov	r0, r4
200082b6:	f7ff fe85 	bl	20007fc4 <_free_r>
200082ba:	69e1      	ldr	r1, [r4, #28]
200082bc:	b111      	cbz	r1, 200082c4 <_reclaim_reent+0x6c>
200082be:	4620      	mov	r0, r4
200082c0:	f7ff fe80 	bl	20007fc4 <_free_r>
200082c4:	6b21      	ldr	r1, [r4, #48]	@ 0x30
200082c6:	b111      	cbz	r1, 200082ce <_reclaim_reent+0x76>
200082c8:	4620      	mov	r0, r4
200082ca:	f7ff fe7b 	bl	20007fc4 <_free_r>
200082ce:	6b61      	ldr	r1, [r4, #52]	@ 0x34
200082d0:	b111      	cbz	r1, 200082d8 <_reclaim_reent+0x80>
200082d2:	4620      	mov	r0, r4
200082d4:	f7ff fe76 	bl	20007fc4 <_free_r>
200082d8:	6ba1      	ldr	r1, [r4, #56]	@ 0x38
200082da:	b111      	cbz	r1, 200082e2 <_reclaim_reent+0x8a>
200082dc:	4620      	mov	r0, r4
200082de:	f7ff fe71 	bl	20007fc4 <_free_r>
200082e2:	6ca1      	ldr	r1, [r4, #72]	@ 0x48
200082e4:	b111      	cbz	r1, 200082ec <_reclaim_reent+0x94>
200082e6:	4620      	mov	r0, r4
200082e8:	f7ff fe6c 	bl	20007fc4 <_free_r>
200082ec:	6c61      	ldr	r1, [r4, #68]	@ 0x44
200082ee:	b111      	cbz	r1, 200082f6 <_reclaim_reent+0x9e>
200082f0:	4620      	mov	r0, r4
200082f2:	f7ff fe67 	bl	20007fc4 <_free_r>
200082f6:	6ae1      	ldr	r1, [r4, #44]	@ 0x2c
200082f8:	b111      	cbz	r1, 20008300 <_reclaim_reent+0xa8>
200082fa:	4620      	mov	r0, r4
200082fc:	f7ff fe62 	bl	20007fc4 <_free_r>
20008300:	6a23      	ldr	r3, [r4, #32]
20008302:	b11b      	cbz	r3, 2000830c <_reclaim_reent+0xb4>
20008304:	4620      	mov	r0, r4
20008306:	e8bd 4070 	ldmia.w	sp!, {r4, r5, r6, lr}
2000830a:	4718      	bx	r3
2000830c:	bd70      	pop	{r4, r5, r6, pc}
2000830e:	bf00      	nop
20008310:	200096d4 	.word	0x200096d4
20008314:	206e6143 	.word	0x206e6143
20008318:	2067736d 	.word	0x2067736d
2000831c:	65636572 	.word	0x65636572
20008320:	64657669 	.word	0x64657669
20008324:	0000203a 	.word	0x0000203a
20008328:	3a766352 	.word	0x3a766352
2000832c:	00002720 	.word	0x00002720
20008330:	00000a27 	.word	0x00000a27
20008334:	65746e45 	.word	0x65746e45
20008338:	656b2072 	.word	0x656b2072
2000833c:	65202c79 	.word	0x65202c79
20008340:	7720646e 	.word	0x7720646e
20008344:	20687469 	.word	0x20687469
20008348:	0a276527 	.word	0x0a276527
2000834c:	00000000 	.word	0x00000000
20008350:	65746e45 	.word	0x65746e45
20008354:	65742072 	.word	0x65742072
20008358:	2c6f706d 	.word	0x2c6f706d
2000835c:	646e6520 	.word	0x646e6520
20008360:	74697720 	.word	0x74697720
20008364:	65272068 	.word	0x65272068
20008368:	00000a27 	.word	0x00000a27
2000836c:	3a6c6f56 	.word	0x3a6c6f56
20008370:	0a642520 	.word	0x0a642520
20008374:	00000000 	.word	0x00000000
20008378:	3a79654b 	.word	0x3a79654b
2000837c:	0a642520 	.word	0x0a642520
20008380:	00000000 	.word	0x00000000
20008384:	706d6554 	.word	0x706d6554
20008388:	25203a6f 	.word	0x25203a6f
2000838c:	00000a64 	.word	0x00000a64
20008390:	6c6c6548 	.word	0x6c6c6548
20008394:	68202c6f 	.word	0x68202c6f
20008398:	6f6c6c65 	.word	0x6f6c6c65
2000839c:	0a2e2e2e 	.word	0x0a2e2e2e
200083a0:	00000000 	.word	0x00000000
200083a4:	45544f4e 	.word	0x45544f4e
200083a8:	735f203a 	.word	0x735f203a
200083ac:	206b7262 	.word	0x206b7262
200083b0:	75206e69 	.word	0x75206e69
200083b4:	0a216573 	.word	0x0a216573
200083b8:	0000000d 	.word	0x0000000d
200083bc:	494e4150 	.word	0x494e4150
200083c0:	21212143 	.word	0x21212143
200083c4:	00000020 	.word	0x00000020
200083c8:	74706d45 	.word	0x74706d45
200083cc:	75712079 	.word	0x75712079
200083d0:	00657565 	.word	0x00657565
200083d4:	74706d45 	.word	0x74706d45
200083d8:	6f702079 	.word	0x6f702079
200083dc:	00006c6f 	.word	0x00006c6f
200083e0:	00000d0a 	.word	0x00000d0a
200083e4:	796e6954 	.word	0x796e6954
200083e8:	626d6954 	.word	0x626d6954
200083ec:	00207265 	.word	0x00207265
200083f0:	302e3276 	.word	0x302e3276
200083f4:	20316136 	.word	0x20316136
200083f8:	32303228 	.word	0x32303228
200083fc:	33302d31 	.word	0x33302d31
20008400:	2931312d 	.word	0x2931312d
20008404:	00000000 	.word	0x00000000
20008408:	69766544 	.word	0x69766544
2000840c:	49206563 	.word	0x49206563
20008410:	6e205152 	.word	0x6e205152
20008414:	7320746f 	.word	0x7320746f
20008418:	6f707075 	.word	0x6f707075
2000841c:	64657472 	.word	0x64657472
20008420:	2e2e2e20 	.word	0x2e2e2e20
20008424:	00000000 	.word	0x00000000
20008428:	41430d0a 	.word	0x41430d0a
2000842c:	3123204e 	.word	0x3123204e
20008430:	696e4920 	.word	0x696e4920
20008434:	61662074 	.word	0x61662074
20008438:	64656c69 	.word	0x64656c69
2000843c:	000d0a21 	.word	0x000d0a21
20008440:	204e4143 	.word	0x204e4143
20008444:	49203223 	.word	0x49203223
20008448:	2074696e 	.word	0x2074696e
2000844c:	6c696166 	.word	0x6c696166
20008450:	0a216465 	.word	0x0a216465
20008454:	0000000d 	.word	0x0000000d
20008458:	74530d0a 	.word	0x74530d0a
2000845c:	676e6172 	.word	0x676e6172
20008460:	4e203a65 	.word	0x4e203a65
20008464:	6120746f 	.word	0x6120746f
20008468:	4e414320 	.word	0x4e414320
2000846c:	20312320 	.word	0x20312320
20008470:	4f464946 	.word	0x4f464946
20008474:	52492030 	.word	0x52492030
20008478:	0d0a2151 	.word	0x0d0a2151
2000847c:	00000000 	.word	0x00000000
20008480:	74530d0a 	.word	0x74530d0a
20008484:	676e6172 	.word	0x676e6172
20008488:	43203a65 	.word	0x43203a65
2000848c:	23204e41 	.word	0x23204e41
20008490:	49462031 	.word	0x49462031
20008494:	20304f46 	.word	0x20304f46
20008498:	6c6c7546 	.word	0x6c6c7546
2000849c:	000d0a21 	.word	0x000d0a21
200084a0:	204e4143 	.word	0x204e4143
200084a4:	75427854 	.word	0x75427854
200084a8:	75662066 	.word	0x75662066
200084ac:	0a216c6c 	.word	0x0a216c6c
200084b0:	0000000d 	.word	0x0000000d
200084b4:	74530d0a 	.word	0x74530d0a
200084b8:	676e6172 	.word	0x676e6172
200084bc:	4e203a65 	.word	0x4e203a65
200084c0:	6120746f 	.word	0x6120746f
200084c4:	49504720 	.word	0x49504720
200084c8:	6220424f 	.word	0x6220424f
200084cc:	20377469 	.word	0x20377469
200084d0:	21515249 	.word	0x21515249
200084d4:	00000d0a 	.word	0x00000d0a

200084d8 <APBAHBPrescTable>:
200084d8:	00000000 04030201 04030201 09080706     ................

200084e8 <_ctype_>:
200084e8:	20202000 20202020 28282020 20282828     .         ((((( 
200084f8:	20202020 20202020 20202020 20202020                     
20008508:	10108820 10101010 10101010 10101010      ...............
20008518:	04040410 04040404 10040404 10101010     ................
20008528:	41411010 41414141 01010101 01010101     ..AAAAAA........
20008538:	01010101 01010101 01010101 10101010     ................
20008548:	42421010 42424242 02020202 02020202     ..BBBBBB........
20008558:	02020202 02020202 02020202 10101010     ................
20008568:	00000020 00000000 00000000 00000000      ...............
	...
200085e8:	302d2300 6800202b 65004c6c 46456766     .#-0+ .hlL.efgEF
200085f8:	31300047 35343332 39383736 44434241     G.0123456789ABCD
20008608:	30004645 34333231 38373635 63626139     EF.0123456789abc
20008618:	00666564                                def.
